
robot-firmware.elf:     file format elf32-littlearm

Sections:
Idx Name          Size      VMA       LMA       File off  Algn
  0 .isr_vector   000001f8  08000000  08000000  00010000  2**0
                  CONTENTS, ALLOC, LOAD, READONLY, DATA
  1 .text         000086a8  08000200  08000200  00010200  2**4
                  CONTENTS, ALLOC, LOAD, READONLY, CODE
  2 .rodata       000000c8  080088a8  080088a8  000188a8  2**2
                  CONTENTS, ALLOC, LOAD, READONLY, DATA
  3 .ARM.extab    00000000  08008970  08008970  00020074  2**0
                  CONTENTS
  4 .ARM          00000008  08008970  08008970  00018970  2**2
                  CONTENTS, ALLOC, LOAD, READONLY, DATA
  5 .preinit_array 00000000  08008978  08008978  00020074  2**0
                  CONTENTS, ALLOC, LOAD, DATA
  6 .init_array   00000004  08008978  08008978  00018978  2**2
                  CONTENTS, ALLOC, LOAD, DATA
  7 .fini_array   00000004  0800897c  0800897c  0001897c  2**2
                  CONTENTS, ALLOC, LOAD, DATA
  8 .data         00000074  20000000  08008980  00020000  2**2
                  CONTENTS, ALLOC, LOAD, DATA
  9 .bss          00004328  20000074  080089f4  00020074  2**2
                  ALLOC
 10 ._user_heap_stack 00000604  2000439c  080089f4  0002439c  2**0
                  ALLOC
 11 .ARM.attributes 0000002e  00000000  00000000  00020074  2**0
                  CONTENTS, READONLY
 12 .debug_info   0001b489  00000000  00000000  000200a2  2**0
                  CONTENTS, READONLY, DEBUGGING, OCTETS
 13 .debug_abbrev 00003cb7  00000000  00000000  0003b52b  2**0
                  CONTENTS, READONLY, DEBUGGING, OCTETS
 14 .debug_aranges 00001880  00000000  00000000  0003f1e8  2**3
                  CONTENTS, READONLY, DEBUGGING, OCTETS
 15 .debug_ranges 000016a8  00000000  00000000  00040a68  2**3
                  CONTENTS, READONLY, DEBUGGING, OCTETS
 16 .debug_macro  0000599f  00000000  00000000  00042110  2**0
                  CONTENTS, READONLY, DEBUGGING, OCTETS
 17 .debug_line   0001cc9f  00000000  00000000  00047aaf  2**0
                  CONTENTS, READONLY, DEBUGGING, OCTETS
 18 .debug_str    00104485  00000000  00000000  0006474e  2**0
                  CONTENTS, READONLY, DEBUGGING, OCTETS
 19 .comment      00000050  00000000  00000000  00168bd3  2**0
                  CONTENTS, READONLY
 20 .debug_frame  00006678  00000000  00000000  00168c24  2**2
                  CONTENTS, READONLY, DEBUGGING, OCTETS

Disassembly of section .text:

08000200 <__do_global_dtors_aux>:
 8000200:	b510      	push	{r4, lr}
 8000202:	4c05      	ldr	r4, [pc, #20]	; (8000218 <__do_global_dtors_aux+0x18>)
 8000204:	7823      	ldrb	r3, [r4, #0]
 8000206:	b933      	cbnz	r3, 8000216 <__do_global_dtors_aux+0x16>
 8000208:	4b04      	ldr	r3, [pc, #16]	; (800021c <__do_global_dtors_aux+0x1c>)
 800020a:	b113      	cbz	r3, 8000212 <__do_global_dtors_aux+0x12>
 800020c:	4804      	ldr	r0, [pc, #16]	; (8000220 <__do_global_dtors_aux+0x20>)
 800020e:	f3af 8000 	nop.w
 8000212:	2301      	movs	r3, #1
 8000214:	7023      	strb	r3, [r4, #0]
 8000216:	bd10      	pop	{r4, pc}
 8000218:	20000074 	.word	0x20000074
 800021c:	00000000 	.word	0x00000000
 8000220:	08008890 	.word	0x08008890

08000224 <frame_dummy>:
 8000224:	b508      	push	{r3, lr}
 8000226:	4b03      	ldr	r3, [pc, #12]	; (8000234 <frame_dummy+0x10>)
 8000228:	b11b      	cbz	r3, 8000232 <frame_dummy+0xe>
 800022a:	4903      	ldr	r1, [pc, #12]	; (8000238 <frame_dummy+0x14>)
 800022c:	4803      	ldr	r0, [pc, #12]	; (800023c <frame_dummy+0x18>)
 800022e:	f3af 8000 	nop.w
 8000232:	bd08      	pop	{r3, pc}
 8000234:	00000000 	.word	0x00000000
 8000238:	20000078 	.word	0x20000078
 800023c:	08008890 	.word	0x08008890

08000240 <__aeabi_uldivmod>:
 8000240:	b953      	cbnz	r3, 8000258 <__aeabi_uldivmod+0x18>
 8000242:	b94a      	cbnz	r2, 8000258 <__aeabi_uldivmod+0x18>
 8000244:	2900      	cmp	r1, #0
 8000246:	bf08      	it	eq
 8000248:	2800      	cmpeq	r0, #0
 800024a:	bf1c      	itt	ne
 800024c:	f04f 31ff 	movne.w	r1, #4294967295
 8000250:	f04f 30ff 	movne.w	r0, #4294967295
 8000254:	f000 b974 	b.w	8000540 <__aeabi_idiv0>
 8000258:	f1ad 0c08 	sub.w	ip, sp, #8
 800025c:	e96d ce04 	strd	ip, lr, [sp, #-16]!
 8000260:	f000 f806 	bl	8000270 <__udivmoddi4>
 8000264:	f8dd e004 	ldr.w	lr, [sp, #4]
 8000268:	e9dd 2302 	ldrd	r2, r3, [sp, #8]
 800026c:	b004      	add	sp, #16
 800026e:	4770      	bx	lr

08000270 <__udivmoddi4>:
 8000270:	e92d 47f0 	stmdb	sp!, {r4, r5, r6, r7, r8, r9, sl, lr}
 8000274:	9d08      	ldr	r5, [sp, #32]
 8000276:	4604      	mov	r4, r0
 8000278:	468e      	mov	lr, r1
 800027a:	2b00      	cmp	r3, #0
 800027c:	d14d      	bne.n	800031a <__udivmoddi4+0xaa>
 800027e:	428a      	cmp	r2, r1
 8000280:	4694      	mov	ip, r2
 8000282:	d969      	bls.n	8000358 <__udivmoddi4+0xe8>
 8000284:	fab2 f282 	clz	r2, r2
 8000288:	b152      	cbz	r2, 80002a0 <__udivmoddi4+0x30>
 800028a:	fa01 f302 	lsl.w	r3, r1, r2
 800028e:	f1c2 0120 	rsb	r1, r2, #32
 8000292:	fa20 f101 	lsr.w	r1, r0, r1
 8000296:	fa0c fc02 	lsl.w	ip, ip, r2
 800029a:	ea41 0e03 	orr.w	lr, r1, r3
 800029e:	4094      	lsls	r4, r2
 80002a0:	ea4f 481c 	mov.w	r8, ip, lsr #16
 80002a4:	0c21      	lsrs	r1, r4, #16
 80002a6:	fbbe f6f8 	udiv	r6, lr, r8
 80002aa:	fa1f f78c 	uxth.w	r7, ip
 80002ae:	fb08 e316 	mls	r3, r8, r6, lr
 80002b2:	ea41 4303 	orr.w	r3, r1, r3, lsl #16
 80002b6:	fb06 f107 	mul.w	r1, r6, r7
 80002ba:	4299      	cmp	r1, r3
 80002bc:	d90a      	bls.n	80002d4 <__udivmoddi4+0x64>
 80002be:	eb1c 0303 	adds.w	r3, ip, r3
 80002c2:	f106 30ff 	add.w	r0, r6, #4294967295
 80002c6:	f080 811f 	bcs.w	8000508 <__udivmoddi4+0x298>
 80002ca:	4299      	cmp	r1, r3
 80002cc:	f240 811c 	bls.w	8000508 <__udivmoddi4+0x298>
 80002d0:	3e02      	subs	r6, #2
 80002d2:	4463      	add	r3, ip
 80002d4:	1a5b      	subs	r3, r3, r1
 80002d6:	b2a4      	uxth	r4, r4
 80002d8:	fbb3 f0f8 	udiv	r0, r3, r8
 80002dc:	fb08 3310 	mls	r3, r8, r0, r3
 80002e0:	ea44 4403 	orr.w	r4, r4, r3, lsl #16
 80002e4:	fb00 f707 	mul.w	r7, r0, r7
 80002e8:	42a7      	cmp	r7, r4
 80002ea:	d90a      	bls.n	8000302 <__udivmoddi4+0x92>
 80002ec:	eb1c 0404 	adds.w	r4, ip, r4
 80002f0:	f100 33ff 	add.w	r3, r0, #4294967295
 80002f4:	f080 810a 	bcs.w	800050c <__udivmoddi4+0x29c>
 80002f8:	42a7      	cmp	r7, r4
 80002fa:	f240 8107 	bls.w	800050c <__udivmoddi4+0x29c>
 80002fe:	4464      	add	r4, ip
 8000300:	3802      	subs	r0, #2
 8000302:	ea40 4006 	orr.w	r0, r0, r6, lsl #16
 8000306:	1be4      	subs	r4, r4, r7
 8000308:	2600      	movs	r6, #0
 800030a:	b11d      	cbz	r5, 8000314 <__udivmoddi4+0xa4>
 800030c:	40d4      	lsrs	r4, r2
 800030e:	2300      	movs	r3, #0
 8000310:	e9c5 4300 	strd	r4, r3, [r5]
 8000314:	4631      	mov	r1, r6
 8000316:	e8bd 87f0 	ldmia.w	sp!, {r4, r5, r6, r7, r8, r9, sl, pc}
 800031a:	428b      	cmp	r3, r1
 800031c:	d909      	bls.n	8000332 <__udivmoddi4+0xc2>
 800031e:	2d00      	cmp	r5, #0
 8000320:	f000 80ef 	beq.w	8000502 <__udivmoddi4+0x292>
 8000324:	2600      	movs	r6, #0
 8000326:	e9c5 0100 	strd	r0, r1, [r5]
 800032a:	4630      	mov	r0, r6
 800032c:	4631      	mov	r1, r6
 800032e:	e8bd 87f0 	ldmia.w	sp!, {r4, r5, r6, r7, r8, r9, sl, pc}
 8000332:	fab3 f683 	clz	r6, r3
 8000336:	2e00      	cmp	r6, #0
 8000338:	d14a      	bne.n	80003d0 <__udivmoddi4+0x160>
 800033a:	428b      	cmp	r3, r1
 800033c:	d302      	bcc.n	8000344 <__udivmoddi4+0xd4>
 800033e:	4282      	cmp	r2, r0
 8000340:	f200 80f9 	bhi.w	8000536 <__udivmoddi4+0x2c6>
 8000344:	1a84      	subs	r4, r0, r2
 8000346:	eb61 0303 	sbc.w	r3, r1, r3
 800034a:	2001      	movs	r0, #1
 800034c:	469e      	mov	lr, r3
 800034e:	2d00      	cmp	r5, #0
 8000350:	d0e0      	beq.n	8000314 <__udivmoddi4+0xa4>
 8000352:	e9c5 4e00 	strd	r4, lr, [r5]
 8000356:	e7dd      	b.n	8000314 <__udivmoddi4+0xa4>
 8000358:	b902      	cbnz	r2, 800035c <__udivmoddi4+0xec>
 800035a:	deff      	udf	#255	; 0xff
 800035c:	fab2 f282 	clz	r2, r2
 8000360:	2a00      	cmp	r2, #0
 8000362:	f040 8092 	bne.w	800048a <__udivmoddi4+0x21a>
 8000366:	eba1 010c 	sub.w	r1, r1, ip
 800036a:	ea4f 471c 	mov.w	r7, ip, lsr #16
 800036e:	fa1f fe8c 	uxth.w	lr, ip
 8000372:	2601      	movs	r6, #1
 8000374:	0c20      	lsrs	r0, r4, #16
 8000376:	fbb1 f3f7 	udiv	r3, r1, r7
 800037a:	fb07 1113 	mls	r1, r7, r3, r1
 800037e:	ea40 4101 	orr.w	r1, r0, r1, lsl #16
 8000382:	fb0e f003 	mul.w	r0, lr, r3
 8000386:	4288      	cmp	r0, r1
 8000388:	d908      	bls.n	800039c <__udivmoddi4+0x12c>
 800038a:	eb1c 0101 	adds.w	r1, ip, r1
 800038e:	f103 38ff 	add.w	r8, r3, #4294967295
 8000392:	d202      	bcs.n	800039a <__udivmoddi4+0x12a>
 8000394:	4288      	cmp	r0, r1
 8000396:	f200 80cb 	bhi.w	8000530 <__udivmoddi4+0x2c0>
 800039a:	4643      	mov	r3, r8
 800039c:	1a09      	subs	r1, r1, r0
 800039e:	b2a4      	uxth	r4, r4
 80003a0:	fbb1 f0f7 	udiv	r0, r1, r7
 80003a4:	fb07 1110 	mls	r1, r7, r0, r1
 80003a8:	ea44 4401 	orr.w	r4, r4, r1, lsl #16
 80003ac:	fb0e fe00 	mul.w	lr, lr, r0
 80003b0:	45a6      	cmp	lr, r4
 80003b2:	d908      	bls.n	80003c6 <__udivmoddi4+0x156>
 80003b4:	eb1c 0404 	adds.w	r4, ip, r4
 80003b8:	f100 31ff 	add.w	r1, r0, #4294967295
 80003bc:	d202      	bcs.n	80003c4 <__udivmoddi4+0x154>
 80003be:	45a6      	cmp	lr, r4
 80003c0:	f200 80bb 	bhi.w	800053a <__udivmoddi4+0x2ca>
 80003c4:	4608      	mov	r0, r1
 80003c6:	eba4 040e 	sub.w	r4, r4, lr
 80003ca:	ea40 4003 	orr.w	r0, r0, r3, lsl #16
 80003ce:	e79c      	b.n	800030a <__udivmoddi4+0x9a>
 80003d0:	f1c6 0720 	rsb	r7, r6, #32
 80003d4:	40b3      	lsls	r3, r6
 80003d6:	fa22 fc07 	lsr.w	ip, r2, r7
 80003da:	ea4c 0c03 	orr.w	ip, ip, r3
 80003de:	fa20 f407 	lsr.w	r4, r0, r7
 80003e2:	fa01 f306 	lsl.w	r3, r1, r6
 80003e6:	431c      	orrs	r4, r3
 80003e8:	40f9      	lsrs	r1, r7
 80003ea:	ea4f 491c 	mov.w	r9, ip, lsr #16
 80003ee:	fa00 f306 	lsl.w	r3, r0, r6
 80003f2:	fbb1 f8f9 	udiv	r8, r1, r9
 80003f6:	0c20      	lsrs	r0, r4, #16
 80003f8:	fa1f fe8c 	uxth.w	lr, ip
 80003fc:	fb09 1118 	mls	r1, r9, r8, r1
 8000400:	ea40 4101 	orr.w	r1, r0, r1, lsl #16
 8000404:	fb08 f00e 	mul.w	r0, r8, lr
 8000408:	4288      	cmp	r0, r1
 800040a:	fa02 f206 	lsl.w	r2, r2, r6
 800040e:	d90b      	bls.n	8000428 <__udivmoddi4+0x1b8>
 8000410:	eb1c 0101 	adds.w	r1, ip, r1
 8000414:	f108 3aff 	add.w	sl, r8, #4294967295
 8000418:	f080 8088 	bcs.w	800052c <__udivmoddi4+0x2bc>
 800041c:	4288      	cmp	r0, r1
 800041e:	f240 8085 	bls.w	800052c <__udivmoddi4+0x2bc>
 8000422:	f1a8 0802 	sub.w	r8, r8, #2
 8000426:	4461      	add	r1, ip
 8000428:	1a09      	subs	r1, r1, r0
 800042a:	b2a4      	uxth	r4, r4
 800042c:	fbb1 f0f9 	udiv	r0, r1, r9
 8000430:	fb09 1110 	mls	r1, r9, r0, r1
 8000434:	ea44 4101 	orr.w	r1, r4, r1, lsl #16
 8000438:	fb00 fe0e 	mul.w	lr, r0, lr
 800043c:	458e      	cmp	lr, r1
 800043e:	d908      	bls.n	8000452 <__udivmoddi4+0x1e2>
 8000440:	eb1c 0101 	adds.w	r1, ip, r1
 8000444:	f100 34ff 	add.w	r4, r0, #4294967295
 8000448:	d26c      	bcs.n	8000524 <__udivmoddi4+0x2b4>
 800044a:	458e      	cmp	lr, r1
 800044c:	d96a      	bls.n	8000524 <__udivmoddi4+0x2b4>
 800044e:	3802      	subs	r0, #2
 8000450:	4461      	add	r1, ip
 8000452:	ea40 4008 	orr.w	r0, r0, r8, lsl #16
 8000456:	fba0 9402 	umull	r9, r4, r0, r2
 800045a:	eba1 010e 	sub.w	r1, r1, lr
 800045e:	42a1      	cmp	r1, r4
 8000460:	46c8      	mov	r8, r9
 8000462:	46a6      	mov	lr, r4
 8000464:	d356      	bcc.n	8000514 <__udivmoddi4+0x2a4>
 8000466:	d053      	beq.n	8000510 <__udivmoddi4+0x2a0>
 8000468:	b15d      	cbz	r5, 8000482 <__udivmoddi4+0x212>
 800046a:	ebb3 0208 	subs.w	r2, r3, r8
 800046e:	eb61 010e 	sbc.w	r1, r1, lr
 8000472:	fa01 f707 	lsl.w	r7, r1, r7
 8000476:	fa22 f306 	lsr.w	r3, r2, r6
 800047a:	40f1      	lsrs	r1, r6
 800047c:	431f      	orrs	r7, r3
 800047e:	e9c5 7100 	strd	r7, r1, [r5]
 8000482:	2600      	movs	r6, #0
 8000484:	4631      	mov	r1, r6
 8000486:	e8bd 87f0 	ldmia.w	sp!, {r4, r5, r6, r7, r8, r9, sl, pc}
 800048a:	f1c2 0320 	rsb	r3, r2, #32
 800048e:	40d8      	lsrs	r0, r3
 8000490:	fa0c fc02 	lsl.w	ip, ip, r2
 8000494:	fa21 f303 	lsr.w	r3, r1, r3
 8000498:	4091      	lsls	r1, r2
 800049a:	4301      	orrs	r1, r0
 800049c:	ea4f 471c 	mov.w	r7, ip, lsr #16
 80004a0:	fa1f fe8c 	uxth.w	lr, ip
 80004a4:	fbb3 f0f7 	udiv	r0, r3, r7
 80004a8:	fb07 3610 	mls	r6, r7, r0, r3
 80004ac:	0c0b      	lsrs	r3, r1, #16
 80004ae:	ea43 4306 	orr.w	r3, r3, r6, lsl #16
 80004b2:	fb00 f60e 	mul.w	r6, r0, lr
 80004b6:	429e      	cmp	r6, r3
 80004b8:	fa04 f402 	lsl.w	r4, r4, r2
 80004bc:	d908      	bls.n	80004d0 <__udivmoddi4+0x260>
 80004be:	eb1c 0303 	adds.w	r3, ip, r3
 80004c2:	f100 38ff 	add.w	r8, r0, #4294967295
 80004c6:	d22f      	bcs.n	8000528 <__udivmoddi4+0x2b8>
 80004c8:	429e      	cmp	r6, r3
 80004ca:	d92d      	bls.n	8000528 <__udivmoddi4+0x2b8>
 80004cc:	3802      	subs	r0, #2
 80004ce:	4463      	add	r3, ip
 80004d0:	1b9b      	subs	r3, r3, r6
 80004d2:	b289      	uxth	r1, r1
 80004d4:	fbb3 f6f7 	udiv	r6, r3, r7
 80004d8:	fb07 3316 	mls	r3, r7, r6, r3
 80004dc:	ea41 4103 	orr.w	r1, r1, r3, lsl #16
 80004e0:	fb06 f30e 	mul.w	r3, r6, lr
 80004e4:	428b      	cmp	r3, r1
 80004e6:	d908      	bls.n	80004fa <__udivmoddi4+0x28a>
 80004e8:	eb1c 0101 	adds.w	r1, ip, r1
 80004ec:	f106 38ff 	add.w	r8, r6, #4294967295
 80004f0:	d216      	bcs.n	8000520 <__udivmoddi4+0x2b0>
 80004f2:	428b      	cmp	r3, r1
 80004f4:	d914      	bls.n	8000520 <__udivmoddi4+0x2b0>
 80004f6:	3e02      	subs	r6, #2
 80004f8:	4461      	add	r1, ip
 80004fa:	1ac9      	subs	r1, r1, r3
 80004fc:	ea46 4600 	orr.w	r6, r6, r0, lsl #16
 8000500:	e738      	b.n	8000374 <__udivmoddi4+0x104>
 8000502:	462e      	mov	r6, r5
 8000504:	4628      	mov	r0, r5
 8000506:	e705      	b.n	8000314 <__udivmoddi4+0xa4>
 8000508:	4606      	mov	r6, r0
 800050a:	e6e3      	b.n	80002d4 <__udivmoddi4+0x64>
 800050c:	4618      	mov	r0, r3
 800050e:	e6f8      	b.n	8000302 <__udivmoddi4+0x92>
 8000510:	454b      	cmp	r3, r9
 8000512:	d2a9      	bcs.n	8000468 <__udivmoddi4+0x1f8>
 8000514:	ebb9 0802 	subs.w	r8, r9, r2
 8000518:	eb64 0e0c 	sbc.w	lr, r4, ip
 800051c:	3801      	subs	r0, #1
 800051e:	e7a3      	b.n	8000468 <__udivmoddi4+0x1f8>
 8000520:	4646      	mov	r6, r8
 8000522:	e7ea      	b.n	80004fa <__udivmoddi4+0x28a>
 8000524:	4620      	mov	r0, r4
 8000526:	e794      	b.n	8000452 <__udivmoddi4+0x1e2>
 8000528:	4640      	mov	r0, r8
 800052a:	e7d1      	b.n	80004d0 <__udivmoddi4+0x260>
 800052c:	46d0      	mov	r8, sl
 800052e:	e77b      	b.n	8000428 <__udivmoddi4+0x1b8>
 8000530:	3b02      	subs	r3, #2
 8000532:	4461      	add	r1, ip
 8000534:	e732      	b.n	800039c <__udivmoddi4+0x12c>
 8000536:	4630      	mov	r0, r6
 8000538:	e709      	b.n	800034e <__udivmoddi4+0xde>
 800053a:	4464      	add	r4, ip
 800053c:	3802      	subs	r0, #2
 800053e:	e742      	b.n	80003c6 <__udivmoddi4+0x156>

08000540 <__aeabi_idiv0>:
 8000540:	4770      	bx	lr
 8000542:	bf00      	nop

08000544 <main>:
/**
  * @brief  The application entry point.
  * @retval int
  */
int main(void)
{
 8000544:	b5b0      	push	{r4, r5, r7, lr}
 8000546:	b09a      	sub	sp, #104	; 0x68
 8000548:	af00      	add	r7, sp, #0
  /* USER CODE END 1 */

  /* MCU Configuration--------------------------------------------------------*/

  /* Reset of all peripherals, Initializes the Flash interface and the Systick. */
  HAL_Init();
 800054a:	f001 fd6c 	bl	8002026 <HAL_Init>
  /* USER CODE BEGIN Init */

  /* USER CODE END Init */

  /* Configure the system clock */
  SystemClock_Config();
 800054e:	f000 f8e3 	bl	8000718 <SystemClock_Config>
  /* USER CODE BEGIN SysInit */

  /* USER CODE END SysInit */

  /* Initialize all configured peripherals */
  MX_GPIO_Init();
 8000552:	f000 fbab 	bl	8000cac <MX_GPIO_Init>
  MX_SPI1_Init();
 8000556:	f000 fa0d 	bl	8000974 <MX_SPI1_Init>
  MX_I2C1_Init();
 800055a:	f000 f94b 	bl	80007f4 <MX_I2C1_Init>
  MX_I2C2_Init();
 800055e:	f000 f989 	bl	8000874 <MX_I2C2_Init>
  MX_TIM2_Init();
 8000562:	f000 fa49 	bl	80009f8 <MX_TIM2_Init>
  MX_TIM3_Init();
 8000566:	f000 fa9b 	bl	8000aa0 <MX_TIM3_Init>
  MX_TIM5_Init();
 800056a:	f000 faef 	bl	8000b4c <MX_TIM5_Init>
  MX_TIM8_Init();
 800056e:	f000 fb43 	bl	8000bf8 <MX_TIM8_Init>
  MX_I2C3_Init();
 8000572:	f000 f9bf 	bl	80008f4 <MX_I2C3_Init>
  /* USER CODE BEGIN 2 */
	/* Define wheels angles in motor.h */
	kinematic[0][0] = sin(WHEEL_ANGlE_1); kinematic[0][1] = -cos(WHEEL_ANGlE_1); kinematic[0][2] = -ROBOT_RADIO;
 8000576:	4b55      	ldr	r3, [pc, #340]	; (80006cc <main+0x188>)
 8000578:	4a55      	ldr	r2, [pc, #340]	; (80006d0 <main+0x18c>)
 800057a:	601a      	str	r2, [r3, #0]
 800057c:	4b53      	ldr	r3, [pc, #332]	; (80006cc <main+0x188>)
 800057e:	f04f 423f 	mov.w	r2, #3204448256	; 0xbf000000
 8000582:	605a      	str	r2, [r3, #4]
 8000584:	4b51      	ldr	r3, [pc, #324]	; (80006cc <main+0x188>)
 8000586:	4a53      	ldr	r2, [pc, #332]	; (80006d4 <main+0x190>)
 8000588:	609a      	str	r2, [r3, #8]
	kinematic[1][0] = sin(WHEEL_ANGlE_2); kinematic[1][1] = -cos(WHEEL_ANGlE_2); kinematic[1][2] = -ROBOT_RADIO;
 800058a:	4b50      	ldr	r3, [pc, #320]	; (80006cc <main+0x188>)
 800058c:	4a52      	ldr	r2, [pc, #328]	; (80006d8 <main+0x194>)
 800058e:	60da      	str	r2, [r3, #12]
 8000590:	4b4e      	ldr	r3, [pc, #312]	; (80006cc <main+0x188>)
 8000592:	4a52      	ldr	r2, [pc, #328]	; (80006dc <main+0x198>)
 8000594:	611a      	str	r2, [r3, #16]
 8000596:	4b4d      	ldr	r3, [pc, #308]	; (80006cc <main+0x188>)
 8000598:	4a4e      	ldr	r2, [pc, #312]	; (80006d4 <main+0x190>)
 800059a:	615a      	str	r2, [r3, #20]
	kinematic[2][0] = sin(WHEEL_ANGlE_3); kinematic[2][1] = -cos(WHEEL_ANGlE_3); kinematic[2][2] = -ROBOT_RADIO;
 800059c:	4b4b      	ldr	r3, [pc, #300]	; (80006cc <main+0x188>)
 800059e:	4a50      	ldr	r2, [pc, #320]	; (80006e0 <main+0x19c>)
 80005a0:	619a      	str	r2, [r3, #24]
 80005a2:	4b4a      	ldr	r3, [pc, #296]	; (80006cc <main+0x188>)
 80005a4:	4a4d      	ldr	r2, [pc, #308]	; (80006dc <main+0x198>)
 80005a6:	61da      	str	r2, [r3, #28]
 80005a8:	4b48      	ldr	r3, [pc, #288]	; (80006cc <main+0x188>)
 80005aa:	4a4a      	ldr	r2, [pc, #296]	; (80006d4 <main+0x190>)
 80005ac:	621a      	str	r2, [r3, #32]
	kinematic[3][0] = sin(WHEEL_ANGlE_4); kinematic[3][1] = -cos(WHEEL_ANGlE_4); kinematic[3][2] = -ROBOT_RADIO;
 80005ae:	4b47      	ldr	r3, [pc, #284]	; (80006cc <main+0x188>)
 80005b0:	4a4c      	ldr	r2, [pc, #304]	; (80006e4 <main+0x1a0>)
 80005b2:	625a      	str	r2, [r3, #36]	; 0x24
 80005b4:	4b45      	ldr	r3, [pc, #276]	; (80006cc <main+0x188>)
 80005b6:	f04f 423f 	mov.w	r2, #3204448256	; 0xbf000000
 80005ba:	629a      	str	r2, [r3, #40]	; 0x28
 80005bc:	4b43      	ldr	r3, [pc, #268]	; (80006cc <main+0x188>)
 80005be:	4a45      	ldr	r2, [pc, #276]	; (80006d4 <main+0x190>)
 80005c0:	62da      	str	r2, [r3, #44]	; 0x2c

	for (uint8_t i = 0; i < 10; i++)
 80005c2:	2300      	movs	r3, #0
 80005c4:	f887 3067 	strb.w	r3, [r7, #103]	; 0x67
 80005c8:	e016      	b.n	80005f8 <main+0xb4>
	{
		Board_LedToggle(BOARD_LED_GPIO, BOARD_LED_PIN_1);
 80005ca:	f44f 5180 	mov.w	r1, #4096	; 0x1000
 80005ce:	4846      	ldr	r0, [pc, #280]	; (80006e8 <main+0x1a4>)
 80005d0:	f007 fb18 	bl	8007c04 <Board_LedToggle>
		Board_LedToggle(BOARD_LED_GPIO, BOARD_LED_PIN_2);
 80005d4:	f44f 5100 	mov.w	r1, #8192	; 0x2000
 80005d8:	4843      	ldr	r0, [pc, #268]	; (80006e8 <main+0x1a4>)
 80005da:	f007 fb13 	bl	8007c04 <Board_LedToggle>
		Board_LedToggle(BOARD_LED_GPIO, BOARD_LED_PIN_3);
 80005de:	f44f 4180 	mov.w	r1, #16384	; 0x4000
 80005e2:	4841      	ldr	r0, [pc, #260]	; (80006e8 <main+0x1a4>)
 80005e4:	f007 fb0e 	bl	8007c04 <Board_LedToggle>
		HAL_Delay(100);
 80005e8:	2064      	movs	r0, #100	; 0x64
 80005ea:	f001 fd49 	bl	8002080 <HAL_Delay>
	for (uint8_t i = 0; i < 10; i++)
 80005ee:	f897 3067 	ldrb.w	r3, [r7, #103]	; 0x67
 80005f2:	3301      	adds	r3, #1
 80005f4:	f887 3067 	strb.w	r3, [r7, #103]	; 0x67
 80005f8:	f897 3067 	ldrb.w	r3, [r7, #103]	; 0x67
 80005fc:	2b09      	cmp	r3, #9
 80005fe:	d9e4      	bls.n	80005ca <main+0x86>
	/* start timers, add new ones, ... */
  /* USER CODE END RTOS_TIMERS */

  /* Create the queue(s) */
  /* definition and creation of kickQueue */
  osMessageQDef(kickQueue, 16, uint16_t);
 8000600:	4a3a      	ldr	r2, [pc, #232]	; (80006ec <main+0x1a8>)
 8000602:	f107 035c 	add.w	r3, r7, #92	; 0x5c
 8000606:	e892 0003 	ldmia.w	r2, {r0, r1}
 800060a:	e883 0003 	stmia.w	r3, {r0, r1}
  kickQueueHandle = osMessageCreate(osMessageQ(kickQueue), NULL);
 800060e:	f107 035c 	add.w	r3, r7, #92	; 0x5c
 8000612:	2100      	movs	r1, #0
 8000614:	4618      	mov	r0, r3
 8000616:	f004 ffef 	bl	80055f8 <osMessageCreate>
 800061a:	4603      	mov	r3, r0
 800061c:	4a34      	ldr	r2, [pc, #208]	; (80006f0 <main+0x1ac>)
 800061e:	6013      	str	r3, [r2, #0]

  /* USER CODE BEGIN RTOS_QUEUES */
	osMessageQDef(nrf24Check, 16, uint16_t);
 8000620:	4a32      	ldr	r2, [pc, #200]	; (80006ec <main+0x1a8>)
 8000622:	f107 0354 	add.w	r3, r7, #84	; 0x54
 8000626:	e892 0003 	ldmia.w	r2, {r0, r1}
 800062a:	e883 0003 	stmia.w	r3, {r0, r1}
  nrf24CheckHandle = osMessageCreate(osMessageQ(nrf24Check), NULL);
 800062e:	f107 0354 	add.w	r3, r7, #84	; 0x54
 8000632:	2100      	movs	r1, #0
 8000634:	4618      	mov	r0, r3
 8000636:	f004 ffdf 	bl	80055f8 <osMessageCreate>
 800063a:	4603      	mov	r3, r0
 800063c:	4a2d      	ldr	r2, [pc, #180]	; (80006f4 <main+0x1b0>)
 800063e:	6013      	str	r3, [r2, #0]
  /* USER CODE END RTOS_QUEUES */

  /* Create the thread(s) */
  /* definition and creation of driveTask */
  osThreadDef(driveTask, DriveFunction, osPriorityAboveNormal, 0, 128);
 8000640:	4b2d      	ldr	r3, [pc, #180]	; (80006f8 <main+0x1b4>)
 8000642:	f107 0440 	add.w	r4, r7, #64	; 0x40
 8000646:	461d      	mov	r5, r3
 8000648:	cd0f      	ldmia	r5!, {r0, r1, r2, r3}
 800064a:	c40f      	stmia	r4!, {r0, r1, r2, r3}
 800064c:	682b      	ldr	r3, [r5, #0]
 800064e:	6023      	str	r3, [r4, #0]
  driveTaskHandle = osThreadCreate(osThread(driveTask), NULL);
 8000650:	f107 0340 	add.w	r3, r7, #64	; 0x40
 8000654:	2100      	movs	r1, #0
 8000656:	4618      	mov	r0, r3
 8000658:	f004 ff93 	bl	8005582 <osThreadCreate>
 800065c:	4603      	mov	r3, r0
 800065e:	4a27      	ldr	r2, [pc, #156]	; (80006fc <main+0x1b8>)
 8000660:	6013      	str	r3, [r2, #0]

  /* definition and creation of radioTask */
  osThreadDef(radioTask, RadioFunction, osPriorityNormal, 0, 128);
 8000662:	4b27      	ldr	r3, [pc, #156]	; (8000700 <main+0x1bc>)
 8000664:	f107 042c 	add.w	r4, r7, #44	; 0x2c
 8000668:	461d      	mov	r5, r3
 800066a:	cd0f      	ldmia	r5!, {r0, r1, r2, r3}
 800066c:	c40f      	stmia	r4!, {r0, r1, r2, r3}
 800066e:	682b      	ldr	r3, [r5, #0]
 8000670:	6023      	str	r3, [r4, #0]
  radioTaskHandle = osThreadCreate(osThread(radioTask), NULL);
 8000672:	f107 032c 	add.w	r3, r7, #44	; 0x2c
 8000676:	2100      	movs	r1, #0
 8000678:	4618      	mov	r0, r3
 800067a:	f004 ff82 	bl	8005582 <osThreadCreate>
 800067e:	4603      	mov	r3, r0
 8000680:	4a20      	ldr	r2, [pc, #128]	; (8000704 <main+0x1c0>)
 8000682:	6013      	str	r3, [r2, #0]

  /* definition and creation of kickTask */
  osThreadDef(kickTask, KickFunction, osPriorityLow, 0, 128);
 8000684:	4b20      	ldr	r3, [pc, #128]	; (8000708 <main+0x1c4>)
 8000686:	f107 0418 	add.w	r4, r7, #24
 800068a:	461d      	mov	r5, r3
 800068c:	cd0f      	ldmia	r5!, {r0, r1, r2, r3}
 800068e:	c40f      	stmia	r4!, {r0, r1, r2, r3}
 8000690:	682b      	ldr	r3, [r5, #0]
 8000692:	6023      	str	r3, [r4, #0]
  kickTaskHandle = osThreadCreate(osThread(kickTask), NULL);
 8000694:	f107 0318 	add.w	r3, r7, #24
 8000698:	2100      	movs	r1, #0
 800069a:	4618      	mov	r0, r3
 800069c:	f004 ff71 	bl	8005582 <osThreadCreate>
 80006a0:	4603      	mov	r3, r0
 80006a2:	4a1a      	ldr	r2, [pc, #104]	; (800070c <main+0x1c8>)
 80006a4:	6013      	str	r3, [r2, #0]

  /* USER CODE BEGIN RTOS_THREADS */
	osThreadDef(ballDetectorTask, BallDetectorFunction, osPriorityLow, 0, 128);
 80006a6:	4b1a      	ldr	r3, [pc, #104]	; (8000710 <main+0x1cc>)
 80006a8:	1d3c      	adds	r4, r7, #4
 80006aa:	461d      	mov	r5, r3
 80006ac:	cd0f      	ldmia	r5!, {r0, r1, r2, r3}
 80006ae:	c40f      	stmia	r4!, {r0, r1, r2, r3}
 80006b0:	682b      	ldr	r3, [r5, #0]
 80006b2:	6023      	str	r3, [r4, #0]
  ballDetectorTaskHandle = osThreadCreate(osThread(ballDetectorTask), NULL);
 80006b4:	1d3b      	adds	r3, r7, #4
 80006b6:	2100      	movs	r1, #0
 80006b8:	4618      	mov	r0, r3
 80006ba:	f004 ff62 	bl	8005582 <osThreadCreate>
 80006be:	4603      	mov	r3, r0
 80006c0:	4a14      	ldr	r2, [pc, #80]	; (8000714 <main+0x1d0>)
 80006c2:	6013      	str	r3, [r2, #0]
  /* USER CODE END RTOS_THREADS */

  /* Start scheduler */
  osKernelStart();
 80006c4:	f004 ff46 	bl	8005554 <osKernelStart>

  /* We should never get here as control is now taken by the scheduler */
  /* Infinite loop */
  /* USER CODE BEGIN WHILE */
	while (1)
 80006c8:	e7fe      	b.n	80006c8 <main+0x184>
 80006ca:	bf00      	nop
 80006cc:	20000350 	.word	0x20000350
 80006d0:	3f5db3d7 	.word	0x3f5db3d7
 80006d4:	bda83e42 	.word	0xbda83e42
 80006d8:	3f441b7d 	.word	0x3f441b7d
 80006dc:	3f248dbb 	.word	0x3f248dbb
 80006e0:	bf441b7d 	.word	0xbf441b7d
 80006e4:	bf5db3d7 	.word	0xbf5db3d7
 80006e8:	40022000 	.word	0x40022000
 80006ec:	080088e0 	.word	0x080088e0
 80006f0:	2000032c 	.word	0x2000032c
 80006f4:	20000334 	.word	0x20000334
 80006f8:	080088e8 	.word	0x080088e8
 80006fc:	20000320 	.word	0x20000320
 8000700:	080088fc 	.word	0x080088fc
 8000704:	20000324 	.word	0x20000324
 8000708:	08008910 	.word	0x08008910
 800070c:	20000328 	.word	0x20000328
 8000710:	08008924 	.word	0x08008924
 8000714:	20000330 	.word	0x20000330

08000718 <SystemClock_Config>:
/**
  * @brief System Clock Configuration
  * @retval None
  */
void SystemClock_Config(void)
{
 8000718:	b580      	push	{r7, lr}
 800071a:	b094      	sub	sp, #80	; 0x50
 800071c:	af00      	add	r7, sp, #0
  RCC_OscInitTypeDef RCC_OscInitStruct = {0};
 800071e:	f107 031c 	add.w	r3, r7, #28
 8000722:	2234      	movs	r2, #52	; 0x34
 8000724:	2100      	movs	r1, #0
 8000726:	4618      	mov	r0, r3
 8000728:	f008 f884 	bl	8008834 <memset>
  RCC_ClkInitTypeDef RCC_ClkInitStruct = {0};
 800072c:	f107 0308 	add.w	r3, r7, #8
 8000730:	2200      	movs	r2, #0
 8000732:	601a      	str	r2, [r3, #0]
 8000734:	605a      	str	r2, [r3, #4]
 8000736:	609a      	str	r2, [r3, #8]
 8000738:	60da      	str	r2, [r3, #12]
 800073a:	611a      	str	r2, [r3, #16]

  /** Configure the main internal regulator output voltage
  */
  __HAL_RCC_PWR_CLK_ENABLE();
 800073c:	4b2b      	ldr	r3, [pc, #172]	; (80007ec <SystemClock_Config+0xd4>)
 800073e:	6c1b      	ldr	r3, [r3, #64]	; 0x40
 8000740:	4a2a      	ldr	r2, [pc, #168]	; (80007ec <SystemClock_Config+0xd4>)
 8000742:	f043 5380 	orr.w	r3, r3, #268435456	; 0x10000000
 8000746:	6413      	str	r3, [r2, #64]	; 0x40
 8000748:	4b28      	ldr	r3, [pc, #160]	; (80007ec <SystemClock_Config+0xd4>)
 800074a:	6c1b      	ldr	r3, [r3, #64]	; 0x40
 800074c:	f003 5380 	and.w	r3, r3, #268435456	; 0x10000000
 8000750:	607b      	str	r3, [r7, #4]
 8000752:	687b      	ldr	r3, [r7, #4]
  __HAL_PWR_VOLTAGESCALING_CONFIG(PWR_REGULATOR_VOLTAGE_SCALE1);
 8000754:	4b26      	ldr	r3, [pc, #152]	; (80007f0 <SystemClock_Config+0xd8>)
 8000756:	681b      	ldr	r3, [r3, #0]
 8000758:	4a25      	ldr	r2, [pc, #148]	; (80007f0 <SystemClock_Config+0xd8>)
 800075a:	f443 4340 	orr.w	r3, r3, #49152	; 0xc000
 800075e:	6013      	str	r3, [r2, #0]
 8000760:	4b23      	ldr	r3, [pc, #140]	; (80007f0 <SystemClock_Config+0xd8>)
 8000762:	681b      	ldr	r3, [r3, #0]
 8000764:	f403 4340 	and.w	r3, r3, #49152	; 0xc000
 8000768:	603b      	str	r3, [r7, #0]
 800076a:	683b      	ldr	r3, [r7, #0]

  /** Initializes the RCC Oscillators according to the specified parameters
  * in the RCC_OscInitTypeDef structure.
  */
  RCC_OscInitStruct.OscillatorType = RCC_OSCILLATORTYPE_HSE;
 800076c:	2301      	movs	r3, #1
 800076e:	61fb      	str	r3, [r7, #28]
  RCC_OscInitStruct.HSEState = RCC_HSE_ON;
 8000770:	f44f 3380 	mov.w	r3, #65536	; 0x10000
 8000774:	623b      	str	r3, [r7, #32]
  RCC_OscInitStruct.PLL.PLLState = RCC_PLL_ON;
 8000776:	2302      	movs	r3, #2
 8000778:	637b      	str	r3, [r7, #52]	; 0x34
  RCC_OscInitStruct.PLL.PLLSource = RCC_PLLSOURCE_HSE;
 800077a:	f44f 0380 	mov.w	r3, #4194304	; 0x400000
 800077e:	63bb      	str	r3, [r7, #56]	; 0x38
  RCC_OscInitStruct.PLL.PLLM = 4;
 8000780:	2304      	movs	r3, #4
 8000782:	63fb      	str	r3, [r7, #60]	; 0x3c
  RCC_OscInitStruct.PLL.PLLN = 216;
 8000784:	23d8      	movs	r3, #216	; 0xd8
 8000786:	643b      	str	r3, [r7, #64]	; 0x40
  RCC_OscInitStruct.PLL.PLLP = RCC_PLLP_DIV2;
 8000788:	2302      	movs	r3, #2
 800078a:	647b      	str	r3, [r7, #68]	; 0x44
  RCC_OscInitStruct.PLL.PLLQ = 2;
 800078c:	2302      	movs	r3, #2
 800078e:	64bb      	str	r3, [r7, #72]	; 0x48
  RCC_OscInitStruct.PLL.PLLR = 2;
 8000790:	2302      	movs	r3, #2
 8000792:	64fb      	str	r3, [r7, #76]	; 0x4c
  if (HAL_RCC_OscConfig(&RCC_OscInitStruct) != HAL_OK)
 8000794:	f107 031c 	add.w	r3, r7, #28
 8000798:	4618      	mov	r0, r3
 800079a:	f002 fd3d 	bl	8003218 <HAL_RCC_OscConfig>
 800079e:	4603      	mov	r3, r0
 80007a0:	2b00      	cmp	r3, #0
 80007a2:	d001      	beq.n	80007a8 <SystemClock_Config+0x90>
  {
    Error_Handler();
 80007a4:	f001 f910 	bl	80019c8 <Error_Handler>
  }

  /** Activate the Over-Drive mode
  */
  if (HAL_PWREx_EnableOverDrive() != HAL_OK)
 80007a8:	f002 fce6 	bl	8003178 <HAL_PWREx_EnableOverDrive>
 80007ac:	4603      	mov	r3, r0
 80007ae:	2b00      	cmp	r3, #0
 80007b0:	d001      	beq.n	80007b6 <SystemClock_Config+0x9e>
  {
    Error_Handler();
 80007b2:	f001 f909 	bl	80019c8 <Error_Handler>
  }

  /** Initializes the CPU, AHB and APB buses clocks
  */
  RCC_ClkInitStruct.ClockType = RCC_CLOCKTYPE_HCLK|RCC_CLOCKTYPE_SYSCLK
 80007b6:	230f      	movs	r3, #15
 80007b8:	60bb      	str	r3, [r7, #8]
                              |RCC_CLOCKTYPE_PCLK1|RCC_CLOCKTYPE_PCLK2;
  RCC_ClkInitStruct.SYSCLKSource = RCC_SYSCLKSOURCE_PLLCLK;
 80007ba:	2302      	movs	r3, #2
 80007bc:	60fb      	str	r3, [r7, #12]
  RCC_ClkInitStruct.AHBCLKDivider = RCC_SYSCLK_DIV1;
 80007be:	2300      	movs	r3, #0
 80007c0:	613b      	str	r3, [r7, #16]
  RCC_ClkInitStruct.APB1CLKDivider = RCC_HCLK_DIV4;
 80007c2:	f44f 53a0 	mov.w	r3, #5120	; 0x1400
 80007c6:	617b      	str	r3, [r7, #20]
  RCC_ClkInitStruct.APB2CLKDivider = RCC_HCLK_DIV2;
 80007c8:	f44f 5380 	mov.w	r3, #4096	; 0x1000
 80007cc:	61bb      	str	r3, [r7, #24]

  if (HAL_RCC_ClockConfig(&RCC_ClkInitStruct, FLASH_LATENCY_7) != HAL_OK)
 80007ce:	f107 0308 	add.w	r3, r7, #8
 80007d2:	2107      	movs	r1, #7
 80007d4:	4618      	mov	r0, r3
 80007d6:	f002 ffcd 	bl	8003774 <HAL_RCC_ClockConfig>
 80007da:	4603      	mov	r3, r0
 80007dc:	2b00      	cmp	r3, #0
 80007de:	d001      	beq.n	80007e4 <SystemClock_Config+0xcc>
  {
    Error_Handler();
 80007e0:	f001 f8f2 	bl	80019c8 <Error_Handler>
  }
}
 80007e4:	bf00      	nop
 80007e6:	3750      	adds	r7, #80	; 0x50
 80007e8:	46bd      	mov	sp, r7
 80007ea:	bd80      	pop	{r7, pc}
 80007ec:	40023800 	.word	0x40023800
 80007f0:	40007000 	.word	0x40007000

080007f4 <MX_I2C1_Init>:
  * @brief I2C1 Initialization Function
  * @param None
  * @retval None
  */
static void MX_I2C1_Init(void)
{
 80007f4:	b580      	push	{r7, lr}
 80007f6:	af00      	add	r7, sp, #0
  /* USER CODE END I2C1_Init 0 */

  /* USER CODE BEGIN I2C1_Init 1 */

  /* USER CODE END I2C1_Init 1 */
  hi2c1.Instance = I2C1;
 80007f8:	4b1b      	ldr	r3, [pc, #108]	; (8000868 <MX_I2C1_Init+0x74>)
 80007fa:	4a1c      	ldr	r2, [pc, #112]	; (800086c <MX_I2C1_Init+0x78>)
 80007fc:	601a      	str	r2, [r3, #0]
  hi2c1.Init.Timing = 0x6000030D;
 80007fe:	4b1a      	ldr	r3, [pc, #104]	; (8000868 <MX_I2C1_Init+0x74>)
 8000800:	4a1b      	ldr	r2, [pc, #108]	; (8000870 <MX_I2C1_Init+0x7c>)
 8000802:	605a      	str	r2, [r3, #4]
  hi2c1.Init.OwnAddress1 = 0;
 8000804:	4b18      	ldr	r3, [pc, #96]	; (8000868 <MX_I2C1_Init+0x74>)
 8000806:	2200      	movs	r2, #0
 8000808:	609a      	str	r2, [r3, #8]
  hi2c1.Init.AddressingMode = I2C_ADDRESSINGMODE_7BIT;
 800080a:	4b17      	ldr	r3, [pc, #92]	; (8000868 <MX_I2C1_Init+0x74>)
 800080c:	2201      	movs	r2, #1
 800080e:	60da      	str	r2, [r3, #12]
  hi2c1.Init.DualAddressMode = I2C_DUALADDRESS_DISABLE;
 8000810:	4b15      	ldr	r3, [pc, #84]	; (8000868 <MX_I2C1_Init+0x74>)
 8000812:	2200      	movs	r2, #0
 8000814:	611a      	str	r2, [r3, #16]
  hi2c1.Init.OwnAddress2 = 0;
 8000816:	4b14      	ldr	r3, [pc, #80]	; (8000868 <MX_I2C1_Init+0x74>)
 8000818:	2200      	movs	r2, #0
 800081a:	615a      	str	r2, [r3, #20]
  hi2c1.Init.OwnAddress2Masks = I2C_OA2_NOMASK;
 800081c:	4b12      	ldr	r3, [pc, #72]	; (8000868 <MX_I2C1_Init+0x74>)
 800081e:	2200      	movs	r2, #0
 8000820:	619a      	str	r2, [r3, #24]
  hi2c1.Init.GeneralCallMode = I2C_GENERALCALL_DISABLE;
 8000822:	4b11      	ldr	r3, [pc, #68]	; (8000868 <MX_I2C1_Init+0x74>)
 8000824:	2200      	movs	r2, #0
 8000826:	61da      	str	r2, [r3, #28]
  hi2c1.Init.NoStretchMode = I2C_NOSTRETCH_DISABLE;
 8000828:	4b0f      	ldr	r3, [pc, #60]	; (8000868 <MX_I2C1_Init+0x74>)
 800082a:	2200      	movs	r2, #0
 800082c:	621a      	str	r2, [r3, #32]
  if (HAL_I2C_Init(&hi2c1) != HAL_OK)
 800082e:	480e      	ldr	r0, [pc, #56]	; (8000868 <MX_I2C1_Init+0x74>)
 8000830:	f001 ff24 	bl	800267c <HAL_I2C_Init>
 8000834:	4603      	mov	r3, r0
 8000836:	2b00      	cmp	r3, #0
 8000838:	d001      	beq.n	800083e <MX_I2C1_Init+0x4a>
  {
    Error_Handler();
 800083a:	f001 f8c5 	bl	80019c8 <Error_Handler>
  }

  /** Configure Analogue filter
  */
  if (HAL_I2CEx_ConfigAnalogFilter(&hi2c1, I2C_ANALOGFILTER_ENABLE) != HAL_OK)
 800083e:	2100      	movs	r1, #0
 8000840:	4809      	ldr	r0, [pc, #36]	; (8000868 <MX_I2C1_Init+0x74>)
 8000842:	f002 fc01 	bl	8003048 <HAL_I2CEx_ConfigAnalogFilter>
 8000846:	4603      	mov	r3, r0
 8000848:	2b00      	cmp	r3, #0
 800084a:	d001      	beq.n	8000850 <MX_I2C1_Init+0x5c>
  {
    Error_Handler();
 800084c:	f001 f8bc 	bl	80019c8 <Error_Handler>
  }

  /** Configure Digital filter
  */
  if (HAL_I2CEx_ConfigDigitalFilter(&hi2c1, 0) != HAL_OK)
 8000850:	2100      	movs	r1, #0
 8000852:	4805      	ldr	r0, [pc, #20]	; (8000868 <MX_I2C1_Init+0x74>)
 8000854:	f002 fc43 	bl	80030de <HAL_I2CEx_ConfigDigitalFilter>
 8000858:	4603      	mov	r3, r0
 800085a:	2b00      	cmp	r3, #0
 800085c:	d001      	beq.n	8000862 <MX_I2C1_Init+0x6e>
  {
    Error_Handler();
 800085e:	f001 f8b3 	bl	80019c8 <Error_Handler>
  }
  /* USER CODE BEGIN I2C1_Init 2 */

  /* USER CODE END I2C1_Init 2 */

}
 8000862:	bf00      	nop
 8000864:	bd80      	pop	{r7, pc}
 8000866:	bf00      	nop
 8000868:	20000090 	.word	0x20000090
 800086c:	40005400 	.word	0x40005400
 8000870:	6000030d 	.word	0x6000030d

08000874 <MX_I2C2_Init>:
  * @brief I2C2 Initialization Function
  * @param None
  * @retval None
  */
static void MX_I2C2_Init(void)
{
 8000874:	b580      	push	{r7, lr}
 8000876:	af00      	add	r7, sp, #0
  /* USER CODE END I2C2_Init 0 */

  /* USER CODE BEGIN I2C2_Init 1 */

  /* USER CODE END I2C2_Init 1 */
  hi2c2.Instance = I2C2;
 8000878:	4b1b      	ldr	r3, [pc, #108]	; (80008e8 <MX_I2C2_Init+0x74>)
 800087a:	4a1c      	ldr	r2, [pc, #112]	; (80008ec <MX_I2C2_Init+0x78>)
 800087c:	601a      	str	r2, [r3, #0]
  hi2c2.Init.Timing = 0x6000030D;
 800087e:	4b1a      	ldr	r3, [pc, #104]	; (80008e8 <MX_I2C2_Init+0x74>)
 8000880:	4a1b      	ldr	r2, [pc, #108]	; (80008f0 <MX_I2C2_Init+0x7c>)
 8000882:	605a      	str	r2, [r3, #4]
  hi2c2.Init.OwnAddress1 = 0;
 8000884:	4b18      	ldr	r3, [pc, #96]	; (80008e8 <MX_I2C2_Init+0x74>)
 8000886:	2200      	movs	r2, #0
 8000888:	609a      	str	r2, [r3, #8]
  hi2c2.Init.AddressingMode = I2C_ADDRESSINGMODE_7BIT;
 800088a:	4b17      	ldr	r3, [pc, #92]	; (80008e8 <MX_I2C2_Init+0x74>)
 800088c:	2201      	movs	r2, #1
 800088e:	60da      	str	r2, [r3, #12]
  hi2c2.Init.DualAddressMode = I2C_DUALADDRESS_DISABLE;
 8000890:	4b15      	ldr	r3, [pc, #84]	; (80008e8 <MX_I2C2_Init+0x74>)
 8000892:	2200      	movs	r2, #0
 8000894:	611a      	str	r2, [r3, #16]
  hi2c2.Init.OwnAddress2 = 0;
 8000896:	4b14      	ldr	r3, [pc, #80]	; (80008e8 <MX_I2C2_Init+0x74>)
 8000898:	2200      	movs	r2, #0
 800089a:	615a      	str	r2, [r3, #20]
  hi2c2.Init.OwnAddress2Masks = I2C_OA2_NOMASK;
 800089c:	4b12      	ldr	r3, [pc, #72]	; (80008e8 <MX_I2C2_Init+0x74>)
 800089e:	2200      	movs	r2, #0
 80008a0:	619a      	str	r2, [r3, #24]
  hi2c2.Init.GeneralCallMode = I2C_GENERALCALL_DISABLE;
 80008a2:	4b11      	ldr	r3, [pc, #68]	; (80008e8 <MX_I2C2_Init+0x74>)
 80008a4:	2200      	movs	r2, #0
 80008a6:	61da      	str	r2, [r3, #28]
  hi2c2.Init.NoStretchMode = I2C_NOSTRETCH_DISABLE;
 80008a8:	4b0f      	ldr	r3, [pc, #60]	; (80008e8 <MX_I2C2_Init+0x74>)
 80008aa:	2200      	movs	r2, #0
 80008ac:	621a      	str	r2, [r3, #32]
  if (HAL_I2C_Init(&hi2c2) != HAL_OK)
 80008ae:	480e      	ldr	r0, [pc, #56]	; (80008e8 <MX_I2C2_Init+0x74>)
 80008b0:	f001 fee4 	bl	800267c <HAL_I2C_Init>
 80008b4:	4603      	mov	r3, r0
 80008b6:	2b00      	cmp	r3, #0
 80008b8:	d001      	beq.n	80008be <MX_I2C2_Init+0x4a>
  {
    Error_Handler();
 80008ba:	f001 f885 	bl	80019c8 <Error_Handler>
  }

  /** Configure Analogue filter
  */
  if (HAL_I2CEx_ConfigAnalogFilter(&hi2c2, I2C_ANALOGFILTER_ENABLE) != HAL_OK)
 80008be:	2100      	movs	r1, #0
 80008c0:	4809      	ldr	r0, [pc, #36]	; (80008e8 <MX_I2C2_Init+0x74>)
 80008c2:	f002 fbc1 	bl	8003048 <HAL_I2CEx_ConfigAnalogFilter>
 80008c6:	4603      	mov	r3, r0
 80008c8:	2b00      	cmp	r3, #0
 80008ca:	d001      	beq.n	80008d0 <MX_I2C2_Init+0x5c>
  {
    Error_Handler();
 80008cc:	f001 f87c 	bl	80019c8 <Error_Handler>
  }

  /** Configure Digital filter
  */
  if (HAL_I2CEx_ConfigDigitalFilter(&hi2c2, 0) != HAL_OK)
 80008d0:	2100      	movs	r1, #0
 80008d2:	4805      	ldr	r0, [pc, #20]	; (80008e8 <MX_I2C2_Init+0x74>)
 80008d4:	f002 fc03 	bl	80030de <HAL_I2CEx_ConfigDigitalFilter>
 80008d8:	4603      	mov	r3, r0
 80008da:	2b00      	cmp	r3, #0
 80008dc:	d001      	beq.n	80008e2 <MX_I2C2_Init+0x6e>
  {
    Error_Handler();
 80008de:	f001 f873 	bl	80019c8 <Error_Handler>
  }
  /* USER CODE BEGIN I2C2_Init 2 */

  /* USER CODE END I2C2_Init 2 */

}
 80008e2:	bf00      	nop
 80008e4:	bd80      	pop	{r7, pc}
 80008e6:	bf00      	nop
 80008e8:	200000e4 	.word	0x200000e4
 80008ec:	40005800 	.word	0x40005800
 80008f0:	6000030d 	.word	0x6000030d

080008f4 <MX_I2C3_Init>:
  * @brief I2C3 Initialization Function
  * @param None
  * @retval None
  */
static void MX_I2C3_Init(void)
{
 80008f4:	b580      	push	{r7, lr}
 80008f6:	af00      	add	r7, sp, #0
  /* USER CODE END I2C3_Init 0 */

  /* USER CODE BEGIN I2C3_Init 1 */

  /* USER CODE END I2C3_Init 1 */
  hi2c3.Instance = I2C3;
 80008f8:	4b1b      	ldr	r3, [pc, #108]	; (8000968 <MX_I2C3_Init+0x74>)
 80008fa:	4a1c      	ldr	r2, [pc, #112]	; (800096c <MX_I2C3_Init+0x78>)
 80008fc:	601a      	str	r2, [r3, #0]
  hi2c3.Init.Timing = 0x6000030D;
 80008fe:	4b1a      	ldr	r3, [pc, #104]	; (8000968 <MX_I2C3_Init+0x74>)
 8000900:	4a1b      	ldr	r2, [pc, #108]	; (8000970 <MX_I2C3_Init+0x7c>)
 8000902:	605a      	str	r2, [r3, #4]
  hi2c3.Init.OwnAddress1 = 0;
 8000904:	4b18      	ldr	r3, [pc, #96]	; (8000968 <MX_I2C3_Init+0x74>)
 8000906:	2200      	movs	r2, #0
 8000908:	609a      	str	r2, [r3, #8]
  hi2c3.Init.AddressingMode = I2C_ADDRESSINGMODE_7BIT;
 800090a:	4b17      	ldr	r3, [pc, #92]	; (8000968 <MX_I2C3_Init+0x74>)
 800090c:	2201      	movs	r2, #1
 800090e:	60da      	str	r2, [r3, #12]
  hi2c3.Init.DualAddressMode = I2C_DUALADDRESS_DISABLE;
 8000910:	4b15      	ldr	r3, [pc, #84]	; (8000968 <MX_I2C3_Init+0x74>)
 8000912:	2200      	movs	r2, #0
 8000914:	611a      	str	r2, [r3, #16]
  hi2c3.Init.OwnAddress2 = 0;
 8000916:	4b14      	ldr	r3, [pc, #80]	; (8000968 <MX_I2C3_Init+0x74>)
 8000918:	2200      	movs	r2, #0
 800091a:	615a      	str	r2, [r3, #20]
  hi2c3.Init.OwnAddress2Masks = I2C_OA2_NOMASK;
 800091c:	4b12      	ldr	r3, [pc, #72]	; (8000968 <MX_I2C3_Init+0x74>)
 800091e:	2200      	movs	r2, #0
 8000920:	619a      	str	r2, [r3, #24]
  hi2c3.Init.GeneralCallMode = I2C_GENERALCALL_DISABLE;
 8000922:	4b11      	ldr	r3, [pc, #68]	; (8000968 <MX_I2C3_Init+0x74>)
 8000924:	2200      	movs	r2, #0
 8000926:	61da      	str	r2, [r3, #28]
  hi2c3.Init.NoStretchMode = I2C_NOSTRETCH_DISABLE;
 8000928:	4b0f      	ldr	r3, [pc, #60]	; (8000968 <MX_I2C3_Init+0x74>)
 800092a:	2200      	movs	r2, #0
 800092c:	621a      	str	r2, [r3, #32]
  if (HAL_I2C_Init(&hi2c3) != HAL_OK)
 800092e:	480e      	ldr	r0, [pc, #56]	; (8000968 <MX_I2C3_Init+0x74>)
 8000930:	f001 fea4 	bl	800267c <HAL_I2C_Init>
 8000934:	4603      	mov	r3, r0
 8000936:	2b00      	cmp	r3, #0
 8000938:	d001      	beq.n	800093e <MX_I2C3_Init+0x4a>
  {
    Error_Handler();
 800093a:	f001 f845 	bl	80019c8 <Error_Handler>
  }

  /** Configure Analogue filter
  */
  if (HAL_I2CEx_ConfigAnalogFilter(&hi2c3, I2C_ANALOGFILTER_ENABLE) != HAL_OK)
 800093e:	2100      	movs	r1, #0
 8000940:	4809      	ldr	r0, [pc, #36]	; (8000968 <MX_I2C3_Init+0x74>)
 8000942:	f002 fb81 	bl	8003048 <HAL_I2CEx_ConfigAnalogFilter>
 8000946:	4603      	mov	r3, r0
 8000948:	2b00      	cmp	r3, #0
 800094a:	d001      	beq.n	8000950 <MX_I2C3_Init+0x5c>
  {
    Error_Handler();
 800094c:	f001 f83c 	bl	80019c8 <Error_Handler>
  }

  /** Configure Digital filter
  */
  if (HAL_I2CEx_ConfigDigitalFilter(&hi2c3, 0) != HAL_OK)
 8000950:	2100      	movs	r1, #0
 8000952:	4805      	ldr	r0, [pc, #20]	; (8000968 <MX_I2C3_Init+0x74>)
 8000954:	f002 fbc3 	bl	80030de <HAL_I2CEx_ConfigDigitalFilter>
 8000958:	4603      	mov	r3, r0
 800095a:	2b00      	cmp	r3, #0
 800095c:	d001      	beq.n	8000962 <MX_I2C3_Init+0x6e>
  {
    Error_Handler();
 800095e:	f001 f833 	bl	80019c8 <Error_Handler>
  }
  /* USER CODE BEGIN I2C3_Init 2 */

  /* USER CODE END I2C3_Init 2 */

}
 8000962:	bf00      	nop
 8000964:	bd80      	pop	{r7, pc}
 8000966:	bf00      	nop
 8000968:	20000138 	.word	0x20000138
 800096c:	40005c00 	.word	0x40005c00
 8000970:	6000030d 	.word	0x6000030d

08000974 <MX_SPI1_Init>:
  * @brief SPI1 Initialization Function
  * @param None
  * @retval None
  */
static void MX_SPI1_Init(void)
{
 8000974:	b580      	push	{r7, lr}
 8000976:	af00      	add	r7, sp, #0

  /* USER CODE BEGIN SPI1_Init 1 */

  /* USER CODE END SPI1_Init 1 */
  /* SPI1 parameter configuration*/
  hspi1.Instance = SPI1;
 8000978:	4b1d      	ldr	r3, [pc, #116]	; (80009f0 <MX_SPI1_Init+0x7c>)
 800097a:	4a1e      	ldr	r2, [pc, #120]	; (80009f4 <MX_SPI1_Init+0x80>)
 800097c:	601a      	str	r2, [r3, #0]
  hspi1.Init.Mode = SPI_MODE_MASTER;
 800097e:	4b1c      	ldr	r3, [pc, #112]	; (80009f0 <MX_SPI1_Init+0x7c>)
 8000980:	f44f 7282 	mov.w	r2, #260	; 0x104
 8000984:	605a      	str	r2, [r3, #4]
  hspi1.Init.Direction = SPI_DIRECTION_2LINES;
 8000986:	4b1a      	ldr	r3, [pc, #104]	; (80009f0 <MX_SPI1_Init+0x7c>)
 8000988:	2200      	movs	r2, #0
 800098a:	609a      	str	r2, [r3, #8]
  hspi1.Init.DataSize = SPI_DATASIZE_4BIT;
 800098c:	4b18      	ldr	r3, [pc, #96]	; (80009f0 <MX_SPI1_Init+0x7c>)
 800098e:	f44f 7240 	mov.w	r2, #768	; 0x300
 8000992:	60da      	str	r2, [r3, #12]
  hspi1.Init.CLKPolarity = SPI_POLARITY_LOW;
 8000994:	4b16      	ldr	r3, [pc, #88]	; (80009f0 <MX_SPI1_Init+0x7c>)
 8000996:	2200      	movs	r2, #0
 8000998:	611a      	str	r2, [r3, #16]
  hspi1.Init.CLKPhase = SPI_PHASE_1EDGE;
 800099a:	4b15      	ldr	r3, [pc, #84]	; (80009f0 <MX_SPI1_Init+0x7c>)
 800099c:	2200      	movs	r2, #0
 800099e:	615a      	str	r2, [r3, #20]
  hspi1.Init.NSS = SPI_NSS_SOFT;
 80009a0:	4b13      	ldr	r3, [pc, #76]	; (80009f0 <MX_SPI1_Init+0x7c>)
 80009a2:	f44f 7200 	mov.w	r2, #512	; 0x200
 80009a6:	619a      	str	r2, [r3, #24]
  hspi1.Init.BaudRatePrescaler = SPI_BAUDRATEPRESCALER_16;
 80009a8:	4b11      	ldr	r3, [pc, #68]	; (80009f0 <MX_SPI1_Init+0x7c>)
 80009aa:	2218      	movs	r2, #24
 80009ac:	61da      	str	r2, [r3, #28]
  hspi1.Init.FirstBit = SPI_FIRSTBIT_MSB;
 80009ae:	4b10      	ldr	r3, [pc, #64]	; (80009f0 <MX_SPI1_Init+0x7c>)
 80009b0:	2200      	movs	r2, #0
 80009b2:	621a      	str	r2, [r3, #32]
  hspi1.Init.TIMode = SPI_TIMODE_DISABLE;
 80009b4:	4b0e      	ldr	r3, [pc, #56]	; (80009f0 <MX_SPI1_Init+0x7c>)
 80009b6:	2200      	movs	r2, #0
 80009b8:	625a      	str	r2, [r3, #36]	; 0x24
  hspi1.Init.CRCCalculation = SPI_CRCCALCULATION_DISABLE;
 80009ba:	4b0d      	ldr	r3, [pc, #52]	; (80009f0 <MX_SPI1_Init+0x7c>)
 80009bc:	2200      	movs	r2, #0
 80009be:	629a      	str	r2, [r3, #40]	; 0x28
  hspi1.Init.CRCPolynomial = 7;
 80009c0:	4b0b      	ldr	r3, [pc, #44]	; (80009f0 <MX_SPI1_Init+0x7c>)
 80009c2:	2207      	movs	r2, #7
 80009c4:	62da      	str	r2, [r3, #44]	; 0x2c
  hspi1.Init.CRCLength = SPI_CRC_LENGTH_DATASIZE;
 80009c6:	4b0a      	ldr	r3, [pc, #40]	; (80009f0 <MX_SPI1_Init+0x7c>)
 80009c8:	2200      	movs	r2, #0
 80009ca:	631a      	str	r2, [r3, #48]	; 0x30
  hspi1.Init.NSSPMode = SPI_NSS_PULSE_ENABLE;
 80009cc:	4b08      	ldr	r3, [pc, #32]	; (80009f0 <MX_SPI1_Init+0x7c>)
 80009ce:	2208      	movs	r2, #8
 80009d0:	635a      	str	r2, [r3, #52]	; 0x34
  if (HAL_SPI_Init(&hspi1) != HAL_OK)
 80009d2:	4807      	ldr	r0, [pc, #28]	; (80009f0 <MX_SPI1_Init+0x7c>)
 80009d4:	f003 fd3a 	bl	800444c <HAL_SPI_Init>
 80009d8:	4603      	mov	r3, r0
 80009da:	2b00      	cmp	r3, #0
 80009dc:	d001      	beq.n	80009e2 <MX_SPI1_Init+0x6e>
  {
    Error_Handler();
 80009de:	f000 fff3 	bl	80019c8 <Error_Handler>
  }
  /* USER CODE BEGIN SPI1_Init 2 */
	//LL_SPI_WriteReg(SPI1, CR2, SPI_CR2_FRXTH_Msk);
	WRITE_REG(hspi1.Instance->CR2, SPI_CR2_FRXTH_Msk);
 80009e2:	4b03      	ldr	r3, [pc, #12]	; (80009f0 <MX_SPI1_Init+0x7c>)
 80009e4:	681b      	ldr	r3, [r3, #0]
 80009e6:	f44f 5280 	mov.w	r2, #4096	; 0x1000
 80009ea:	605a      	str	r2, [r3, #4]
  /* USER CODE END SPI1_Init 2 */

}
 80009ec:	bf00      	nop
 80009ee:	bd80      	pop	{r7, pc}
 80009f0:	2000018c 	.word	0x2000018c
 80009f4:	40013000 	.word	0x40013000

080009f8 <MX_TIM2_Init>:
  * @brief TIM2 Initialization Function
  * @param None
  * @retval None
  */
static void MX_TIM2_Init(void)
{
 80009f8:	b580      	push	{r7, lr}
 80009fa:	b08c      	sub	sp, #48	; 0x30
 80009fc:	af00      	add	r7, sp, #0

  /* USER CODE BEGIN TIM2_Init 0 */

  /* USER CODE END TIM2_Init 0 */

  TIM_Encoder_InitTypeDef sConfig = {0};
 80009fe:	f107 030c 	add.w	r3, r7, #12
 8000a02:	2224      	movs	r2, #36	; 0x24
 8000a04:	2100      	movs	r1, #0
 8000a06:	4618      	mov	r0, r3
 8000a08:	f007 ff14 	bl	8008834 <memset>
  TIM_MasterConfigTypeDef sMasterConfig = {0};
 8000a0c:	463b      	mov	r3, r7
 8000a0e:	2200      	movs	r2, #0
 8000a10:	601a      	str	r2, [r3, #0]
 8000a12:	605a      	str	r2, [r3, #4]
 8000a14:	609a      	str	r2, [r3, #8]

  /* USER CODE BEGIN TIM2_Init 1 */

  /* USER CODE END TIM2_Init 1 */
  htim2.Instance = TIM2;
 8000a16:	4b21      	ldr	r3, [pc, #132]	; (8000a9c <MX_TIM2_Init+0xa4>)
 8000a18:	f04f 4280 	mov.w	r2, #1073741824	; 0x40000000
 8000a1c:	601a      	str	r2, [r3, #0]
  htim2.Init.Prescaler = 0;
 8000a1e:	4b1f      	ldr	r3, [pc, #124]	; (8000a9c <MX_TIM2_Init+0xa4>)
 8000a20:	2200      	movs	r2, #0
 8000a22:	605a      	str	r2, [r3, #4]
  htim2.Init.CounterMode = TIM_COUNTERMODE_UP;
 8000a24:	4b1d      	ldr	r3, [pc, #116]	; (8000a9c <MX_TIM2_Init+0xa4>)
 8000a26:	2200      	movs	r2, #0
 8000a28:	609a      	str	r2, [r3, #8]
  htim2.Init.Period = 65535;
 8000a2a:	4b1c      	ldr	r3, [pc, #112]	; (8000a9c <MX_TIM2_Init+0xa4>)
 8000a2c:	f64f 72ff 	movw	r2, #65535	; 0xffff
 8000a30:	60da      	str	r2, [r3, #12]
  htim2.Init.ClockDivision = TIM_CLOCKDIVISION_DIV1;
 8000a32:	4b1a      	ldr	r3, [pc, #104]	; (8000a9c <MX_TIM2_Init+0xa4>)
 8000a34:	2200      	movs	r2, #0
 8000a36:	611a      	str	r2, [r3, #16]
  htim2.Init.AutoReloadPreload = TIM_AUTORELOAD_PRELOAD_DISABLE;
 8000a38:	4b18      	ldr	r3, [pc, #96]	; (8000a9c <MX_TIM2_Init+0xa4>)
 8000a3a:	2200      	movs	r2, #0
 8000a3c:	619a      	str	r2, [r3, #24]
  sConfig.EncoderMode = TIM_ENCODERMODE_TI12;
 8000a3e:	2303      	movs	r3, #3
 8000a40:	60fb      	str	r3, [r7, #12]
  sConfig.IC1Polarity = TIM_ICPOLARITY_RISING;
 8000a42:	2300      	movs	r3, #0
 8000a44:	613b      	str	r3, [r7, #16]
  sConfig.IC1Selection = TIM_ICSELECTION_DIRECTTI;
 8000a46:	2301      	movs	r3, #1
 8000a48:	617b      	str	r3, [r7, #20]
  sConfig.IC1Prescaler = TIM_ICPSC_DIV1;
 8000a4a:	2300      	movs	r3, #0
 8000a4c:	61bb      	str	r3, [r7, #24]
  sConfig.IC1Filter = 0;
 8000a4e:	2300      	movs	r3, #0
 8000a50:	61fb      	str	r3, [r7, #28]
  sConfig.IC2Polarity = TIM_ICPOLARITY_RISING;
 8000a52:	2300      	movs	r3, #0
 8000a54:	623b      	str	r3, [r7, #32]
  sConfig.IC2Selection = TIM_ICSELECTION_DIRECTTI;
 8000a56:	2301      	movs	r3, #1
 8000a58:	627b      	str	r3, [r7, #36]	; 0x24
  sConfig.IC2Prescaler = TIM_ICPSC_DIV1;
 8000a5a:	2300      	movs	r3, #0
 8000a5c:	62bb      	str	r3, [r7, #40]	; 0x28
  sConfig.IC2Filter = 0;
 8000a5e:	2300      	movs	r3, #0
 8000a60:	62fb      	str	r3, [r7, #44]	; 0x2c
  if (HAL_TIM_Encoder_Init(&htim2, &sConfig) != HAL_OK)
 8000a62:	f107 030c 	add.w	r3, r7, #12
 8000a66:	4619      	mov	r1, r3
 8000a68:	480c      	ldr	r0, [pc, #48]	; (8000a9c <MX_TIM2_Init+0xa4>)
 8000a6a:	f004 fa0f 	bl	8004e8c <HAL_TIM_Encoder_Init>
 8000a6e:	4603      	mov	r3, r0
 8000a70:	2b00      	cmp	r3, #0
 8000a72:	d001      	beq.n	8000a78 <MX_TIM2_Init+0x80>
  {
    Error_Handler();
 8000a74:	f000 ffa8 	bl	80019c8 <Error_Handler>
  }
  sMasterConfig.MasterOutputTrigger = TIM_TRGO_RESET;
 8000a78:	2300      	movs	r3, #0
 8000a7a:	603b      	str	r3, [r7, #0]
  sMasterConfig.MasterSlaveMode = TIM_MASTERSLAVEMODE_DISABLE;
 8000a7c:	2300      	movs	r3, #0
 8000a7e:	60bb      	str	r3, [r7, #8]
  if (HAL_TIMEx_MasterConfigSynchronization(&htim2, &sMasterConfig) != HAL_OK)
 8000a80:	463b      	mov	r3, r7
 8000a82:	4619      	mov	r1, r3
 8000a84:	4805      	ldr	r0, [pc, #20]	; (8000a9c <MX_TIM2_Init+0xa4>)
 8000a86:	f004 fc8f 	bl	80053a8 <HAL_TIMEx_MasterConfigSynchronization>
 8000a8a:	4603      	mov	r3, r0
 8000a8c:	2b00      	cmp	r3, #0
 8000a8e:	d001      	beq.n	8000a94 <MX_TIM2_Init+0x9c>
  {
    Error_Handler();
 8000a90:	f000 ff9a 	bl	80019c8 <Error_Handler>
  }
  /* USER CODE BEGIN TIM2_Init 2 */

  /* USER CODE END TIM2_Init 2 */

}
 8000a94:	bf00      	nop
 8000a96:	3730      	adds	r7, #48	; 0x30
 8000a98:	46bd      	mov	sp, r7
 8000a9a:	bd80      	pop	{r7, pc}
 8000a9c:	200001f0 	.word	0x200001f0

08000aa0 <MX_TIM3_Init>:
  * @brief TIM3 Initialization Function
  * @param None
  * @retval None
  */
static void MX_TIM3_Init(void)
{
 8000aa0:	b580      	push	{r7, lr}
 8000aa2:	b08c      	sub	sp, #48	; 0x30
 8000aa4:	af00      	add	r7, sp, #0

  /* USER CODE BEGIN TIM3_Init 0 */

  /* USER CODE END TIM3_Init 0 */

  TIM_Encoder_InitTypeDef sConfig = {0};
 8000aa6:	f107 030c 	add.w	r3, r7, #12
 8000aaa:	2224      	movs	r2, #36	; 0x24
 8000aac:	2100      	movs	r1, #0
 8000aae:	4618      	mov	r0, r3
 8000ab0:	f007 fec0 	bl	8008834 <memset>
  TIM_MasterConfigTypeDef sMasterConfig = {0};
 8000ab4:	463b      	mov	r3, r7
 8000ab6:	2200      	movs	r2, #0
 8000ab8:	601a      	str	r2, [r3, #0]
 8000aba:	605a      	str	r2, [r3, #4]
 8000abc:	609a      	str	r2, [r3, #8]

  /* USER CODE BEGIN TIM3_Init 1 */

  /* USER CODE END TIM3_Init 1 */
  htim3.Instance = TIM3;
 8000abe:	4b21      	ldr	r3, [pc, #132]	; (8000b44 <MX_TIM3_Init+0xa4>)
 8000ac0:	4a21      	ldr	r2, [pc, #132]	; (8000b48 <MX_TIM3_Init+0xa8>)
 8000ac2:	601a      	str	r2, [r3, #0]
  htim3.Init.Prescaler = 0;
 8000ac4:	4b1f      	ldr	r3, [pc, #124]	; (8000b44 <MX_TIM3_Init+0xa4>)
 8000ac6:	2200      	movs	r2, #0
 8000ac8:	605a      	str	r2, [r3, #4]
  htim3.Init.CounterMode = TIM_COUNTERMODE_UP;
 8000aca:	4b1e      	ldr	r3, [pc, #120]	; (8000b44 <MX_TIM3_Init+0xa4>)
 8000acc:	2200      	movs	r2, #0
 8000ace:	609a      	str	r2, [r3, #8]
  htim3.Init.Period = 65535;
 8000ad0:	4b1c      	ldr	r3, [pc, #112]	; (8000b44 <MX_TIM3_Init+0xa4>)
 8000ad2:	f64f 72ff 	movw	r2, #65535	; 0xffff
 8000ad6:	60da      	str	r2, [r3, #12]
  htim3.Init.ClockDivision = TIM_CLOCKDIVISION_DIV1;
 8000ad8:	4b1a      	ldr	r3, [pc, #104]	; (8000b44 <MX_TIM3_Init+0xa4>)
 8000ada:	2200      	movs	r2, #0
 8000adc:	611a      	str	r2, [r3, #16]
  htim3.Init.AutoReloadPreload = TIM_AUTORELOAD_PRELOAD_DISABLE;
 8000ade:	4b19      	ldr	r3, [pc, #100]	; (8000b44 <MX_TIM3_Init+0xa4>)
 8000ae0:	2200      	movs	r2, #0
 8000ae2:	619a      	str	r2, [r3, #24]
  sConfig.EncoderMode = TIM_ENCODERMODE_TI12;
 8000ae4:	2303      	movs	r3, #3
 8000ae6:	60fb      	str	r3, [r7, #12]
  sConfig.IC1Polarity = TIM_ICPOLARITY_RISING;
 8000ae8:	2300      	movs	r3, #0
 8000aea:	613b      	str	r3, [r7, #16]
  sConfig.IC1Selection = TIM_ICSELECTION_DIRECTTI;
 8000aec:	2301      	movs	r3, #1
 8000aee:	617b      	str	r3, [r7, #20]
  sConfig.IC1Prescaler = TIM_ICPSC_DIV1;
 8000af0:	2300      	movs	r3, #0
 8000af2:	61bb      	str	r3, [r7, #24]
  sConfig.IC1Filter = 0;
 8000af4:	2300      	movs	r3, #0
 8000af6:	61fb      	str	r3, [r7, #28]
  sConfig.IC2Polarity = TIM_ICPOLARITY_RISING;
 8000af8:	2300      	movs	r3, #0
 8000afa:	623b      	str	r3, [r7, #32]
  sConfig.IC2Selection = TIM_ICSELECTION_DIRECTTI;
 8000afc:	2301      	movs	r3, #1
 8000afe:	627b      	str	r3, [r7, #36]	; 0x24
  sConfig.IC2Prescaler = TIM_ICPSC_DIV1;
 8000b00:	2300      	movs	r3, #0
 8000b02:	62bb      	str	r3, [r7, #40]	; 0x28
  sConfig.IC2Filter = 0;
 8000b04:	2300      	movs	r3, #0
 8000b06:	62fb      	str	r3, [r7, #44]	; 0x2c
  if (HAL_TIM_Encoder_Init(&htim3, &sConfig) != HAL_OK)
 8000b08:	f107 030c 	add.w	r3, r7, #12
 8000b0c:	4619      	mov	r1, r3
 8000b0e:	480d      	ldr	r0, [pc, #52]	; (8000b44 <MX_TIM3_Init+0xa4>)
 8000b10:	f004 f9bc 	bl	8004e8c <HAL_TIM_Encoder_Init>
 8000b14:	4603      	mov	r3, r0
 8000b16:	2b00      	cmp	r3, #0
 8000b18:	d001      	beq.n	8000b1e <MX_TIM3_Init+0x7e>
  {
    Error_Handler();
 8000b1a:	f000 ff55 	bl	80019c8 <Error_Handler>
  }
  sMasterConfig.MasterOutputTrigger = TIM_TRGO_RESET;
 8000b1e:	2300      	movs	r3, #0
 8000b20:	603b      	str	r3, [r7, #0]
  sMasterConfig.MasterSlaveMode = TIM_MASTERSLAVEMODE_DISABLE;
 8000b22:	2300      	movs	r3, #0
 8000b24:	60bb      	str	r3, [r7, #8]
  if (HAL_TIMEx_MasterConfigSynchronization(&htim3, &sMasterConfig) != HAL_OK)
 8000b26:	463b      	mov	r3, r7
 8000b28:	4619      	mov	r1, r3
 8000b2a:	4806      	ldr	r0, [pc, #24]	; (8000b44 <MX_TIM3_Init+0xa4>)
 8000b2c:	f004 fc3c 	bl	80053a8 <HAL_TIMEx_MasterConfigSynchronization>
 8000b30:	4603      	mov	r3, r0
 8000b32:	2b00      	cmp	r3, #0
 8000b34:	d001      	beq.n	8000b3a <MX_TIM3_Init+0x9a>
  {
    Error_Handler();
 8000b36:	f000 ff47 	bl	80019c8 <Error_Handler>
  }
  /* USER CODE BEGIN TIM3_Init 2 */

  /* USER CODE END TIM3_Init 2 */

}
 8000b3a:	bf00      	nop
 8000b3c:	3730      	adds	r7, #48	; 0x30
 8000b3e:	46bd      	mov	sp, r7
 8000b40:	bd80      	pop	{r7, pc}
 8000b42:	bf00      	nop
 8000b44:	2000023c 	.word	0x2000023c
 8000b48:	40000400 	.word	0x40000400

08000b4c <MX_TIM5_Init>:
  * @brief TIM5 Initialization Function
  * @param None
  * @retval None
  */
static void MX_TIM5_Init(void)
{
 8000b4c:	b580      	push	{r7, lr}
 8000b4e:	b08c      	sub	sp, #48	; 0x30
 8000b50:	af00      	add	r7, sp, #0

  /* USER CODE BEGIN TIM5_Init 0 */

  /* USER CODE END TIM5_Init 0 */

  TIM_Encoder_InitTypeDef sConfig = {0};
 8000b52:	f107 030c 	add.w	r3, r7, #12
 8000b56:	2224      	movs	r2, #36	; 0x24
 8000b58:	2100      	movs	r1, #0
 8000b5a:	4618      	mov	r0, r3
 8000b5c:	f007 fe6a 	bl	8008834 <memset>
  TIM_MasterConfigTypeDef sMasterConfig = {0};
 8000b60:	463b      	mov	r3, r7
 8000b62:	2200      	movs	r2, #0
 8000b64:	601a      	str	r2, [r3, #0]
 8000b66:	605a      	str	r2, [r3, #4]
 8000b68:	609a      	str	r2, [r3, #8]

  /* USER CODE BEGIN TIM5_Init 1 */

  /* USER CODE END TIM5_Init 1 */
  htim5.Instance = TIM5;
 8000b6a:	4b21      	ldr	r3, [pc, #132]	; (8000bf0 <MX_TIM5_Init+0xa4>)
 8000b6c:	4a21      	ldr	r2, [pc, #132]	; (8000bf4 <MX_TIM5_Init+0xa8>)
 8000b6e:	601a      	str	r2, [r3, #0]
  htim5.Init.Prescaler = 0;
 8000b70:	4b1f      	ldr	r3, [pc, #124]	; (8000bf0 <MX_TIM5_Init+0xa4>)
 8000b72:	2200      	movs	r2, #0
 8000b74:	605a      	str	r2, [r3, #4]
  htim5.Init.CounterMode = TIM_COUNTERMODE_UP;
 8000b76:	4b1e      	ldr	r3, [pc, #120]	; (8000bf0 <MX_TIM5_Init+0xa4>)
 8000b78:	2200      	movs	r2, #0
 8000b7a:	609a      	str	r2, [r3, #8]
  htim5.Init.Period = 65535;
 8000b7c:	4b1c      	ldr	r3, [pc, #112]	; (8000bf0 <MX_TIM5_Init+0xa4>)
 8000b7e:	f64f 72ff 	movw	r2, #65535	; 0xffff
 8000b82:	60da      	str	r2, [r3, #12]
  htim5.Init.ClockDivision = TIM_CLOCKDIVISION_DIV1;
 8000b84:	4b1a      	ldr	r3, [pc, #104]	; (8000bf0 <MX_TIM5_Init+0xa4>)
 8000b86:	2200      	movs	r2, #0
 8000b88:	611a      	str	r2, [r3, #16]
  htim5.Init.AutoReloadPreload = TIM_AUTORELOAD_PRELOAD_DISABLE;
 8000b8a:	4b19      	ldr	r3, [pc, #100]	; (8000bf0 <MX_TIM5_Init+0xa4>)
 8000b8c:	2200      	movs	r2, #0
 8000b8e:	619a      	str	r2, [r3, #24]
  sConfig.EncoderMode = TIM_ENCODERMODE_TI12;
 8000b90:	2303      	movs	r3, #3
 8000b92:	60fb      	str	r3, [r7, #12]
  sConfig.IC1Polarity = TIM_ICPOLARITY_RISING;
 8000b94:	2300      	movs	r3, #0
 8000b96:	613b      	str	r3, [r7, #16]
  sConfig.IC1Selection = TIM_ICSELECTION_DIRECTTI;
 8000b98:	2301      	movs	r3, #1
 8000b9a:	617b      	str	r3, [r7, #20]
  sConfig.IC1Prescaler = TIM_ICPSC_DIV1;
 8000b9c:	2300      	movs	r3, #0
 8000b9e:	61bb      	str	r3, [r7, #24]
  sConfig.IC1Filter = 0;
 8000ba0:	2300      	movs	r3, #0
 8000ba2:	61fb      	str	r3, [r7, #28]
  sConfig.IC2Polarity = TIM_ICPOLARITY_RISING;
 8000ba4:	2300      	movs	r3, #0
 8000ba6:	623b      	str	r3, [r7, #32]
  sConfig.IC2Selection = TIM_ICSELECTION_DIRECTTI;
 8000ba8:	2301      	movs	r3, #1
 8000baa:	627b      	str	r3, [r7, #36]	; 0x24
  sConfig.IC2Prescaler = TIM_ICPSC_DIV1;
 8000bac:	2300      	movs	r3, #0
 8000bae:	62bb      	str	r3, [r7, #40]	; 0x28
  sConfig.IC2Filter = 0;
 8000bb0:	2300      	movs	r3, #0
 8000bb2:	62fb      	str	r3, [r7, #44]	; 0x2c
  if (HAL_TIM_Encoder_Init(&htim5, &sConfig) != HAL_OK)
 8000bb4:	f107 030c 	add.w	r3, r7, #12
 8000bb8:	4619      	mov	r1, r3
 8000bba:	480d      	ldr	r0, [pc, #52]	; (8000bf0 <MX_TIM5_Init+0xa4>)
 8000bbc:	f004 f966 	bl	8004e8c <HAL_TIM_Encoder_Init>
 8000bc0:	4603      	mov	r3, r0
 8000bc2:	2b00      	cmp	r3, #0
 8000bc4:	d001      	beq.n	8000bca <MX_TIM5_Init+0x7e>
  {
    Error_Handler();
 8000bc6:	f000 feff 	bl	80019c8 <Error_Handler>
  }
  sMasterConfig.MasterOutputTrigger = TIM_TRGO_RESET;
 8000bca:	2300      	movs	r3, #0
 8000bcc:	603b      	str	r3, [r7, #0]
  sMasterConfig.MasterSlaveMode = TIM_MASTERSLAVEMODE_DISABLE;
 8000bce:	2300      	movs	r3, #0
 8000bd0:	60bb      	str	r3, [r7, #8]
  if (HAL_TIMEx_MasterConfigSynchronization(&htim5, &sMasterConfig) != HAL_OK)
 8000bd2:	463b      	mov	r3, r7
 8000bd4:	4619      	mov	r1, r3
 8000bd6:	4806      	ldr	r0, [pc, #24]	; (8000bf0 <MX_TIM5_Init+0xa4>)
 8000bd8:	f004 fbe6 	bl	80053a8 <HAL_TIMEx_MasterConfigSynchronization>
 8000bdc:	4603      	mov	r3, r0
 8000bde:	2b00      	cmp	r3, #0
 8000be0:	d001      	beq.n	8000be6 <MX_TIM5_Init+0x9a>
  {
    Error_Handler();
 8000be2:	f000 fef1 	bl	80019c8 <Error_Handler>
  }
  /* USER CODE BEGIN TIM5_Init 2 */

  /* USER CODE END TIM5_Init 2 */

}
 8000be6:	bf00      	nop
 8000be8:	3730      	adds	r7, #48	; 0x30
 8000bea:	46bd      	mov	sp, r7
 8000bec:	bd80      	pop	{r7, pc}
 8000bee:	bf00      	nop
 8000bf0:	20000288 	.word	0x20000288
 8000bf4:	40000c00 	.word	0x40000c00

08000bf8 <MX_TIM8_Init>:
  * @brief TIM8 Initialization Function
  * @param None
  * @retval None
  */
static void MX_TIM8_Init(void)
{
 8000bf8:	b580      	push	{r7, lr}
 8000bfa:	b08c      	sub	sp, #48	; 0x30
 8000bfc:	af00      	add	r7, sp, #0

  /* USER CODE BEGIN TIM8_Init 0 */

  /* USER CODE END TIM8_Init 0 */

  TIM_Encoder_InitTypeDef sConfig = {0};
 8000bfe:	f107 030c 	add.w	r3, r7, #12
 8000c02:	2224      	movs	r2, #36	; 0x24
 8000c04:	2100      	movs	r1, #0
 8000c06:	4618      	mov	r0, r3
 8000c08:	f007 fe14 	bl	8008834 <memset>
  TIM_MasterConfigTypeDef sMasterConfig = {0};
 8000c0c:	463b      	mov	r3, r7
 8000c0e:	2200      	movs	r2, #0
 8000c10:	601a      	str	r2, [r3, #0]
 8000c12:	605a      	str	r2, [r3, #4]
 8000c14:	609a      	str	r2, [r3, #8]

  /* USER CODE BEGIN TIM8_Init 1 */

  /* USER CODE END TIM8_Init 1 */
  htim8.Instance = TIM8;
 8000c16:	4b23      	ldr	r3, [pc, #140]	; (8000ca4 <MX_TIM8_Init+0xac>)
 8000c18:	4a23      	ldr	r2, [pc, #140]	; (8000ca8 <MX_TIM8_Init+0xb0>)
 8000c1a:	601a      	str	r2, [r3, #0]
  htim8.Init.Prescaler = 0;
 8000c1c:	4b21      	ldr	r3, [pc, #132]	; (8000ca4 <MX_TIM8_Init+0xac>)
 8000c1e:	2200      	movs	r2, #0
 8000c20:	605a      	str	r2, [r3, #4]
  htim8.Init.CounterMode = TIM_COUNTERMODE_UP;
 8000c22:	4b20      	ldr	r3, [pc, #128]	; (8000ca4 <MX_TIM8_Init+0xac>)
 8000c24:	2200      	movs	r2, #0
 8000c26:	609a      	str	r2, [r3, #8]
  htim8.Init.Period = 65535;
 8000c28:	4b1e      	ldr	r3, [pc, #120]	; (8000ca4 <MX_TIM8_Init+0xac>)
 8000c2a:	f64f 72ff 	movw	r2, #65535	; 0xffff
 8000c2e:	60da      	str	r2, [r3, #12]
  htim8.Init.ClockDivision = TIM_CLOCKDIVISION_DIV1;
 8000c30:	4b1c      	ldr	r3, [pc, #112]	; (8000ca4 <MX_TIM8_Init+0xac>)
 8000c32:	2200      	movs	r2, #0
 8000c34:	611a      	str	r2, [r3, #16]
  htim8.Init.RepetitionCounter = 0;
 8000c36:	4b1b      	ldr	r3, [pc, #108]	; (8000ca4 <MX_TIM8_Init+0xac>)
 8000c38:	2200      	movs	r2, #0
 8000c3a:	615a      	str	r2, [r3, #20]
  htim8.Init.AutoReloadPreload = TIM_AUTORELOAD_PRELOAD_DISABLE;
 8000c3c:	4b19      	ldr	r3, [pc, #100]	; (8000ca4 <MX_TIM8_Init+0xac>)
 8000c3e:	2200      	movs	r2, #0
 8000c40:	619a      	str	r2, [r3, #24]
  sConfig.EncoderMode = TIM_ENCODERMODE_TI12;
 8000c42:	2303      	movs	r3, #3
 8000c44:	60fb      	str	r3, [r7, #12]
  sConfig.IC1Polarity = TIM_ICPOLARITY_RISING;
 8000c46:	2300      	movs	r3, #0
 8000c48:	613b      	str	r3, [r7, #16]
  sConfig.IC1Selection = TIM_ICSELECTION_DIRECTTI;
 8000c4a:	2301      	movs	r3, #1
 8000c4c:	617b      	str	r3, [r7, #20]
  sConfig.IC1Prescaler = TIM_ICPSC_DIV1;
 8000c4e:	2300      	movs	r3, #0
 8000c50:	61bb      	str	r3, [r7, #24]
  sConfig.IC1Filter = 0;
 8000c52:	2300      	movs	r3, #0
 8000c54:	61fb      	str	r3, [r7, #28]
  sConfig.IC2Polarity = TIM_ICPOLARITY_RISING;
 8000c56:	2300      	movs	r3, #0
 8000c58:	623b      	str	r3, [r7, #32]
  sConfig.IC2Selection = TIM_ICSELECTION_DIRECTTI;
 8000c5a:	2301      	movs	r3, #1
 8000c5c:	627b      	str	r3, [r7, #36]	; 0x24
  sConfig.IC2Prescaler = TIM_ICPSC_DIV1;
 8000c5e:	2300      	movs	r3, #0
 8000c60:	62bb      	str	r3, [r7, #40]	; 0x28
  sConfig.IC2Filter = 0;
 8000c62:	2300      	movs	r3, #0
 8000c64:	62fb      	str	r3, [r7, #44]	; 0x2c
  if (HAL_TIM_Encoder_Init(&htim8, &sConfig) != HAL_OK)
 8000c66:	f107 030c 	add.w	r3, r7, #12
 8000c6a:	4619      	mov	r1, r3
 8000c6c:	480d      	ldr	r0, [pc, #52]	; (8000ca4 <MX_TIM8_Init+0xac>)
 8000c6e:	f004 f90d 	bl	8004e8c <HAL_TIM_Encoder_Init>
 8000c72:	4603      	mov	r3, r0
 8000c74:	2b00      	cmp	r3, #0
 8000c76:	d001      	beq.n	8000c7c <MX_TIM8_Init+0x84>
  {
    Error_Handler();
 8000c78:	f000 fea6 	bl	80019c8 <Error_Handler>
  }
  sMasterConfig.MasterOutputTrigger = TIM_TRGO_RESET;
 8000c7c:	2300      	movs	r3, #0
 8000c7e:	603b      	str	r3, [r7, #0]
  sMasterConfig.MasterOutputTrigger2 = TIM_TRGO2_RESET;
 8000c80:	2300      	movs	r3, #0
 8000c82:	607b      	str	r3, [r7, #4]
  sMasterConfig.MasterSlaveMode = TIM_MASTERSLAVEMODE_DISABLE;
 8000c84:	2300      	movs	r3, #0
 8000c86:	60bb      	str	r3, [r7, #8]
  if (HAL_TIMEx_MasterConfigSynchronization(&htim8, &sMasterConfig) != HAL_OK)
 8000c88:	463b      	mov	r3, r7
 8000c8a:	4619      	mov	r1, r3
 8000c8c:	4805      	ldr	r0, [pc, #20]	; (8000ca4 <MX_TIM8_Init+0xac>)
 8000c8e:	f004 fb8b 	bl	80053a8 <HAL_TIMEx_MasterConfigSynchronization>
 8000c92:	4603      	mov	r3, r0
 8000c94:	2b00      	cmp	r3, #0
 8000c96:	d001      	beq.n	8000c9c <MX_TIM8_Init+0xa4>
  {
    Error_Handler();
 8000c98:	f000 fe96 	bl	80019c8 <Error_Handler>
  }
  /* USER CODE BEGIN TIM8_Init 2 */

  /* USER CODE END TIM8_Init 2 */

}
 8000c9c:	bf00      	nop
 8000c9e:	3730      	adds	r7, #48	; 0x30
 8000ca0:	46bd      	mov	sp, r7
 8000ca2:	bd80      	pop	{r7, pc}
 8000ca4:	200002d4 	.word	0x200002d4
 8000ca8:	40010400 	.word	0x40010400

08000cac <MX_GPIO_Init>:
  * @brief GPIO Initialization Function
  * @param None
  * @retval None
  */
static void MX_GPIO_Init(void)
{
 8000cac:	b580      	push	{r7, lr}
 8000cae:	b090      	sub	sp, #64	; 0x40
 8000cb0:	af00      	add	r7, sp, #0
  GPIO_InitTypeDef GPIO_InitStruct = {0};
 8000cb2:	f107 032c 	add.w	r3, r7, #44	; 0x2c
 8000cb6:	2200      	movs	r2, #0
 8000cb8:	601a      	str	r2, [r3, #0]
 8000cba:	605a      	str	r2, [r3, #4]
 8000cbc:	609a      	str	r2, [r3, #8]
 8000cbe:	60da      	str	r2, [r3, #12]
 8000cc0:	611a      	str	r2, [r3, #16]

  /* GPIO Ports Clock Enable */
  __HAL_RCC_GPIOF_CLK_ENABLE();
 8000cc2:	4bb3      	ldr	r3, [pc, #716]	; (8000f90 <MX_GPIO_Init+0x2e4>)
 8000cc4:	6b1b      	ldr	r3, [r3, #48]	; 0x30
 8000cc6:	4ab2      	ldr	r2, [pc, #712]	; (8000f90 <MX_GPIO_Init+0x2e4>)
 8000cc8:	f043 0320 	orr.w	r3, r3, #32
 8000ccc:	6313      	str	r3, [r2, #48]	; 0x30
 8000cce:	4bb0      	ldr	r3, [pc, #704]	; (8000f90 <MX_GPIO_Init+0x2e4>)
 8000cd0:	6b1b      	ldr	r3, [r3, #48]	; 0x30
 8000cd2:	f003 0320 	and.w	r3, r3, #32
 8000cd6:	62bb      	str	r3, [r7, #40]	; 0x28
 8000cd8:	6abb      	ldr	r3, [r7, #40]	; 0x28
  __HAL_RCC_GPIOI_CLK_ENABLE();
 8000cda:	4bad      	ldr	r3, [pc, #692]	; (8000f90 <MX_GPIO_Init+0x2e4>)
 8000cdc:	6b1b      	ldr	r3, [r3, #48]	; 0x30
 8000cde:	4aac      	ldr	r2, [pc, #688]	; (8000f90 <MX_GPIO_Init+0x2e4>)
 8000ce0:	f443 7380 	orr.w	r3, r3, #256	; 0x100
 8000ce4:	6313      	str	r3, [r2, #48]	; 0x30
 8000ce6:	4baa      	ldr	r3, [pc, #680]	; (8000f90 <MX_GPIO_Init+0x2e4>)
 8000ce8:	6b1b      	ldr	r3, [r3, #48]	; 0x30
 8000cea:	f403 7380 	and.w	r3, r3, #256	; 0x100
 8000cee:	627b      	str	r3, [r7, #36]	; 0x24
 8000cf0:	6a7b      	ldr	r3, [r7, #36]	; 0x24
  __HAL_RCC_GPIOH_CLK_ENABLE();
 8000cf2:	4ba7      	ldr	r3, [pc, #668]	; (8000f90 <MX_GPIO_Init+0x2e4>)
 8000cf4:	6b1b      	ldr	r3, [r3, #48]	; 0x30
 8000cf6:	4aa6      	ldr	r2, [pc, #664]	; (8000f90 <MX_GPIO_Init+0x2e4>)
 8000cf8:	f043 0380 	orr.w	r3, r3, #128	; 0x80
 8000cfc:	6313      	str	r3, [r2, #48]	; 0x30
 8000cfe:	4ba4      	ldr	r3, [pc, #656]	; (8000f90 <MX_GPIO_Init+0x2e4>)
 8000d00:	6b1b      	ldr	r3, [r3, #48]	; 0x30
 8000d02:	f003 0380 	and.w	r3, r3, #128	; 0x80
 8000d06:	623b      	str	r3, [r7, #32]
 8000d08:	6a3b      	ldr	r3, [r7, #32]
  __HAL_RCC_GPIOA_CLK_ENABLE();
 8000d0a:	4ba1      	ldr	r3, [pc, #644]	; (8000f90 <MX_GPIO_Init+0x2e4>)
 8000d0c:	6b1b      	ldr	r3, [r3, #48]	; 0x30
 8000d0e:	4aa0      	ldr	r2, [pc, #640]	; (8000f90 <MX_GPIO_Init+0x2e4>)
 8000d10:	f043 0301 	orr.w	r3, r3, #1
 8000d14:	6313      	str	r3, [r2, #48]	; 0x30
 8000d16:	4b9e      	ldr	r3, [pc, #632]	; (8000f90 <MX_GPIO_Init+0x2e4>)
 8000d18:	6b1b      	ldr	r3, [r3, #48]	; 0x30
 8000d1a:	f003 0301 	and.w	r3, r3, #1
 8000d1e:	61fb      	str	r3, [r7, #28]
 8000d20:	69fb      	ldr	r3, [r7, #28]
  __HAL_RCC_GPIOC_CLK_ENABLE();
 8000d22:	4b9b      	ldr	r3, [pc, #620]	; (8000f90 <MX_GPIO_Init+0x2e4>)
 8000d24:	6b1b      	ldr	r3, [r3, #48]	; 0x30
 8000d26:	4a9a      	ldr	r2, [pc, #616]	; (8000f90 <MX_GPIO_Init+0x2e4>)
 8000d28:	f043 0304 	orr.w	r3, r3, #4
 8000d2c:	6313      	str	r3, [r2, #48]	; 0x30
 8000d2e:	4b98      	ldr	r3, [pc, #608]	; (8000f90 <MX_GPIO_Init+0x2e4>)
 8000d30:	6b1b      	ldr	r3, [r3, #48]	; 0x30
 8000d32:	f003 0304 	and.w	r3, r3, #4
 8000d36:	61bb      	str	r3, [r7, #24]
 8000d38:	69bb      	ldr	r3, [r7, #24]
  __HAL_RCC_GPIOB_CLK_ENABLE();
 8000d3a:	4b95      	ldr	r3, [pc, #596]	; (8000f90 <MX_GPIO_Init+0x2e4>)
 8000d3c:	6b1b      	ldr	r3, [r3, #48]	; 0x30
 8000d3e:	4a94      	ldr	r2, [pc, #592]	; (8000f90 <MX_GPIO_Init+0x2e4>)
 8000d40:	f043 0302 	orr.w	r3, r3, #2
 8000d44:	6313      	str	r3, [r2, #48]	; 0x30
 8000d46:	4b92      	ldr	r3, [pc, #584]	; (8000f90 <MX_GPIO_Init+0x2e4>)
 8000d48:	6b1b      	ldr	r3, [r3, #48]	; 0x30
 8000d4a:	f003 0302 	and.w	r3, r3, #2
 8000d4e:	617b      	str	r3, [r7, #20]
 8000d50:	697b      	ldr	r3, [r7, #20]
  __HAL_RCC_GPIOJ_CLK_ENABLE();
 8000d52:	4b8f      	ldr	r3, [pc, #572]	; (8000f90 <MX_GPIO_Init+0x2e4>)
 8000d54:	6b1b      	ldr	r3, [r3, #48]	; 0x30
 8000d56:	4a8e      	ldr	r2, [pc, #568]	; (8000f90 <MX_GPIO_Init+0x2e4>)
 8000d58:	f443 7300 	orr.w	r3, r3, #512	; 0x200
 8000d5c:	6313      	str	r3, [r2, #48]	; 0x30
 8000d5e:	4b8c      	ldr	r3, [pc, #560]	; (8000f90 <MX_GPIO_Init+0x2e4>)
 8000d60:	6b1b      	ldr	r3, [r3, #48]	; 0x30
 8000d62:	f403 7300 	and.w	r3, r3, #512	; 0x200
 8000d66:	613b      	str	r3, [r7, #16]
 8000d68:	693b      	ldr	r3, [r7, #16]
  __HAL_RCC_GPIOD_CLK_ENABLE();
 8000d6a:	4b89      	ldr	r3, [pc, #548]	; (8000f90 <MX_GPIO_Init+0x2e4>)
 8000d6c:	6b1b      	ldr	r3, [r3, #48]	; 0x30
 8000d6e:	4a88      	ldr	r2, [pc, #544]	; (8000f90 <MX_GPIO_Init+0x2e4>)
 8000d70:	f043 0308 	orr.w	r3, r3, #8
 8000d74:	6313      	str	r3, [r2, #48]	; 0x30
 8000d76:	4b86      	ldr	r3, [pc, #536]	; (8000f90 <MX_GPIO_Init+0x2e4>)
 8000d78:	6b1b      	ldr	r3, [r3, #48]	; 0x30
 8000d7a:	f003 0308 	and.w	r3, r3, #8
 8000d7e:	60fb      	str	r3, [r7, #12]
 8000d80:	68fb      	ldr	r3, [r7, #12]
  __HAL_RCC_GPIOG_CLK_ENABLE();
 8000d82:	4b83      	ldr	r3, [pc, #524]	; (8000f90 <MX_GPIO_Init+0x2e4>)
 8000d84:	6b1b      	ldr	r3, [r3, #48]	; 0x30
 8000d86:	4a82      	ldr	r2, [pc, #520]	; (8000f90 <MX_GPIO_Init+0x2e4>)
 8000d88:	f043 0340 	orr.w	r3, r3, #64	; 0x40
 8000d8c:	6313      	str	r3, [r2, #48]	; 0x30
 8000d8e:	4b80      	ldr	r3, [pc, #512]	; (8000f90 <MX_GPIO_Init+0x2e4>)
 8000d90:	6b1b      	ldr	r3, [r3, #48]	; 0x30
 8000d92:	f003 0340 	and.w	r3, r3, #64	; 0x40
 8000d96:	60bb      	str	r3, [r7, #8]
 8000d98:	68bb      	ldr	r3, [r7, #8]
  __HAL_RCC_GPIOK_CLK_ENABLE();
 8000d9a:	4b7d      	ldr	r3, [pc, #500]	; (8000f90 <MX_GPIO_Init+0x2e4>)
 8000d9c:	6b1b      	ldr	r3, [r3, #48]	; 0x30
 8000d9e:	4a7c      	ldr	r2, [pc, #496]	; (8000f90 <MX_GPIO_Init+0x2e4>)
 8000da0:	f443 6380 	orr.w	r3, r3, #1024	; 0x400
 8000da4:	6313      	str	r3, [r2, #48]	; 0x30
 8000da6:	4b7a      	ldr	r3, [pc, #488]	; (8000f90 <MX_GPIO_Init+0x2e4>)
 8000da8:	6b1b      	ldr	r3, [r3, #48]	; 0x30
 8000daa:	f403 6380 	and.w	r3, r3, #1024	; 0x400
 8000dae:	607b      	str	r3, [r7, #4]
 8000db0:	687b      	ldr	r3, [r7, #4]

  /*Configure GPIO pin Output Level */
  HAL_GPIO_WritePin(GPIOI, GPIO_PIN_12|GPIO_PIN_13|GPIO_PIN_14, GPIO_PIN_RESET);
 8000db2:	2200      	movs	r2, #0
 8000db4:	f44f 41e0 	mov.w	r1, #28672	; 0x7000
 8000db8:	4876      	ldr	r0, [pc, #472]	; (8000f94 <MX_GPIO_Init+0x2e8>)
 8000dba:	f001 fc2b 	bl	8002614 <HAL_GPIO_WritePin>

  /*Configure GPIO pin Output Level */
  HAL_GPIO_WritePin(GPIOF, GPIO_PIN_3|GPIO_PIN_4|GPIO_PIN_5|GPIO_PIN_11, GPIO_PIN_RESET);
 8000dbe:	2200      	movs	r2, #0
 8000dc0:	f640 0138 	movw	r1, #2104	; 0x838
 8000dc4:	4874      	ldr	r0, [pc, #464]	; (8000f98 <MX_GPIO_Init+0x2ec>)
 8000dc6:	f001 fc25 	bl	8002614 <HAL_GPIO_WritePin>

  /*Configure GPIO pin Output Level */
  HAL_GPIO_WritePin(GPIOJ, GPIO_PIN_4|GPIO_PIN_6|GPIO_PIN_7|GPIO_PIN_8, GPIO_PIN_RESET);
 8000dca:	2200      	movs	r2, #0
 8000dcc:	f44f 71e8 	mov.w	r1, #464	; 0x1d0
 8000dd0:	4872      	ldr	r0, [pc, #456]	; (8000f9c <MX_GPIO_Init+0x2f0>)
 8000dd2:	f001 fc1f 	bl	8002614 <HAL_GPIO_WritePin>

  /*Configure GPIO pin Output Level */
  HAL_GPIO_WritePin(GPIOB, GPIO_PIN_12, GPIO_PIN_RESET);
 8000dd6:	2200      	movs	r2, #0
 8000dd8:	f44f 5180 	mov.w	r1, #4096	; 0x1000
 8000ddc:	4870      	ldr	r0, [pc, #448]	; (8000fa0 <MX_GPIO_Init+0x2f4>)
 8000dde:	f001 fc19 	bl	8002614 <HAL_GPIO_WritePin>

  /*Configure GPIO pin Output Level */
  HAL_GPIO_WritePin(GPIOA, GPIO_PIN_8|GPIO_PIN_9|GPIO_PIN_10, GPIO_PIN_RESET);
 8000de2:	2200      	movs	r2, #0
 8000de4:	f44f 61e0 	mov.w	r1, #1792	; 0x700
 8000de8:	486e      	ldr	r0, [pc, #440]	; (8000fa4 <MX_GPIO_Init+0x2f8>)
 8000dea:	f001 fc13 	bl	8002614 <HAL_GPIO_WritePin>

  /*Configure GPIO pin Output Level */
  HAL_GPIO_WritePin(GPIOC, GPIO_PIN_11|GPIO_PIN_12, GPIO_PIN_RESET);
 8000dee:	2200      	movs	r2, #0
 8000df0:	f44f 51c0 	mov.w	r1, #6144	; 0x1800
 8000df4:	486c      	ldr	r0, [pc, #432]	; (8000fa8 <MX_GPIO_Init+0x2fc>)
 8000df6:	f001 fc0d 	bl	8002614 <HAL_GPIO_WritePin>

  /*Configure GPIO pin Output Level */
  HAL_GPIO_WritePin(GPIOD, GPIO_PIN_0, GPIO_PIN_RESET);
 8000dfa:	2200      	movs	r2, #0
 8000dfc:	2101      	movs	r1, #1
 8000dfe:	486b      	ldr	r0, [pc, #428]	; (8000fac <MX_GPIO_Init+0x300>)
 8000e00:	f001 fc08 	bl	8002614 <HAL_GPIO_WritePin>

  /*Configure GPIO pin Output Level */
  HAL_GPIO_WritePin(GPIOG, GPIO_PIN_9|GPIO_PIN_10|GPIO_PIN_15, GPIO_PIN_RESET);
 8000e04:	2200      	movs	r2, #0
 8000e06:	f44f 4106 	mov.w	r1, #34304	; 0x8600
 8000e0a:	4869      	ldr	r0, [pc, #420]	; (8000fb0 <MX_GPIO_Init+0x304>)
 8000e0c:	f001 fc02 	bl	8002614 <HAL_GPIO_WritePin>

  /*Configure GPIO pin Output Level */
  HAL_GPIO_WritePin(GPIOK, GPIO_PIN_6|GPIO_PIN_7, GPIO_PIN_RESET);
 8000e10:	2200      	movs	r2, #0
 8000e12:	21c0      	movs	r1, #192	; 0xc0
 8000e14:	4867      	ldr	r0, [pc, #412]	; (8000fb4 <MX_GPIO_Init+0x308>)
 8000e16:	f001 fbfd 	bl	8002614 <HAL_GPIO_WritePin>

  /*Configure GPIO pins : PI12 PI13 PI14 */
  GPIO_InitStruct.Pin = GPIO_PIN_12|GPIO_PIN_13|GPIO_PIN_14;
 8000e1a:	f44f 43e0 	mov.w	r3, #28672	; 0x7000
 8000e1e:	62fb      	str	r3, [r7, #44]	; 0x2c
  GPIO_InitStruct.Mode = GPIO_MODE_OUTPUT_PP;
 8000e20:	2301      	movs	r3, #1
 8000e22:	633b      	str	r3, [r7, #48]	; 0x30
  GPIO_InitStruct.Pull = GPIO_NOPULL;
 8000e24:	2300      	movs	r3, #0
 8000e26:	637b      	str	r3, [r7, #52]	; 0x34
  GPIO_InitStruct.Speed = GPIO_SPEED_FREQ_LOW;
 8000e28:	2300      	movs	r3, #0
 8000e2a:	63bb      	str	r3, [r7, #56]	; 0x38
  HAL_GPIO_Init(GPIOI, &GPIO_InitStruct);
 8000e2c:	f107 032c 	add.w	r3, r7, #44	; 0x2c
 8000e30:	4619      	mov	r1, r3
 8000e32:	4858      	ldr	r0, [pc, #352]	; (8000f94 <MX_GPIO_Init+0x2e8>)
 8000e34:	f001 fa2a 	bl	800228c <HAL_GPIO_Init>

  /*Configure GPIO pins : PF3 PF4 PF5 PF11 */
  GPIO_InitStruct.Pin = GPIO_PIN_3|GPIO_PIN_4|GPIO_PIN_5|GPIO_PIN_11;
 8000e38:	f640 0338 	movw	r3, #2104	; 0x838
 8000e3c:	62fb      	str	r3, [r7, #44]	; 0x2c
  GPIO_InitStruct.Mode = GPIO_MODE_OUTPUT_PP;
 8000e3e:	2301      	movs	r3, #1
 8000e40:	633b      	str	r3, [r7, #48]	; 0x30
  GPIO_InitStruct.Pull = GPIO_NOPULL;
 8000e42:	2300      	movs	r3, #0
 8000e44:	637b      	str	r3, [r7, #52]	; 0x34
  GPIO_InitStruct.Speed = GPIO_SPEED_FREQ_LOW;
 8000e46:	2300      	movs	r3, #0
 8000e48:	63bb      	str	r3, [r7, #56]	; 0x38
  HAL_GPIO_Init(GPIOF, &GPIO_InitStruct);
 8000e4a:	f107 032c 	add.w	r3, r7, #44	; 0x2c
 8000e4e:	4619      	mov	r1, r3
 8000e50:	4851      	ldr	r0, [pc, #324]	; (8000f98 <MX_GPIO_Init+0x2ec>)
 8000e52:	f001 fa1b 	bl	800228c <HAL_GPIO_Init>

  /*Configure GPIO pin : PH4 */
  GPIO_InitStruct.Pin = GPIO_PIN_4;
 8000e56:	2310      	movs	r3, #16
 8000e58:	62fb      	str	r3, [r7, #44]	; 0x2c
  GPIO_InitStruct.Mode = GPIO_MODE_INPUT;
 8000e5a:	2300      	movs	r3, #0
 8000e5c:	633b      	str	r3, [r7, #48]	; 0x30
  GPIO_InitStruct.Pull = GPIO_NOPULL;
 8000e5e:	2300      	movs	r3, #0
 8000e60:	637b      	str	r3, [r7, #52]	; 0x34
  HAL_GPIO_Init(GPIOH, &GPIO_InitStruct);
 8000e62:	f107 032c 	add.w	r3, r7, #44	; 0x2c
 8000e66:	4619      	mov	r1, r3
 8000e68:	4853      	ldr	r0, [pc, #332]	; (8000fb8 <MX_GPIO_Init+0x30c>)
 8000e6a:	f001 fa0f 	bl	800228c <HAL_GPIO_Init>

  /*Configure GPIO pin : PC4 */
  GPIO_InitStruct.Pin = GPIO_PIN_4;
 8000e6e:	2310      	movs	r3, #16
 8000e70:	62fb      	str	r3, [r7, #44]	; 0x2c
  GPIO_InitStruct.Mode = GPIO_MODE_INPUT;
 8000e72:	2300      	movs	r3, #0
 8000e74:	633b      	str	r3, [r7, #48]	; 0x30
  GPIO_InitStruct.Pull = GPIO_NOPULL;
 8000e76:	2300      	movs	r3, #0
 8000e78:	637b      	str	r3, [r7, #52]	; 0x34
  HAL_GPIO_Init(GPIOC, &GPIO_InitStruct);
 8000e7a:	f107 032c 	add.w	r3, r7, #44	; 0x2c
 8000e7e:	4619      	mov	r1, r3
 8000e80:	4849      	ldr	r0, [pc, #292]	; (8000fa8 <MX_GPIO_Init+0x2fc>)
 8000e82:	f001 fa03 	bl	800228c <HAL_GPIO_Init>

  /*Configure GPIO pin : PB2 */
  GPIO_InitStruct.Pin = GPIO_PIN_2;
 8000e86:	2304      	movs	r3, #4
 8000e88:	62fb      	str	r3, [r7, #44]	; 0x2c
  GPIO_InitStruct.Mode = GPIO_MODE_INPUT;
 8000e8a:	2300      	movs	r3, #0
 8000e8c:	633b      	str	r3, [r7, #48]	; 0x30
  GPIO_InitStruct.Pull = GPIO_NOPULL;
 8000e8e:	2300      	movs	r3, #0
 8000e90:	637b      	str	r3, [r7, #52]	; 0x34
  HAL_GPIO_Init(GPIOB, &GPIO_InitStruct);
 8000e92:	f107 032c 	add.w	r3, r7, #44	; 0x2c
 8000e96:	4619      	mov	r1, r3
 8000e98:	4841      	ldr	r0, [pc, #260]	; (8000fa0 <MX_GPIO_Init+0x2f4>)
 8000e9a:	f001 f9f7 	bl	800228c <HAL_GPIO_Init>

  /*Configure GPIO pin : PI15 */
  GPIO_InitStruct.Pin = GPIO_PIN_15;
 8000e9e:	f44f 4300 	mov.w	r3, #32768	; 0x8000
 8000ea2:	62fb      	str	r3, [r7, #44]	; 0x2c
  GPIO_InitStruct.Mode = GPIO_MODE_INPUT;
 8000ea4:	2300      	movs	r3, #0
 8000ea6:	633b      	str	r3, [r7, #48]	; 0x30
  GPIO_InitStruct.Pull = GPIO_NOPULL;
 8000ea8:	2300      	movs	r3, #0
 8000eaa:	637b      	str	r3, [r7, #52]	; 0x34
  HAL_GPIO_Init(GPIOI, &GPIO_InitStruct);
 8000eac:	f107 032c 	add.w	r3, r7, #44	; 0x2c
 8000eb0:	4619      	mov	r1, r3
 8000eb2:	4838      	ldr	r0, [pc, #224]	; (8000f94 <MX_GPIO_Init+0x2e8>)
 8000eb4:	f001 f9ea 	bl	800228c <HAL_GPIO_Init>

  /*Configure GPIO pins : PJ0 PJ1 */
  GPIO_InitStruct.Pin = GPIO_PIN_0|GPIO_PIN_1;
 8000eb8:	2303      	movs	r3, #3
 8000eba:	62fb      	str	r3, [r7, #44]	; 0x2c
  GPIO_InitStruct.Mode = GPIO_MODE_INPUT;
 8000ebc:	2300      	movs	r3, #0
 8000ebe:	633b      	str	r3, [r7, #48]	; 0x30
  GPIO_InitStruct.Pull = GPIO_NOPULL;
 8000ec0:	2300      	movs	r3, #0
 8000ec2:	637b      	str	r3, [r7, #52]	; 0x34
  HAL_GPIO_Init(GPIOJ, &GPIO_InitStruct);
 8000ec4:	f107 032c 	add.w	r3, r7, #44	; 0x2c
 8000ec8:	4619      	mov	r1, r3
 8000eca:	4834      	ldr	r0, [pc, #208]	; (8000f9c <MX_GPIO_Init+0x2f0>)
 8000ecc:	f001 f9de 	bl	800228c <HAL_GPIO_Init>

  /*Configure GPIO pins : PJ4 PJ6 PJ7 PJ8 */
  GPIO_InitStruct.Pin = GPIO_PIN_4|GPIO_PIN_6|GPIO_PIN_7|GPIO_PIN_8;
 8000ed0:	f44f 73e8 	mov.w	r3, #464	; 0x1d0
 8000ed4:	62fb      	str	r3, [r7, #44]	; 0x2c
  GPIO_InitStruct.Mode = GPIO_MODE_OUTPUT_PP;
 8000ed6:	2301      	movs	r3, #1
 8000ed8:	633b      	str	r3, [r7, #48]	; 0x30
  GPIO_InitStruct.Pull = GPIO_NOPULL;
 8000eda:	2300      	movs	r3, #0
 8000edc:	637b      	str	r3, [r7, #52]	; 0x34
  GPIO_InitStruct.Speed = GPIO_SPEED_FREQ_LOW;
 8000ede:	2300      	movs	r3, #0
 8000ee0:	63bb      	str	r3, [r7, #56]	; 0x38
  HAL_GPIO_Init(GPIOJ, &GPIO_InitStruct);
 8000ee2:	f107 032c 	add.w	r3, r7, #44	; 0x2c
 8000ee6:	4619      	mov	r1, r3
 8000ee8:	482c      	ldr	r0, [pc, #176]	; (8000f9c <MX_GPIO_Init+0x2f0>)
 8000eea:	f001 f9cf 	bl	800228c <HAL_GPIO_Init>

  /*Configure GPIO pin : PB12 */
  GPIO_InitStruct.Pin = GPIO_PIN_12;
 8000eee:	f44f 5380 	mov.w	r3, #4096	; 0x1000
 8000ef2:	62fb      	str	r3, [r7, #44]	; 0x2c
  GPIO_InitStruct.Mode = GPIO_MODE_OUTPUT_PP;
 8000ef4:	2301      	movs	r3, #1
 8000ef6:	633b      	str	r3, [r7, #48]	; 0x30
  GPIO_InitStruct.Pull = GPIO_NOPULL;
 8000ef8:	2300      	movs	r3, #0
 8000efa:	637b      	str	r3, [r7, #52]	; 0x34
  GPIO_InitStruct.Speed = GPIO_SPEED_FREQ_LOW;
 8000efc:	2300      	movs	r3, #0
 8000efe:	63bb      	str	r3, [r7, #56]	; 0x38
  HAL_GPIO_Init(GPIOB, &GPIO_InitStruct);
 8000f00:	f107 032c 	add.w	r3, r7, #44	; 0x2c
 8000f04:	4619      	mov	r1, r3
 8000f06:	4826      	ldr	r0, [pc, #152]	; (8000fa0 <MX_GPIO_Init+0x2f4>)
 8000f08:	f001 f9c0 	bl	800228c <HAL_GPIO_Init>

  /*Configure GPIO pins : PA8 PA9 PA10 */
  GPIO_InitStruct.Pin = GPIO_PIN_8|GPIO_PIN_9|GPIO_PIN_10;
 8000f0c:	f44f 63e0 	mov.w	r3, #1792	; 0x700
 8000f10:	62fb      	str	r3, [r7, #44]	; 0x2c
  GPIO_InitStruct.Mode = GPIO_MODE_OUTPUT_PP;
 8000f12:	2301      	movs	r3, #1
 8000f14:	633b      	str	r3, [r7, #48]	; 0x30
  GPIO_InitStruct.Pull = GPIO_NOPULL;
 8000f16:	2300      	movs	r3, #0
 8000f18:	637b      	str	r3, [r7, #52]	; 0x34
  GPIO_InitStruct.Speed = GPIO_SPEED_FREQ_LOW;
 8000f1a:	2300      	movs	r3, #0
 8000f1c:	63bb      	str	r3, [r7, #56]	; 0x38
  HAL_GPIO_Init(GPIOA, &GPIO_InitStruct);
 8000f1e:	f107 032c 	add.w	r3, r7, #44	; 0x2c
 8000f22:	4619      	mov	r1, r3
 8000f24:	481f      	ldr	r0, [pc, #124]	; (8000fa4 <MX_GPIO_Init+0x2f8>)
 8000f26:	f001 f9b1 	bl	800228c <HAL_GPIO_Init>

  /*Configure GPIO pins : PC11 PC12 */
  GPIO_InitStruct.Pin = GPIO_PIN_11|GPIO_PIN_12;
 8000f2a:	f44f 53c0 	mov.w	r3, #6144	; 0x1800
 8000f2e:	62fb      	str	r3, [r7, #44]	; 0x2c
  GPIO_InitStruct.Mode = GPIO_MODE_OUTPUT_PP;
 8000f30:	2301      	movs	r3, #1
 8000f32:	633b      	str	r3, [r7, #48]	; 0x30
  GPIO_InitStruct.Pull = GPIO_NOPULL;
 8000f34:	2300      	movs	r3, #0
 8000f36:	637b      	str	r3, [r7, #52]	; 0x34
  GPIO_InitStruct.Speed = GPIO_SPEED_FREQ_LOW;
 8000f38:	2300      	movs	r3, #0
 8000f3a:	63bb      	str	r3, [r7, #56]	; 0x38
  HAL_GPIO_Init(GPIOC, &GPIO_InitStruct);
 8000f3c:	f107 032c 	add.w	r3, r7, #44	; 0x2c
 8000f40:	4619      	mov	r1, r3
 8000f42:	4819      	ldr	r0, [pc, #100]	; (8000fa8 <MX_GPIO_Init+0x2fc>)
 8000f44:	f001 f9a2 	bl	800228c <HAL_GPIO_Init>

  /*Configure GPIO pin : PD0 */
  GPIO_InitStruct.Pin = GPIO_PIN_0;
 8000f48:	2301      	movs	r3, #1
 8000f4a:	62fb      	str	r3, [r7, #44]	; 0x2c
  GPIO_InitStruct.Mode = GPIO_MODE_OUTPUT_PP;
 8000f4c:	2301      	movs	r3, #1
 8000f4e:	633b      	str	r3, [r7, #48]	; 0x30
  GPIO_InitStruct.Pull = GPIO_NOPULL;
 8000f50:	2300      	movs	r3, #0
 8000f52:	637b      	str	r3, [r7, #52]	; 0x34
  GPIO_InitStruct.Speed = GPIO_SPEED_FREQ_LOW;
 8000f54:	2300      	movs	r3, #0
 8000f56:	63bb      	str	r3, [r7, #56]	; 0x38
  HAL_GPIO_Init(GPIOD, &GPIO_InitStruct);
 8000f58:	f107 032c 	add.w	r3, r7, #44	; 0x2c
 8000f5c:	4619      	mov	r1, r3
 8000f5e:	4813      	ldr	r0, [pc, #76]	; (8000fac <MX_GPIO_Init+0x300>)
 8000f60:	f001 f994 	bl	800228c <HAL_GPIO_Init>

  /*Configure GPIO pins : PG9 PG10 PG15 */
  GPIO_InitStruct.Pin = GPIO_PIN_9|GPIO_PIN_10|GPIO_PIN_15;
 8000f64:	f44f 4306 	mov.w	r3, #34304	; 0x8600
 8000f68:	62fb      	str	r3, [r7, #44]	; 0x2c
  GPIO_InitStruct.Mode = GPIO_MODE_OUTPUT_PP;
 8000f6a:	2301      	movs	r3, #1
 8000f6c:	633b      	str	r3, [r7, #48]	; 0x30
  GPIO_InitStruct.Pull = GPIO_NOPULL;
 8000f6e:	2300      	movs	r3, #0
 8000f70:	637b      	str	r3, [r7, #52]	; 0x34
  GPIO_InitStruct.Speed = GPIO_SPEED_FREQ_LOW;
 8000f72:	2300      	movs	r3, #0
 8000f74:	63bb      	str	r3, [r7, #56]	; 0x38
  HAL_GPIO_Init(GPIOG, &GPIO_InitStruct);
 8000f76:	f107 032c 	add.w	r3, r7, #44	; 0x2c
 8000f7a:	4619      	mov	r1, r3
 8000f7c:	480c      	ldr	r0, [pc, #48]	; (8000fb0 <MX_GPIO_Init+0x304>)
 8000f7e:	f001 f985 	bl	800228c <HAL_GPIO_Init>

  /*Configure GPIO pins : PK6 PK7 */
  GPIO_InitStruct.Pin = GPIO_PIN_6|GPIO_PIN_7;
 8000f82:	23c0      	movs	r3, #192	; 0xc0
 8000f84:	62fb      	str	r3, [r7, #44]	; 0x2c
  GPIO_InitStruct.Mode = GPIO_MODE_OUTPUT_PP;
 8000f86:	2301      	movs	r3, #1
 8000f88:	633b      	str	r3, [r7, #48]	; 0x30
  GPIO_InitStruct.Pull = GPIO_NOPULL;
 8000f8a:	2300      	movs	r3, #0
 8000f8c:	e016      	b.n	8000fbc <MX_GPIO_Init+0x310>
 8000f8e:	bf00      	nop
 8000f90:	40023800 	.word	0x40023800
 8000f94:	40022000 	.word	0x40022000
 8000f98:	40021400 	.word	0x40021400
 8000f9c:	40022400 	.word	0x40022400
 8000fa0:	40020400 	.word	0x40020400
 8000fa4:	40020000 	.word	0x40020000
 8000fa8:	40020800 	.word	0x40020800
 8000fac:	40020c00 	.word	0x40020c00
 8000fb0:	40021800 	.word	0x40021800
 8000fb4:	40022800 	.word	0x40022800
 8000fb8:	40021c00 	.word	0x40021c00
 8000fbc:	637b      	str	r3, [r7, #52]	; 0x34
  GPIO_InitStruct.Speed = GPIO_SPEED_FREQ_LOW;
 8000fbe:	2300      	movs	r3, #0
 8000fc0:	63bb      	str	r3, [r7, #56]	; 0x38
  HAL_GPIO_Init(GPIOK, &GPIO_InitStruct);
 8000fc2:	f107 032c 	add.w	r3, r7, #44	; 0x2c
 8000fc6:	4619      	mov	r1, r3
 8000fc8:	4803      	ldr	r0, [pc, #12]	; (8000fd8 <MX_GPIO_Init+0x32c>)
 8000fca:	f001 f95f 	bl	800228c <HAL_GPIO_Init>

}
 8000fce:	bf00      	nop
 8000fd0:	3740      	adds	r7, #64	; 0x40
 8000fd2:	46bd      	mov	sp, r7
 8000fd4:	bd80      	pop	{r7, pc}
 8000fd6:	bf00      	nop
 8000fd8:	40022800 	.word	0x40022800

08000fdc <setSpeed>:

/* USER CODE BEGIN 4 */
float v_vel[3];
void setSpeed(uint8_t *buffer, float *velocity, uint8_t *turn)
{
 8000fdc:	b580      	push	{r7, lr}
 8000fde:	b08e      	sub	sp, #56	; 0x38
 8000fe0:	af00      	add	r7, sp, #0
 8000fe2:	60f8      	str	r0, [r7, #12]
 8000fe4:	60b9      	str	r1, [r7, #8]
 8000fe6:	607a      	str	r2, [r7, #4]
	/* Last velocities */
	float prv_Vx = v_vel[0], prv_Vy = v_vel[1];
 8000fe8:	4bb1      	ldr	r3, [pc, #708]	; (80012b0 <setSpeed+0x2d4>)
 8000fea:	681b      	ldr	r3, [r3, #0]
 8000fec:	62bb      	str	r3, [r7, #40]	; 0x28
 8000fee:	4bb0      	ldr	r3, [pc, #704]	; (80012b0 <setSpeed+0x2d4>)
 8000ff0:	685b      	ldr	r3, [r3, #4]
 8000ff2:	627b      	str	r3, [r7, #36]	; 0x24
	
	/* Velocities vector: vx, vy and vr respectively */
	v_vel[0] = (buffer[1] & 0x80) ? -(float)((uint16_t)(buffer[4] & 0xC0) << 1 | (uint16_t)(buffer[1] & 0x7F)) / 100.0f : (float)((uint16_t)(buffer[4] & 0xC0) << 1 | (uint16_t)(buffer[1] & 0x7F)) / 100.0f;
 8000ff4:	68fb      	ldr	r3, [r7, #12]
 8000ff6:	3301      	adds	r3, #1
 8000ff8:	781b      	ldrb	r3, [r3, #0]
 8000ffa:	b25b      	sxtb	r3, r3
 8000ffc:	2b00      	cmp	r3, #0
 8000ffe:	da16      	bge.n	800102e <setSpeed+0x52>
 8001000:	68fb      	ldr	r3, [r7, #12]
 8001002:	3304      	adds	r3, #4
 8001004:	781b      	ldrb	r3, [r3, #0]
 8001006:	005b      	lsls	r3, r3, #1
 8001008:	f403 72c0 	and.w	r2, r3, #384	; 0x180
 800100c:	68fb      	ldr	r3, [r7, #12]
 800100e:	3301      	adds	r3, #1
 8001010:	781b      	ldrb	r3, [r3, #0]
 8001012:	f003 037f 	and.w	r3, r3, #127	; 0x7f
 8001016:	4313      	orrs	r3, r2
 8001018:	ee07 3a90 	vmov	s15, r3
 800101c:	eef8 7ae7 	vcvt.f32.s32	s15, s15
 8001020:	eeb1 7a67 	vneg.f32	s14, s15
 8001024:	eddf 6aa3 	vldr	s13, [pc, #652]	; 80012b4 <setSpeed+0x2d8>
 8001028:	eec7 7a26 	vdiv.f32	s15, s14, s13
 800102c:	e013      	b.n	8001056 <setSpeed+0x7a>
 800102e:	68fb      	ldr	r3, [r7, #12]
 8001030:	3304      	adds	r3, #4
 8001032:	781b      	ldrb	r3, [r3, #0]
 8001034:	005b      	lsls	r3, r3, #1
 8001036:	f403 72c0 	and.w	r2, r3, #384	; 0x180
 800103a:	68fb      	ldr	r3, [r7, #12]
 800103c:	3301      	adds	r3, #1
 800103e:	781b      	ldrb	r3, [r3, #0]
 8001040:	f003 037f 	and.w	r3, r3, #127	; 0x7f
 8001044:	4313      	orrs	r3, r2
 8001046:	ee07 3a90 	vmov	s15, r3
 800104a:	eeb8 7ae7 	vcvt.f32.s32	s14, s15
 800104e:	eddf 6a99 	vldr	s13, [pc, #612]	; 80012b4 <setSpeed+0x2d8>
 8001052:	eec7 7a26 	vdiv.f32	s15, s14, s13
 8001056:	4b96      	ldr	r3, [pc, #600]	; (80012b0 <setSpeed+0x2d4>)
 8001058:	edc3 7a00 	vstr	s15, [r3]
	v_vel[1] = (buffer[2] & 0x80) ? -(float)((uint16_t)(buffer[4] & 0x30) << 3 | (uint16_t)(buffer[2] & 0x7F)) / 100.0f : (float)((uint16_t)(buffer[4] & 0x30) << 3 | (uint16_t)(buffer[2] & 0x7F)) / 100.0f;
 800105c:	68fb      	ldr	r3, [r7, #12]
 800105e:	3302      	adds	r3, #2
 8001060:	781b      	ldrb	r3, [r3, #0]
 8001062:	b25b      	sxtb	r3, r3
 8001064:	2b00      	cmp	r3, #0
 8001066:	da16      	bge.n	8001096 <setSpeed+0xba>
 8001068:	68fb      	ldr	r3, [r7, #12]
 800106a:	3304      	adds	r3, #4
 800106c:	781b      	ldrb	r3, [r3, #0]
 800106e:	00db      	lsls	r3, r3, #3
 8001070:	f403 72c0 	and.w	r2, r3, #384	; 0x180
 8001074:	68fb      	ldr	r3, [r7, #12]
 8001076:	3302      	adds	r3, #2
 8001078:	781b      	ldrb	r3, [r3, #0]
 800107a:	f003 037f 	and.w	r3, r3, #127	; 0x7f
 800107e:	4313      	orrs	r3, r2
 8001080:	ee07 3a90 	vmov	s15, r3
 8001084:	eef8 7ae7 	vcvt.f32.s32	s15, s15
 8001088:	eeb1 7a67 	vneg.f32	s14, s15
 800108c:	eddf 6a89 	vldr	s13, [pc, #548]	; 80012b4 <setSpeed+0x2d8>
 8001090:	eec7 7a26 	vdiv.f32	s15, s14, s13
 8001094:	e013      	b.n	80010be <setSpeed+0xe2>
 8001096:	68fb      	ldr	r3, [r7, #12]
 8001098:	3304      	adds	r3, #4
 800109a:	781b      	ldrb	r3, [r3, #0]
 800109c:	00db      	lsls	r3, r3, #3
 800109e:	f403 72c0 	and.w	r2, r3, #384	; 0x180
 80010a2:	68fb      	ldr	r3, [r7, #12]
 80010a4:	3302      	adds	r3, #2
 80010a6:	781b      	ldrb	r3, [r3, #0]
 80010a8:	f003 037f 	and.w	r3, r3, #127	; 0x7f
 80010ac:	4313      	orrs	r3, r2
 80010ae:	ee07 3a90 	vmov	s15, r3
 80010b2:	eeb8 7ae7 	vcvt.f32.s32	s14, s15
 80010b6:	eddf 6a7f 	vldr	s13, [pc, #508]	; 80012b4 <setSpeed+0x2d8>
 80010ba:	eec7 7a26 	vdiv.f32	s15, s14, s13
 80010be:	4b7c      	ldr	r3, [pc, #496]	; (80012b0 <setSpeed+0x2d4>)
 80010c0:	edc3 7a01 	vstr	s15, [r3, #4]
	v_vel[2] = (buffer[3] & 0x80) ? -(float)((uint16_t)(buffer[4] & 0x0F) << 7 | (uint16_t)(buffer[3] & 0x7F)) / 100.0f : (float)((uint16_t)(buffer[4] & 0x0F) << 7 | (uint16_t)(buffer[3] & 0x7F)) / 100.0f;
 80010c4:	68fb      	ldr	r3, [r7, #12]
 80010c6:	3303      	adds	r3, #3
 80010c8:	781b      	ldrb	r3, [r3, #0]
 80010ca:	b25b      	sxtb	r3, r3
 80010cc:	2b00      	cmp	r3, #0
 80010ce:	da16      	bge.n	80010fe <setSpeed+0x122>
 80010d0:	68fb      	ldr	r3, [r7, #12]
 80010d2:	3304      	adds	r3, #4
 80010d4:	781b      	ldrb	r3, [r3, #0]
 80010d6:	01db      	lsls	r3, r3, #7
 80010d8:	f403 62f0 	and.w	r2, r3, #1920	; 0x780
 80010dc:	68fb      	ldr	r3, [r7, #12]
 80010de:	3303      	adds	r3, #3
 80010e0:	781b      	ldrb	r3, [r3, #0]
 80010e2:	f003 037f 	and.w	r3, r3, #127	; 0x7f
 80010e6:	4313      	orrs	r3, r2
 80010e8:	ee07 3a90 	vmov	s15, r3
 80010ec:	eef8 7ae7 	vcvt.f32.s32	s15, s15
 80010f0:	eeb1 7a67 	vneg.f32	s14, s15
 80010f4:	eddf 6a6f 	vldr	s13, [pc, #444]	; 80012b4 <setSpeed+0x2d8>
 80010f8:	eec7 7a26 	vdiv.f32	s15, s14, s13
 80010fc:	e013      	b.n	8001126 <setSpeed+0x14a>
 80010fe:	68fb      	ldr	r3, [r7, #12]
 8001100:	3304      	adds	r3, #4
 8001102:	781b      	ldrb	r3, [r3, #0]
 8001104:	01db      	lsls	r3, r3, #7
 8001106:	f403 62f0 	and.w	r2, r3, #1920	; 0x780
 800110a:	68fb      	ldr	r3, [r7, #12]
 800110c:	3303      	adds	r3, #3
 800110e:	781b      	ldrb	r3, [r3, #0]
 8001110:	f003 037f 	and.w	r3, r3, #127	; 0x7f
 8001114:	4313      	orrs	r3, r2
 8001116:	ee07 3a90 	vmov	s15, r3
 800111a:	eeb8 7ae7 	vcvt.f32.s32	s14, s15
 800111e:	eddf 6a65 	vldr	s13, [pc, #404]	; 80012b4 <setSpeed+0x2d8>
 8001122:	eec7 7a26 	vdiv.f32	s15, s14, s13
 8001126:	4b62      	ldr	r3, [pc, #392]	; (80012b0 <setSpeed+0x2d4>)
 8001128:	edc3 7a02 	vstr	s15, [r3, #8]

	/* Check if acceleration is not too high */
	float Ax = v_vel[0] - prv_Vx, Ay = v_vel[1] - prv_Vy;
 800112c:	4b60      	ldr	r3, [pc, #384]	; (80012b0 <setSpeed+0x2d4>)
 800112e:	ed93 7a00 	vldr	s14, [r3]
 8001132:	edd7 7a0a 	vldr	s15, [r7, #40]	; 0x28
 8001136:	ee77 7a67 	vsub.f32	s15, s14, s15
 800113a:	edc7 7a08 	vstr	s15, [r7, #32]
 800113e:	4b5c      	ldr	r3, [pc, #368]	; (80012b0 <setSpeed+0x2d4>)
 8001140:	ed93 7a01 	vldr	s14, [r3, #4]
 8001144:	edd7 7a09 	vldr	s15, [r7, #36]	; 0x24
 8001148:	ee77 7a67 	vsub.f32	s15, s14, s15
 800114c:	edc7 7a07 	vstr	s15, [r7, #28]
	float acc_sum = Ax * Ax + Ay * Ay;
 8001150:	edd7 7a08 	vldr	s15, [r7, #32]
 8001154:	ee27 7aa7 	vmul.f32	s14, s15, s15
 8001158:	edd7 7a07 	vldr	s15, [r7, #28]
 800115c:	ee67 7aa7 	vmul.f32	s15, s15, s15
 8001160:	ee77 7a27 	vadd.f32	s15, s14, s15
 8001164:	edc7 7a06 	vstr	s15, [r7, #24]
	acc_sum = sqrt(acc_sum);
 8001168:	edd7 7a06 	vldr	s15, [r7, #24]
 800116c:	eeb7 7ae7 	vcvt.f64.f32	d7, s15
 8001170:	eeb0 0b47 	vmov.f64	d0, d7
 8001174:	f007 fb68 	bl	8008848 <sqrt>
 8001178:	eeb0 7b40 	vmov.f64	d7, d0
 800117c:	eef7 7bc7 	vcvt.f32.f64	s15, d7
 8001180:	edc7 7a06 	vstr	s15, [r7, #24]
	
	float norm_Ax = Ax / acc_sum, norm_Ay = Ay / acc_sum;
 8001184:	edd7 6a08 	vldr	s13, [r7, #32]
 8001188:	ed97 7a06 	vldr	s14, [r7, #24]
 800118c:	eec6 7a87 	vdiv.f32	s15, s13, s14
 8001190:	edc7 7a05 	vstr	s15, [r7, #20]
 8001194:	edd7 6a07 	vldr	s13, [r7, #28]
 8001198:	ed97 7a06 	vldr	s14, [r7, #24]
 800119c:	eec6 7a87 	vdiv.f32	s15, s13, s14
 80011a0:	edc7 7a04 	vstr	s15, [r7, #16]
	
	if(acc_sum > ROBOT_MAX_LINEAR_ACC)
 80011a4:	edd7 7a06 	vldr	s15, [r7, #24]
 80011a8:	ed9f 7a43 	vldr	s14, [pc, #268]	; 80012b8 <setSpeed+0x2dc>
 80011ac:	eef4 7ac7 	vcmpe.f32	s15, s14
 80011b0:	eef1 fa10 	vmrs	APSR_nzcv, fpscr
 80011b4:	dd23      	ble.n	80011fe <setSpeed+0x222>
	{
		acc_sum = ROBOT_MAX_LINEAR_ACC;
 80011b6:	4b41      	ldr	r3, [pc, #260]	; (80012bc <setSpeed+0x2e0>)
 80011b8:	61bb      	str	r3, [r7, #24]
		Ax = norm_Ax * acc_sum;
 80011ba:	ed97 7a05 	vldr	s14, [r7, #20]
 80011be:	edd7 7a06 	vldr	s15, [r7, #24]
 80011c2:	ee67 7a27 	vmul.f32	s15, s14, s15
 80011c6:	edc7 7a08 	vstr	s15, [r7, #32]
		Ay = norm_Ay * acc_sum;
 80011ca:	ed97 7a04 	vldr	s14, [r7, #16]
 80011ce:	edd7 7a06 	vldr	s15, [r7, #24]
 80011d2:	ee67 7a27 	vmul.f32	s15, s14, s15
 80011d6:	edc7 7a07 	vstr	s15, [r7, #28]
		
		v_vel[0] = prv_Vx + Ax;
 80011da:	ed97 7a0a 	vldr	s14, [r7, #40]	; 0x28
 80011de:	edd7 7a08 	vldr	s15, [r7, #32]
 80011e2:	ee77 7a27 	vadd.f32	s15, s14, s15
 80011e6:	4b32      	ldr	r3, [pc, #200]	; (80012b0 <setSpeed+0x2d4>)
 80011e8:	edc3 7a00 	vstr	s15, [r3]
		v_vel[1] = prv_Vy + Ay;
 80011ec:	ed97 7a09 	vldr	s14, [r7, #36]	; 0x24
 80011f0:	edd7 7a07 	vldr	s15, [r7, #28]
 80011f4:	ee77 7a27 	vadd.f32	s15, s14, s15
 80011f8:	4b2d      	ldr	r3, [pc, #180]	; (80012b0 <setSpeed+0x2d4>)
 80011fa:	edc3 7a01 	vstr	s15, [r3, #4]
	}
	
	for (uint8_t i = 0; i < 4; i++)
 80011fe:	2300      	movs	r3, #0
 8001200:	f887 3037 	strb.w	r3, [r7, #55]	; 0x37
 8001204:	e04b      	b.n	800129e <setSpeed+0x2c2>
	{
		/* Temporal speed variable. Calculate each wheel speed respect to robot kinematic model */
		float t_vel = 0;
 8001206:	f04f 0300 	mov.w	r3, #0
 800120a:	633b      	str	r3, [r7, #48]	; 0x30
		for (uint8_t j = 0; j < 3; j++)
 800120c:	2300      	movs	r3, #0
 800120e:	f887 302f 	strb.w	r3, [r7, #47]	; 0x2f
 8001212:	e020      	b.n	8001256 <setSpeed+0x27a>
		{
			t_vel += kinematic[i][j] * v_vel[j];
 8001214:	f897 2037 	ldrb.w	r2, [r7, #55]	; 0x37
 8001218:	f897 102f 	ldrb.w	r1, [r7, #47]	; 0x2f
 800121c:	4828      	ldr	r0, [pc, #160]	; (80012c0 <setSpeed+0x2e4>)
 800121e:	4613      	mov	r3, r2
 8001220:	005b      	lsls	r3, r3, #1
 8001222:	4413      	add	r3, r2
 8001224:	440b      	add	r3, r1
 8001226:	009b      	lsls	r3, r3, #2
 8001228:	4403      	add	r3, r0
 800122a:	ed93 7a00 	vldr	s14, [r3]
 800122e:	f897 302f 	ldrb.w	r3, [r7, #47]	; 0x2f
 8001232:	4a1f      	ldr	r2, [pc, #124]	; (80012b0 <setSpeed+0x2d4>)
 8001234:	009b      	lsls	r3, r3, #2
 8001236:	4413      	add	r3, r2
 8001238:	edd3 7a00 	vldr	s15, [r3]
 800123c:	ee67 7a27 	vmul.f32	s15, s14, s15
 8001240:	ed97 7a0c 	vldr	s14, [r7, #48]	; 0x30
 8001244:	ee77 7a27 	vadd.f32	s15, s14, s15
 8001248:	edc7 7a0c 	vstr	s15, [r7, #48]	; 0x30
		for (uint8_t j = 0; j < 3; j++)
 800124c:	f897 302f 	ldrb.w	r3, [r7, #47]	; 0x2f
 8001250:	3301      	adds	r3, #1
 8001252:	f887 302f 	strb.w	r3, [r7, #47]	; 0x2f
 8001256:	f897 302f 	ldrb.w	r3, [r7, #47]	; 0x2f
 800125a:	2b02      	cmp	r3, #2
 800125c:	d9da      	bls.n	8001214 <setSpeed+0x238>
		}
		/* Check velocity direction */
		turn[i] = (t_vel > 0) ? WHEEL_P_ROTATION : WHEEL_N_ROTATION;
 800125e:	edd7 7a0c 	vldr	s15, [r7, #48]	; 0x30
 8001262:	eef5 7ac0 	vcmpe.f32	s15, #0.0
 8001266:	eef1 fa10 	vmrs	APSR_nzcv, fpscr
 800126a:	bfcc      	ite	gt
 800126c:	2301      	movgt	r3, #1
 800126e:	2300      	movle	r3, #0
 8001270:	b2db      	uxtb	r3, r3
 8001272:	f083 0301 	eor.w	r3, r3, #1
 8001276:	b2db      	uxtb	r3, r3
 8001278:	4619      	mov	r1, r3
 800127a:	f897 3037 	ldrb.w	r3, [r7, #55]	; 0x37
 800127e:	687a      	ldr	r2, [r7, #4]
 8001280:	4413      	add	r3, r2
 8001282:	b2ca      	uxtb	r2, r1
 8001284:	701a      	strb	r2, [r3, #0]

		/* Fill speed array. Speed in [m/s] */
		velocity[i] = t_vel;
 8001286:	f897 3037 	ldrb.w	r3, [r7, #55]	; 0x37
 800128a:	009b      	lsls	r3, r3, #2
 800128c:	68ba      	ldr	r2, [r7, #8]
 800128e:	4413      	add	r3, r2
 8001290:	6b3a      	ldr	r2, [r7, #48]	; 0x30
 8001292:	601a      	str	r2, [r3, #0]
	for (uint8_t i = 0; i < 4; i++)
 8001294:	f897 3037 	ldrb.w	r3, [r7, #55]	; 0x37
 8001298:	3301      	adds	r3, #1
 800129a:	f887 3037 	strb.w	r3, [r7, #55]	; 0x37
 800129e:	f897 3037 	ldrb.w	r3, [r7, #55]	; 0x37
 80012a2:	2b03      	cmp	r3, #3
 80012a4:	d9af      	bls.n	8001206 <setSpeed+0x22a>
	}
}
 80012a6:	bf00      	nop
 80012a8:	bf00      	nop
 80012aa:	3738      	adds	r7, #56	; 0x38
 80012ac:	46bd      	mov	sp, r7
 80012ae:	bd80      	pop	{r7, pc}
 80012b0:	200005e4 	.word	0x200005e4
 80012b4:	42c80000 	.word	0x42c80000
 80012b8:	3dcccccd 	.word	0x3dcccccd
 80012bc:	3dcccccd 	.word	0x3dcccccd
 80012c0:	20000350 	.word	0x20000350

080012c4 <getDribbler_speed>:

uint8_t getDribbler_speed(uint8_t *buffer)
{
 80012c4:	b480      	push	{r7}
 80012c6:	b085      	sub	sp, #20
 80012c8:	af00      	add	r7, sp, #0
 80012ca:	6078      	str	r0, [r7, #4]
	/* Extract info from data packet */
	uint8_t dribbler_vel = (buffer[0] & 0x1C) >> 2;
 80012cc:	687b      	ldr	r3, [r7, #4]
 80012ce:	781b      	ldrb	r3, [r3, #0]
 80012d0:	109b      	asrs	r3, r3, #2
 80012d2:	b2db      	uxtb	r3, r3
 80012d4:	f003 0307 	and.w	r3, r3, #7
 80012d8:	73fb      	strb	r3, [r7, #15]

	return dribbler_vel;
 80012da:	7bfb      	ldrb	r3, [r7, #15]
}
 80012dc:	4618      	mov	r0, r3
 80012de:	3714      	adds	r7, #20
 80012e0:	46bd      	mov	sp, r7
 80012e2:	f85d 7b04 	ldr.w	r7, [sp], #4
 80012e6:	4770      	bx	lr

080012e8 <getKickerStatus>:

uint8_t getKickerStatus(uint8_t *buffer)
{
 80012e8:	b480      	push	{r7}
 80012ea:	b085      	sub	sp, #20
 80012ec:	af00      	add	r7, sp, #0
 80012ee:	6078      	str	r0, [r7, #4]
	/* Extract info from data packet */
	uint8_t kick_stat = buffer[0] & 0x02 ? 0x01 : 0x00;
 80012f0:	687b      	ldr	r3, [r7, #4]
 80012f2:	781b      	ldrb	r3, [r3, #0]
 80012f4:	105b      	asrs	r3, r3, #1
 80012f6:	b2db      	uxtb	r3, r3
 80012f8:	f003 0301 	and.w	r3, r3, #1
 80012fc:	73fb      	strb	r3, [r7, #15]

	return kick_stat;
 80012fe:	7bfb      	ldrb	r3, [r7, #15]
}
 8001300:	4618      	mov	r0, r3
 8001302:	3714      	adds	r7, #20
 8001304:	46bd      	mov	sp, r7
 8001306:	f85d 7b04 	ldr.w	r7, [sp], #4
 800130a:	4770      	bx	lr

0800130c <BallDetectorFunction>:

uint16_t ball_range;
uint16_t ball_accum;
uint8_t ball_meas_set[10];

void BallDetectorFunction(void const * argument) {
 800130c:	b580      	push	{r7, lr}
 800130e:	b084      	sub	sp, #16
 8001310:	af00      	add	r7, sp, #0
 8001312:	6078      	str	r0, [r7, #4]
  //uint32_t timeToWait = osKernelSysTick();
  VL6180X_Init(&range_sensor, &hi2c3, VL6180X_DEFAULT_I2C_ADDR);
 8001314:	2229      	movs	r2, #41	; 0x29
 8001316:	4928      	ldr	r1, [pc, #160]	; (80013b8 <BallDetectorFunction+0xac>)
 8001318:	4828      	ldr	r0, [pc, #160]	; (80013bc <BallDetectorFunction+0xb0>)
 800131a:	f007 f924 	bl	8008566 <VL6180X_Init>
  ball_range = VL6180X_ReadRange(&range_sensor);
 800131e:	4827      	ldr	r0, [pc, #156]	; (80013bc <BallDetectorFunction+0xb0>)
 8001320:	f007 fa23 	bl	800876a <VL6180X_ReadRange>
 8001324:	4603      	mov	r3, r0
 8001326:	b29a      	uxth	r2, r3
 8001328:	4b25      	ldr	r3, [pc, #148]	; (80013c0 <BallDetectorFunction+0xb4>)
 800132a:	801a      	strh	r2, [r3, #0]
  memset(ball_meas_set, ball_range, 10);
 800132c:	4b24      	ldr	r3, [pc, #144]	; (80013c0 <BallDetectorFunction+0xb4>)
 800132e:	881b      	ldrh	r3, [r3, #0]
 8001330:	220a      	movs	r2, #10
 8001332:	4619      	mov	r1, r3
 8001334:	4823      	ldr	r0, [pc, #140]	; (80013c4 <BallDetectorFunction+0xb8>)
 8001336:	f007 fa7d 	bl	8008834 <memset>

  for (;;) {
    ball_meas_set[0] = VL6180X_ReadRange(&range_sensor);
 800133a:	4820      	ldr	r0, [pc, #128]	; (80013bc <BallDetectorFunction+0xb0>)
 800133c:	f007 fa15 	bl	800876a <VL6180X_ReadRange>
 8001340:	4603      	mov	r3, r0
 8001342:	461a      	mov	r2, r3
 8001344:	4b1f      	ldr	r3, [pc, #124]	; (80013c4 <BallDetectorFunction+0xb8>)
 8001346:	701a      	strb	r2, [r3, #0]
    ball_accum = ball_meas_set[0];
 8001348:	4b1e      	ldr	r3, [pc, #120]	; (80013c4 <BallDetectorFunction+0xb8>)
 800134a:	781b      	ldrb	r3, [r3, #0]
 800134c:	b29a      	uxth	r2, r3
 800134e:	4b1e      	ldr	r3, [pc, #120]	; (80013c8 <BallDetectorFunction+0xbc>)
 8001350:	801a      	strh	r2, [r3, #0]
    for (uint8_t i = 9; i > 0; i--) {
 8001352:	2309      	movs	r3, #9
 8001354:	73fb      	strb	r3, [r7, #15]
 8001356:	e013      	b.n	8001380 <BallDetectorFunction+0x74>
      ball_accum += ball_meas_set[i];
 8001358:	7bfb      	ldrb	r3, [r7, #15]
 800135a:	4a1a      	ldr	r2, [pc, #104]	; (80013c4 <BallDetectorFunction+0xb8>)
 800135c:	5cd3      	ldrb	r3, [r2, r3]
 800135e:	b29a      	uxth	r2, r3
 8001360:	4b19      	ldr	r3, [pc, #100]	; (80013c8 <BallDetectorFunction+0xbc>)
 8001362:	881b      	ldrh	r3, [r3, #0]
 8001364:	4413      	add	r3, r2
 8001366:	b29a      	uxth	r2, r3
 8001368:	4b17      	ldr	r3, [pc, #92]	; (80013c8 <BallDetectorFunction+0xbc>)
 800136a:	801a      	strh	r2, [r3, #0]
      ball_meas_set[i] = ball_meas_set[i - 1];
 800136c:	7bfb      	ldrb	r3, [r7, #15]
 800136e:	1e5a      	subs	r2, r3, #1
 8001370:	7bfb      	ldrb	r3, [r7, #15]
 8001372:	4914      	ldr	r1, [pc, #80]	; (80013c4 <BallDetectorFunction+0xb8>)
 8001374:	5c89      	ldrb	r1, [r1, r2]
 8001376:	4a13      	ldr	r2, [pc, #76]	; (80013c4 <BallDetectorFunction+0xb8>)
 8001378:	54d1      	strb	r1, [r2, r3]
    for (uint8_t i = 9; i > 0; i--) {
 800137a:	7bfb      	ldrb	r3, [r7, #15]
 800137c:	3b01      	subs	r3, #1
 800137e:	73fb      	strb	r3, [r7, #15]
 8001380:	7bfb      	ldrb	r3, [r7, #15]
 8001382:	2b00      	cmp	r3, #0
 8001384:	d1e8      	bne.n	8001358 <BallDetectorFunction+0x4c>
    }
    ball_range = ball_accum / 10;
 8001386:	4b10      	ldr	r3, [pc, #64]	; (80013c8 <BallDetectorFunction+0xbc>)
 8001388:	881b      	ldrh	r3, [r3, #0]
 800138a:	4a10      	ldr	r2, [pc, #64]	; (80013cc <BallDetectorFunction+0xc0>)
 800138c:	fba2 2303 	umull	r2, r3, r2, r3
 8001390:	08db      	lsrs	r3, r3, #3
 8001392:	b29a      	uxth	r2, r3
 8001394:	4b0a      	ldr	r3, [pc, #40]	; (80013c0 <BallDetectorFunction+0xb4>)
 8001396:	801a      	strh	r2, [r3, #0]
    if (ball_range < VL6180X_THRESHOLD) {
 8001398:	4b09      	ldr	r3, [pc, #36]	; (80013c0 <BallDetectorFunction+0xb4>)
 800139a:	881b      	ldrh	r3, [r3, #0]
 800139c:	2b40      	cmp	r3, #64	; 0x40
 800139e:	d803      	bhi.n	80013a8 <BallDetectorFunction+0x9c>
      ball_posession = 0x01;
 80013a0:	4b0b      	ldr	r3, [pc, #44]	; (80013d0 <BallDetectorFunction+0xc4>)
 80013a2:	2201      	movs	r2, #1
 80013a4:	701a      	strb	r2, [r3, #0]
 80013a6:	e002      	b.n	80013ae <BallDetectorFunction+0xa2>
    }
    else ball_posession = 0x00;
 80013a8:	4b09      	ldr	r3, [pc, #36]	; (80013d0 <BallDetectorFunction+0xc4>)
 80013aa:	2200      	movs	r2, #0
 80013ac:	701a      	strb	r2, [r3, #0]
    osDelay(1);
 80013ae:	2001      	movs	r0, #1
 80013b0:	f004 f90e 	bl	80055d0 <osDelay>
    ball_meas_set[0] = VL6180X_ReadRange(&range_sensor);
 80013b4:	e7c1      	b.n	800133a <BallDetectorFunction+0x2e>
 80013b6:	bf00      	nop
 80013b8:	20000138 	.word	0x20000138
 80013bc:	200005d0 	.word	0x200005d0
 80013c0:	200005f0 	.word	0x200005f0
 80013c4:	200005f4 	.word	0x200005f4
 80013c8:	200005f2 	.word	0x200005f2
 80013cc:	cccccccd 	.word	0xcccccccd
 80013d0:	200005e0 	.word	0x200005e0

080013d4 <DriveFunction>:
	* @param  argument: Not used 
	* @retval None
	*/
/* USER CODE END Header_DriveFunction */
void DriveFunction(void const * argument)
{
 80013d4:	b5b0      	push	{r4, r5, r7, lr}
 80013d6:	b098      	sub	sp, #96	; 0x60
 80013d8:	af06      	add	r7, sp, #24
 80013da:	6078      	str	r0, [r7, #4]
  /* USER CODE BEGIN 5 */
	/* Init PID sampler */
	uint32_t timeToWait = osKernelSysTick();
 80013dc:	f004 f8c1 	bl	8005562 <osKernelSysTick>
 80013e0:	4603      	mov	r3, r0
 80013e2:	643b      	str	r3, [r7, #64]	; 0x40
	/* Init robot_id */
	robot_id = Board_GetID();
 80013e4:	f006 fc1e 	bl	8007c24 <Board_GetID>
 80013e8:	4603      	mov	r3, r0
 80013ea:	461a      	mov	r2, r3
 80013ec:	4bbd      	ldr	r3, [pc, #756]	; (80016e4 <DriveFunction+0x310>)
 80013ee:	801a      	strh	r2, [r3, #0]
	
	/* Init wheels motors DAC: 2.0[V] ref */
	MAX581x_Handler_t driveDAC;
	MAX581x_Init(&driveDAC, &hi2c1, MAX581x_REF_20);
 80013f0:	f107 0334 	add.w	r3, r7, #52	; 0x34
 80013f4:	2202      	movs	r2, #2
 80013f6:	49bc      	ldr	r1, [pc, #752]	; (80016e8 <DriveFunction+0x314>)
 80013f8:	4618      	mov	r0, r3
 80013fa:	f006 fa9f 	bl	800793c <MAX581x_Init>
	MAX581x_Code(&driveDAC, MAX581x_OUTPUT_A, 0.0);
 80013fe:	f107 0334 	add.w	r3, r7, #52	; 0x34
 8001402:	2200      	movs	r2, #0
 8001404:	2100      	movs	r1, #0
 8001406:	4618      	mov	r0, r3
 8001408:	f006 fae7 	bl	80079da <MAX581x_Code>
	MAX581x_Code(&driveDAC, MAX581x_OUTPUT_B, 0.0);
 800140c:	f107 0334 	add.w	r3, r7, #52	; 0x34
 8001410:	2200      	movs	r2, #0
 8001412:	2101      	movs	r1, #1
 8001414:	4618      	mov	r0, r3
 8001416:	f006 fae0 	bl	80079da <MAX581x_Code>
	MAX581x_Code(&driveDAC, MAX581x_OUTPUT_C, 0.0);
 800141a:	f107 0334 	add.w	r3, r7, #52	; 0x34
 800141e:	2200      	movs	r2, #0
 8001420:	2102      	movs	r1, #2
 8001422:	4618      	mov	r0, r3
 8001424:	f006 fad9 	bl	80079da <MAX581x_Code>
	MAX581x_Code(&driveDAC, MAX581x_OUTPUT_D, 0.0);
 8001428:	f107 0334 	add.w	r3, r7, #52	; 0x34
 800142c:	2200      	movs	r2, #0
 800142e:	2103      	movs	r1, #3
 8001430:	4618      	mov	r0, r3
 8001432:	f006 fad2 	bl	80079da <MAX581x_Code>
	
	/* Init dribbler motor DAC: 2.0[V] ref */
	MAX581x_Handler_t dribblerDAC;
	MAX581x_Init(&dribblerDAC, &hi2c2, MAX581x_REF_20);
 8001436:	f107 0328 	add.w	r3, r7, #40	; 0x28
 800143a:	2202      	movs	r2, #2
 800143c:	49ab      	ldr	r1, [pc, #684]	; (80016ec <DriveFunction+0x318>)
 800143e:	4618      	mov	r0, r3
 8001440:	f006 fa7c 	bl	800793c <MAX581x_Init>
	MAX581x_Code(&dribblerDAC, MAX581x_OUTPUT_A, 0.0);
 8001444:	f107 0328 	add.w	r3, r7, #40	; 0x28
 8001448:	2200      	movs	r2, #0
 800144a:	2100      	movs	r1, #0
 800144c:	4618      	mov	r0, r3
 800144e:	f006 fac4 	bl	80079da <MAX581x_Code>
	HAL_GPIO_WritePin(GPIOJ, GPIO_PIN_8, GPIO_PIN_SET);
 8001452:	2201      	movs	r2, #1
 8001454:	f44f 7180 	mov.w	r1, #256	; 0x100
 8001458:	48a5      	ldr	r0, [pc, #660]	; (80016f0 <DriveFunction+0x31c>)
 800145a:	f001 f8db 	bl	8002614 <HAL_GPIO_WritePin>
	HAL_GPIO_WritePin(GPIOJ, GPIO_PIN_7, GPIO_PIN_RESET);
 800145e:	2200      	movs	r2, #0
 8001460:	2180      	movs	r1, #128	; 0x80
 8001462:	48a3      	ldr	r0, [pc, #652]	; (80016f0 <DriveFunction+0x31c>)
 8001464:	f001 f8d6 	bl	8002614 <HAL_GPIO_WritePin>
	HAL_GPIO_WritePin(GPIOJ, GPIO_PIN_6, GPIO_PIN_SET);
 8001468:	2201      	movs	r2, #1
 800146a:	2140      	movs	r1, #64	; 0x40
 800146c:	48a0      	ldr	r0, [pc, #640]	; (80016f0 <DriveFunction+0x31c>)
 800146e:	f001 f8d1 	bl	8002614 <HAL_GPIO_WritePin>
	
	/* Config motors GPIO and TIM */
	/* Motor 1 */
	motor[0].enablePin.GPIOx = GPIOA;
 8001472:	4ba0      	ldr	r3, [pc, #640]	; (80016f4 <DriveFunction+0x320>)
 8001474:	4aa0      	ldr	r2, [pc, #640]	; (80016f8 <DriveFunction+0x324>)
 8001476:	655a      	str	r2, [r3, #84]	; 0x54
	motor[0].enablePin.GPIO_Pin = GPIO_PIN_10;
 8001478:	4b9e      	ldr	r3, [pc, #632]	; (80016f4 <DriveFunction+0x320>)
 800147a:	f44f 6280 	mov.w	r2, #1024	; 0x400
 800147e:	f8a3 2058 	strh.w	r2, [r3, #88]	; 0x58
	motor[0].dirPin.GPIOx = GPIOA;
 8001482:	4b9c      	ldr	r3, [pc, #624]	; (80016f4 <DriveFunction+0x320>)
 8001484:	4a9c      	ldr	r2, [pc, #624]	; (80016f8 <DriveFunction+0x324>)
 8001486:	65da      	str	r2, [r3, #92]	; 0x5c
	motor[0].dirPin.GPIO_Pin = GPIO_PIN_9;
 8001488:	4b9a      	ldr	r3, [pc, #616]	; (80016f4 <DriveFunction+0x320>)
 800148a:	f44f 7200 	mov.w	r2, #512	; 0x200
 800148e:	f8a3 2060 	strh.w	r2, [r3, #96]	; 0x60
	motor[0].brakePin.GPIOx = GPIOA;
 8001492:	4b98      	ldr	r3, [pc, #608]	; (80016f4 <DriveFunction+0x320>)
 8001494:	4a98      	ldr	r2, [pc, #608]	; (80016f8 <DriveFunction+0x324>)
 8001496:	665a      	str	r2, [r3, #100]	; 0x64
	motor[0].brakePin.GPIO_Pin = GPIO_PIN_8;
 8001498:	4b96      	ldr	r3, [pc, #600]	; (80016f4 <DriveFunction+0x320>)
 800149a:	f44f 7280 	mov.w	r2, #256	; 0x100
 800149e:	f8a3 2068 	strh.w	r2, [r3, #104]	; 0x68
	
	motor[0].encoder.count = &TIM3->CNT;
 80014a2:	4b94      	ldr	r3, [pc, #592]	; (80016f4 <DriveFunction+0x320>)
 80014a4:	4a95      	ldr	r2, [pc, #596]	; (80016fc <DriveFunction+0x328>)
 80014a6:	641a      	str	r2, [r3, #64]	; 0x40
	motor[0].encoder.oldPos = TIM3->CNT / ENCODER_CPR;
 80014a8:	4b95      	ldr	r3, [pc, #596]	; (8001700 <DriveFunction+0x32c>)
 80014aa:	6a5b      	ldr	r3, [r3, #36]	; 0x24
 80014ac:	ee07 3a90 	vmov	s15, r3
 80014b0:	eeb8 7a67 	vcvt.f32.u32	s14, s15
 80014b4:	eef1 6a00 	vmov.f32	s13, #16	; 0x40800000  4.0
 80014b8:	eec7 7a26 	vdiv.f32	s15, s14, s13
 80014bc:	ed9f 7a91 	vldr	s14, [pc, #580]	; 8001704 <DriveFunction+0x330>
 80014c0:	ee67 7a87 	vmul.f32	s15, s15, s14
 80014c4:	4b8b      	ldr	r3, [pc, #556]	; (80016f4 <DriveFunction+0x320>)
 80014c6:	edc3 7a11 	vstr	s15, [r3, #68]	; 0x44
	motor[0].encoder.enable = ENCODER_STATUS_ENABLE;
 80014ca:	4b8a      	ldr	r3, [pc, #552]	; (80016f4 <DriveFunction+0x320>)
 80014cc:	2201      	movs	r2, #1
 80014ce:	f883 2050 	strb.w	r2, [r3, #80]	; 0x50
	motor[0].encoder.minSpeed = WHEEL_MAX_SPEED_RAD * 0.01f;
 80014d2:	4b88      	ldr	r3, [pc, #544]	; (80016f4 <DriveFunction+0x320>)
 80014d4:	4a8c      	ldr	r2, [pc, #560]	; (8001708 <DriveFunction+0x334>)
 80014d6:	64da      	str	r2, [r3, #76]	; 0x4c
	TIM3->CR1 = TIM_CR1_CEN;
 80014d8:	4b89      	ldr	r3, [pc, #548]	; (8001700 <DriveFunction+0x32c>)
 80014da:	2201      	movs	r2, #1
 80014dc:	601a      	str	r2, [r3, #0]
	
	/* Motor 2 */
	motor[1].enablePin.GPIOx = GPIOC;
 80014de:	4b85      	ldr	r3, [pc, #532]	; (80016f4 <DriveFunction+0x320>)
 80014e0:	4a8a      	ldr	r2, [pc, #552]	; (800170c <DriveFunction+0x338>)
 80014e2:	f8c3 20d0 	str.w	r2, [r3, #208]	; 0xd0
	motor[1].enablePin.GPIO_Pin = GPIO_PIN_11;
 80014e6:	4b83      	ldr	r3, [pc, #524]	; (80016f4 <DriveFunction+0x320>)
 80014e8:	f44f 6200 	mov.w	r2, #2048	; 0x800
 80014ec:	f8a3 20d4 	strh.w	r2, [r3, #212]	; 0xd4
	motor[1].dirPin.GPIOx = GPIOC;
 80014f0:	4b80      	ldr	r3, [pc, #512]	; (80016f4 <DriveFunction+0x320>)
 80014f2:	4a86      	ldr	r2, [pc, #536]	; (800170c <DriveFunction+0x338>)
 80014f4:	f8c3 20d8 	str.w	r2, [r3, #216]	; 0xd8
	motor[1].dirPin.GPIO_Pin = GPIO_PIN_12;
 80014f8:	4b7e      	ldr	r3, [pc, #504]	; (80016f4 <DriveFunction+0x320>)
 80014fa:	f44f 5280 	mov.w	r2, #4096	; 0x1000
 80014fe:	f8a3 20dc 	strh.w	r2, [r3, #220]	; 0xdc
	motor[1].brakePin.GPIOx = GPIOD;
 8001502:	4b7c      	ldr	r3, [pc, #496]	; (80016f4 <DriveFunction+0x320>)
 8001504:	4a82      	ldr	r2, [pc, #520]	; (8001710 <DriveFunction+0x33c>)
 8001506:	f8c3 20e0 	str.w	r2, [r3, #224]	; 0xe0
	motor[1].brakePin.GPIO_Pin = GPIO_PIN_0;
 800150a:	4b7a      	ldr	r3, [pc, #488]	; (80016f4 <DriveFunction+0x320>)
 800150c:	2201      	movs	r2, #1
 800150e:	f8a3 20e4 	strh.w	r2, [r3, #228]	; 0xe4
	
	motor[1].encoder.count = &TIM8->CNT;
 8001512:	4b78      	ldr	r3, [pc, #480]	; (80016f4 <DriveFunction+0x320>)
 8001514:	4a7f      	ldr	r2, [pc, #508]	; (8001714 <DriveFunction+0x340>)
 8001516:	f8c3 20bc 	str.w	r2, [r3, #188]	; 0xbc
	motor[1].encoder.oldPos = TIM8->CNT / ENCODER_CPR;
 800151a:	4b7f      	ldr	r3, [pc, #508]	; (8001718 <DriveFunction+0x344>)
 800151c:	6a5b      	ldr	r3, [r3, #36]	; 0x24
 800151e:	ee07 3a90 	vmov	s15, r3
 8001522:	eeb8 7a67 	vcvt.f32.u32	s14, s15
 8001526:	eef1 6a00 	vmov.f32	s13, #16	; 0x40800000  4.0
 800152a:	eec7 7a26 	vdiv.f32	s15, s14, s13
 800152e:	ed9f 7a75 	vldr	s14, [pc, #468]	; 8001704 <DriveFunction+0x330>
 8001532:	ee67 7a87 	vmul.f32	s15, s15, s14
 8001536:	4b6f      	ldr	r3, [pc, #444]	; (80016f4 <DriveFunction+0x320>)
 8001538:	edc3 7a30 	vstr	s15, [r3, #192]	; 0xc0
	motor[1].encoder.enable = ENCODER_STATUS_ENABLE;
 800153c:	4b6d      	ldr	r3, [pc, #436]	; (80016f4 <DriveFunction+0x320>)
 800153e:	2201      	movs	r2, #1
 8001540:	f883 20cc 	strb.w	r2, [r3, #204]	; 0xcc
	motor[1].encoder.minSpeed = WHEEL_MAX_SPEED_RAD * 0.01f;
 8001544:	4b6b      	ldr	r3, [pc, #428]	; (80016f4 <DriveFunction+0x320>)
 8001546:	4a70      	ldr	r2, [pc, #448]	; (8001708 <DriveFunction+0x334>)
 8001548:	f8c3 20c8 	str.w	r2, [r3, #200]	; 0xc8
	TIM8->CR1 = TIM_CR1_CEN;
 800154c:	4b72      	ldr	r3, [pc, #456]	; (8001718 <DriveFunction+0x344>)
 800154e:	2201      	movs	r2, #1
 8001550:	601a      	str	r2, [r3, #0]
	
	/* Motor 3 */
	motor[2].enablePin.GPIOx = GPIOK;
 8001552:	4b68      	ldr	r3, [pc, #416]	; (80016f4 <DriveFunction+0x320>)
 8001554:	4a71      	ldr	r2, [pc, #452]	; (800171c <DriveFunction+0x348>)
 8001556:	f8c3 214c 	str.w	r2, [r3, #332]	; 0x14c
	motor[2].enablePin.GPIO_Pin = GPIO_PIN_7;
 800155a:	4b66      	ldr	r3, [pc, #408]	; (80016f4 <DriveFunction+0x320>)
 800155c:	2280      	movs	r2, #128	; 0x80
 800155e:	f8a3 2150 	strh.w	r2, [r3, #336]	; 0x150
	motor[2].dirPin.GPIOx = GPIOG;
 8001562:	4b64      	ldr	r3, [pc, #400]	; (80016f4 <DriveFunction+0x320>)
 8001564:	4a6e      	ldr	r2, [pc, #440]	; (8001720 <DriveFunction+0x34c>)
 8001566:	f8c3 2154 	str.w	r2, [r3, #340]	; 0x154
	motor[2].dirPin.GPIO_Pin = GPIO_PIN_15;
 800156a:	4b62      	ldr	r3, [pc, #392]	; (80016f4 <DriveFunction+0x320>)
 800156c:	f44f 4200 	mov.w	r2, #32768	; 0x8000
 8001570:	f8a3 2158 	strh.w	r2, [r3, #344]	; 0x158
	motor[2].brakePin.GPIOx = GPIOK;
 8001574:	4b5f      	ldr	r3, [pc, #380]	; (80016f4 <DriveFunction+0x320>)
 8001576:	4a69      	ldr	r2, [pc, #420]	; (800171c <DriveFunction+0x348>)
 8001578:	f8c3 215c 	str.w	r2, [r3, #348]	; 0x15c
	motor[2].brakePin.GPIO_Pin = GPIO_PIN_6;
 800157c:	4b5d      	ldr	r3, [pc, #372]	; (80016f4 <DriveFunction+0x320>)
 800157e:	2240      	movs	r2, #64	; 0x40
 8001580:	f8a3 2160 	strh.w	r2, [r3, #352]	; 0x160
	
	motor[2].encoder.count = &TIM2->CNT;
 8001584:	4b5b      	ldr	r3, [pc, #364]	; (80016f4 <DriveFunction+0x320>)
 8001586:	4a67      	ldr	r2, [pc, #412]	; (8001724 <DriveFunction+0x350>)
 8001588:	f8c3 2138 	str.w	r2, [r3, #312]	; 0x138
	motor[2].encoder.oldPos = TIM2->CNT / ENCODER_CPR;
 800158c:	f04f 4380 	mov.w	r3, #1073741824	; 0x40000000
 8001590:	6a5b      	ldr	r3, [r3, #36]	; 0x24
 8001592:	ee07 3a90 	vmov	s15, r3
 8001596:	eeb8 7a67 	vcvt.f32.u32	s14, s15
 800159a:	eef1 6a00 	vmov.f32	s13, #16	; 0x40800000  4.0
 800159e:	eec7 7a26 	vdiv.f32	s15, s14, s13
 80015a2:	ed9f 7a58 	vldr	s14, [pc, #352]	; 8001704 <DriveFunction+0x330>
 80015a6:	ee67 7a87 	vmul.f32	s15, s15, s14
 80015aa:	4b52      	ldr	r3, [pc, #328]	; (80016f4 <DriveFunction+0x320>)
 80015ac:	edc3 7a4f 	vstr	s15, [r3, #316]	; 0x13c
	motor[2].encoder.enable = ENCODER_STATUS_ENABLE;
 80015b0:	4b50      	ldr	r3, [pc, #320]	; (80016f4 <DriveFunction+0x320>)
 80015b2:	2201      	movs	r2, #1
 80015b4:	f883 2148 	strb.w	r2, [r3, #328]	; 0x148
	motor[2].encoder.minSpeed = WHEEL_MAX_SPEED_RAD * 0.01f;
 80015b8:	4b4e      	ldr	r3, [pc, #312]	; (80016f4 <DriveFunction+0x320>)
 80015ba:	4a53      	ldr	r2, [pc, #332]	; (8001708 <DriveFunction+0x334>)
 80015bc:	f8c3 2144 	str.w	r2, [r3, #324]	; 0x144
	TIM2->CR1 = TIM_CR1_CEN;
 80015c0:	f04f 4380 	mov.w	r3, #1073741824	; 0x40000000
 80015c4:	2201      	movs	r2, #1
 80015c6:	601a      	str	r2, [r3, #0]
	
	/* Motor 4 */
	motor[3].enablePin.GPIOx = GPIOF;
 80015c8:	4b4a      	ldr	r3, [pc, #296]	; (80016f4 <DriveFunction+0x320>)
 80015ca:	4a57      	ldr	r2, [pc, #348]	; (8001728 <DriveFunction+0x354>)
 80015cc:	f8c3 21c8 	str.w	r2, [r3, #456]	; 0x1c8
	motor[3].enablePin.GPIO_Pin = GPIO_PIN_5;
 80015d0:	4b48      	ldr	r3, [pc, #288]	; (80016f4 <DriveFunction+0x320>)
 80015d2:	2220      	movs	r2, #32
 80015d4:	f8a3 21cc 	strh.w	r2, [r3, #460]	; 0x1cc
	motor[3].dirPin.GPIOx = GPIOF;
 80015d8:	4b46      	ldr	r3, [pc, #280]	; (80016f4 <DriveFunction+0x320>)
 80015da:	4a53      	ldr	r2, [pc, #332]	; (8001728 <DriveFunction+0x354>)
 80015dc:	f8c3 21d0 	str.w	r2, [r3, #464]	; 0x1d0
	motor[3].dirPin.GPIO_Pin = GPIO_PIN_3;
 80015e0:	4b44      	ldr	r3, [pc, #272]	; (80016f4 <DriveFunction+0x320>)
 80015e2:	2208      	movs	r2, #8
 80015e4:	f8a3 21d4 	strh.w	r2, [r3, #468]	; 0x1d4
	motor[3].brakePin.GPIOx = GPIOF;
 80015e8:	4b42      	ldr	r3, [pc, #264]	; (80016f4 <DriveFunction+0x320>)
 80015ea:	4a4f      	ldr	r2, [pc, #316]	; (8001728 <DriveFunction+0x354>)
 80015ec:	f8c3 21d8 	str.w	r2, [r3, #472]	; 0x1d8
	motor[3].brakePin.GPIO_Pin = GPIO_PIN_4;
 80015f0:	4b40      	ldr	r3, [pc, #256]	; (80016f4 <DriveFunction+0x320>)
 80015f2:	2210      	movs	r2, #16
 80015f4:	f8a3 21dc 	strh.w	r2, [r3, #476]	; 0x1dc

	motor[3].encoder.count = &TIM5->CNT;
 80015f8:	4b3e      	ldr	r3, [pc, #248]	; (80016f4 <DriveFunction+0x320>)
 80015fa:	4a4c      	ldr	r2, [pc, #304]	; (800172c <DriveFunction+0x358>)
 80015fc:	f8c3 21b4 	str.w	r2, [r3, #436]	; 0x1b4
	motor[3].encoder.oldPos = TIM5->CNT / ENCODER_CPR;
 8001600:	4b4b      	ldr	r3, [pc, #300]	; (8001730 <DriveFunction+0x35c>)
 8001602:	6a5b      	ldr	r3, [r3, #36]	; 0x24
 8001604:	ee07 3a90 	vmov	s15, r3
 8001608:	eeb8 7a67 	vcvt.f32.u32	s14, s15
 800160c:	eef1 6a00 	vmov.f32	s13, #16	; 0x40800000  4.0
 8001610:	eec7 7a26 	vdiv.f32	s15, s14, s13
 8001614:	ed9f 7a3b 	vldr	s14, [pc, #236]	; 8001704 <DriveFunction+0x330>
 8001618:	ee67 7a87 	vmul.f32	s15, s15, s14
 800161c:	4b35      	ldr	r3, [pc, #212]	; (80016f4 <DriveFunction+0x320>)
 800161e:	edc3 7a6e 	vstr	s15, [r3, #440]	; 0x1b8
	motor[3].encoder.enable = ENCODER_STATUS_ENABLE;
 8001622:	4b34      	ldr	r3, [pc, #208]	; (80016f4 <DriveFunction+0x320>)
 8001624:	2201      	movs	r2, #1
 8001626:	f883 21c4 	strb.w	r2, [r3, #452]	; 0x1c4
	motor[3].encoder.minSpeed = WHEEL_MAX_SPEED_RAD * 0.01f;
 800162a:	4b32      	ldr	r3, [pc, #200]	; (80016f4 <DriveFunction+0x320>)
 800162c:	4a36      	ldr	r2, [pc, #216]	; (8001708 <DriveFunction+0x334>)
 800162e:	f8c3 21c0 	str.w	r2, [r3, #448]	; 0x1c0
	TIM5->CR1 = TIM_CR1_CEN;
 8001632:	4b3f      	ldr	r3, [pc, #252]	; (8001730 <DriveFunction+0x35c>)
 8001634:	2201      	movs	r2, #1
 8001636:	601a      	str	r2, [r3, #0]
	
	/* Config PID */
	PID_Params_t pidParams;
	pidParams.Kp = 12.0f;
 8001638:	4b3e      	ldr	r3, [pc, #248]	; (8001734 <DriveFunction+0x360>)
 800163a:	60fb      	str	r3, [r7, #12]
	pidParams.Ki = 4.5f;
 800163c:	4b3e      	ldr	r3, [pc, #248]	; (8001738 <DriveFunction+0x364>)
 800163e:	613b      	str	r3, [r7, #16]
	pidParams.Kd = 0.0f;
 8001640:	f04f 0300 	mov.w	r3, #0
 8001644:	617b      	str	r3, [r7, #20]
	pidParams.outputMax = (float)(/*WHEEL_MAX_SPEED_RAD * 10.0f*/ 4095.0f);
 8001646:	4b3d      	ldr	r3, [pc, #244]	; (800173c <DriveFunction+0x368>)
 8001648:	61bb      	str	r3, [r7, #24]
	pidParams.outputMin = (float)(/*-WHEEL_MAX_SPEED_RAD * 10.0f*/ -4095.0f);
 800164a:	4b3d      	ldr	r3, [pc, #244]	; (8001740 <DriveFunction+0x36c>)
 800164c:	61fb      	str	r3, [r7, #28]
	pidParams.integralMax = pidParams.outputMax / 5.0f;
 800164e:	ed97 7a06 	vldr	s14, [r7, #24]
 8001652:	eef1 6a04 	vmov.f32	s13, #20	; 0x40a00000  5.0
 8001656:	eec7 7a26 	vdiv.f32	s15, s14, s13
 800165a:	edc7 7a08 	vstr	s15, [r7, #32]
	pidParams.sampleTime = PID_SAMPLE_TIME / 1000.0f;
 800165e:	4b39      	ldr	r3, [pc, #228]	; (8001744 <DriveFunction+0x370>)
 8001660:	627b      	str	r3, [r7, #36]	; 0x24

	/* Enable motors and disable brake */
	for (uint8_t i = 0; i < 4; i++)
 8001662:	2300      	movs	r3, #0
 8001664:	f887 3047 	strb.w	r3, [r7, #71]	; 0x47
 8001668:	e034      	b.n	80016d4 <DriveFunction+0x300>
	{
		Motor_Init(&motor[i], i, MOTOR_STATUS_ENABLE);
 800166a:	f897 2047 	ldrb.w	r2, [r7, #71]	; 0x47
 800166e:	4613      	mov	r3, r2
 8001670:	015b      	lsls	r3, r3, #5
 8001672:	1a9b      	subs	r3, r3, r2
 8001674:	009b      	lsls	r3, r3, #2
 8001676:	4a1f      	ldr	r2, [pc, #124]	; (80016f4 <DriveFunction+0x320>)
 8001678:	4413      	add	r3, r2
 800167a:	f897 1047 	ldrb.w	r1, [r7, #71]	; 0x47
 800167e:	2201      	movs	r2, #1
 8001680:	4618      	mov	r0, r3
 8001682:	f006 fb71 	bl	8007d68 <Motor_Init>
		Motor_SetBrake(&motor[i], MOTOR_BRAKE_DISABLE);
 8001686:	f897 2047 	ldrb.w	r2, [r7, #71]	; 0x47
 800168a:	4613      	mov	r3, r2
 800168c:	015b      	lsls	r3, r3, #5
 800168e:	1a9b      	subs	r3, r3, r2
 8001690:	009b      	lsls	r3, r3, #2
 8001692:	4a18      	ldr	r2, [pc, #96]	; (80016f4 <DriveFunction+0x320>)
 8001694:	4413      	add	r3, r2
 8001696:	2100      	movs	r1, #0
 8001698:	4618      	mov	r0, r3
 800169a:	f006 fc09 	bl	8007eb0 <Motor_SetBrake>
		PID_Init(&motor[i].pid, pidParams, PID_STATUS_ENABLE);
 800169e:	f897 2047 	ldrb.w	r2, [r7, #71]	; 0x47
 80016a2:	4613      	mov	r3, r2
 80016a4:	015b      	lsls	r3, r3, #5
 80016a6:	1a9b      	subs	r3, r3, r2
 80016a8:	009b      	lsls	r3, r3, #2
 80016aa:	4a12      	ldr	r2, [pc, #72]	; (80016f4 <DriveFunction+0x320>)
 80016ac:	189d      	adds	r5, r3, r2
 80016ae:	2301      	movs	r3, #1
 80016b0:	9304      	str	r3, [sp, #16]
 80016b2:	466c      	mov	r4, sp
 80016b4:	f107 0318 	add.w	r3, r7, #24
 80016b8:	cb0f      	ldmia	r3, {r0, r1, r2, r3}
 80016ba:	e884 000f 	stmia.w	r4, {r0, r1, r2, r3}
 80016be:	f107 030c 	add.w	r3, r7, #12
 80016c2:	cb0e      	ldmia	r3, {r1, r2, r3}
 80016c4:	4628      	mov	r0, r5
 80016c6:	f006 f9cb 	bl	8007a60 <PID_Init>
	for (uint8_t i = 0; i < 4; i++)
 80016ca:	f897 3047 	ldrb.w	r3, [r7, #71]	; 0x47
 80016ce:	3301      	adds	r3, #1
 80016d0:	f887 3047 	strb.w	r3, [r7, #71]	; 0x47
 80016d4:	f897 3047 	ldrb.w	r3, [r7, #71]	; 0x47
 80016d8:	2b03      	cmp	r3, #3
 80016da:	d9c6      	bls.n	800166a <DriveFunction+0x296>

	//Motor_Enable(&motor[0], MOTOR_STATUS_ENABLE);
	/* Infinite loop */
	for(;;)
	{						
		for (uint8_t i = 0; i < 4; i++)
 80016dc:	2300      	movs	r3, #0
 80016de:	f887 3046 	strb.w	r3, [r7, #70]	; 0x46
 80016e2:	e059      	b.n	8001798 <DriveFunction+0x3c4>
 80016e4:	20000570 	.word	0x20000570
 80016e8:	20000090 	.word	0x20000090
 80016ec:	200000e4 	.word	0x200000e4
 80016f0:	40022400 	.word	0x40022400
 80016f4:	20000380 	.word	0x20000380
 80016f8:	40020000 	.word	0x40020000
 80016fc:	40000424 	.word	0x40000424
 8001700:	40000400 	.word	0x40000400
 8001704:	45000000 	.word	0x45000000
 8001708:	3f714639 	.word	0x3f714639
 800170c:	40020800 	.word	0x40020800
 8001710:	40020c00 	.word	0x40020c00
 8001714:	40010424 	.word	0x40010424
 8001718:	40010400 	.word	0x40010400
 800171c:	40022800 	.word	0x40022800
 8001720:	40021800 	.word	0x40021800
 8001724:	40000024 	.word	0x40000024
 8001728:	40021400 	.word	0x40021400
 800172c:	40000c24 	.word	0x40000c24
 8001730:	40000c00 	.word	0x40000c00
 8001734:	41400000 	.word	0x41400000
 8001738:	40900000 	.word	0x40900000
 800173c:	457ff000 	.word	0x457ff000
 8001740:	c57ff000 	.word	0xc57ff000
 8001744:	3a83126f 	.word	0x3a83126f
		{
			/* Execute open loop (Motor_OLDrive) or closed loop (Motor_CLDrive) routine */
			Motor_CLDrive(&motor[i], &driveDAC, speed[i]);
 8001748:	f897 2046 	ldrb.w	r2, [r7, #70]	; 0x46
 800174c:	4613      	mov	r3, r2
 800174e:	015b      	lsls	r3, r3, #5
 8001750:	1a9b      	subs	r3, r3, r2
 8001752:	009b      	lsls	r3, r3, #2
 8001754:	4a23      	ldr	r2, [pc, #140]	; (80017e4 <DriveFunction+0x410>)
 8001756:	441a      	add	r2, r3
 8001758:	f897 3046 	ldrb.w	r3, [r7, #70]	; 0x46
 800175c:	4922      	ldr	r1, [pc, #136]	; (80017e8 <DriveFunction+0x414>)
 800175e:	009b      	lsls	r3, r3, #2
 8001760:	440b      	add	r3, r1
 8001762:	edd3 7a00 	vldr	s15, [r3]
 8001766:	f107 0334 	add.w	r3, r7, #52	; 0x34
 800176a:	eeb0 0a67 	vmov.f32	s0, s15
 800176e:	4619      	mov	r1, r3
 8001770:	4610      	mov	r0, r2
 8001772:	f006 fb1b 	bl	8007dac <Motor_CLDrive>
			
			/* TODO: make dribbler files, variable speeds */
			MAX581x_Code(&dribblerDAC, MAX581x_OUTPUT_A, Dribbler_SpeedSet[dribbler_sel]);
 8001776:	4b1d      	ldr	r3, [pc, #116]	; (80017ec <DriveFunction+0x418>)
 8001778:	781b      	ldrb	r3, [r3, #0]
 800177a:	461a      	mov	r2, r3
 800177c:	4b1c      	ldr	r3, [pc, #112]	; (80017f0 <DriveFunction+0x41c>)
 800177e:	f833 2012 	ldrh.w	r2, [r3, r2, lsl #1]
 8001782:	f107 0328 	add.w	r3, r7, #40	; 0x28
 8001786:	2100      	movs	r1, #0
 8001788:	4618      	mov	r0, r3
 800178a:	f006 f926 	bl	80079da <MAX581x_Code>
		for (uint8_t i = 0; i < 4; i++)
 800178e:	f897 3046 	ldrb.w	r3, [r7, #70]	; 0x46
 8001792:	3301      	adds	r3, #1
 8001794:	f887 3046 	strb.w	r3, [r7, #70]	; 0x46
 8001798:	f897 3046 	ldrb.w	r3, [r7, #70]	; 0x46
 800179c:	2b03      	cmp	r3, #3
 800179e:	d9d3      	bls.n	8001748 <DriveFunction+0x374>
		}

    if(ball_posession && kick_sel && kick_flag) {
 80017a0:	4b14      	ldr	r3, [pc, #80]	; (80017f4 <DriveFunction+0x420>)
 80017a2:	781b      	ldrb	r3, [r3, #0]
 80017a4:	2b00      	cmp	r3, #0
 80017a6:	d00e      	beq.n	80017c6 <DriveFunction+0x3f2>
 80017a8:	4b13      	ldr	r3, [pc, #76]	; (80017f8 <DriveFunction+0x424>)
 80017aa:	781b      	ldrb	r3, [r3, #0]
 80017ac:	2b00      	cmp	r3, #0
 80017ae:	d00a      	beq.n	80017c6 <DriveFunction+0x3f2>
 80017b0:	4b12      	ldr	r3, [pc, #72]	; (80017fc <DriveFunction+0x428>)
 80017b2:	781b      	ldrb	r3, [r3, #0]
 80017b4:	2b00      	cmp	r3, #0
 80017b6:	d006      	beq.n	80017c6 <DriveFunction+0x3f2>
      osMessagePut(kickQueueHandle, 0, 0);
 80017b8:	4b11      	ldr	r3, [pc, #68]	; (8001800 <DriveFunction+0x42c>)
 80017ba:	681b      	ldr	r3, [r3, #0]
 80017bc:	2200      	movs	r2, #0
 80017be:	2100      	movs	r1, #0
 80017c0:	4618      	mov	r0, r3
 80017c2:	f003 ff2b 	bl	800561c <osMessagePut>
    }   
		
		osMessagePut(nrf24CheckHandle, 0, 0);
 80017c6:	4b0f      	ldr	r3, [pc, #60]	; (8001804 <DriveFunction+0x430>)
 80017c8:	681b      	ldr	r3, [r3, #0]
 80017ca:	2200      	movs	r2, #0
 80017cc:	2100      	movs	r1, #0
 80017ce:	4618      	mov	r0, r3
 80017d0:	f003 ff24 	bl	800561c <osMessagePut>
		osDelayUntil(&timeToWait, (uint32_t)PID_SAMPLE_TIME);
 80017d4:	f107 0340 	add.w	r3, r7, #64	; 0x40
 80017d8:	2101      	movs	r1, #1
 80017da:	4618      	mov	r0, r3
 80017dc:	f003 ffd2 	bl	8005784 <osDelayUntil>
		for (uint8_t i = 0; i < 4; i++)
 80017e0:	e77c      	b.n	80016dc <DriveFunction+0x308>
 80017e2:	bf00      	nop
 80017e4:	20000380 	.word	0x20000380
 80017e8:	20000340 	.word	0x20000340
 80017ec:	20000572 	.word	0x20000572
 80017f0:	08008940 	.word	0x08008940
 80017f4:	200005e0 	.word	0x200005e0
 80017f8:	20000573 	.word	0x20000573
 80017fc:	20000574 	.word	0x20000574
 8001800:	2000032c 	.word	0x2000032c
 8001804:	20000334 	.word	0x20000334

08001808 <RadioFunction>:
* @retval None
*/

/* USER CODE END Header_RadioFunction */
void RadioFunction(void const * argument)
{
 8001808:	b580      	push	{r7, lr}
 800180a:	b088      	sub	sp, #32
 800180c:	af02      	add	r7, sp, #8
 800180e:	6178      	str	r0, [r7, #20]
  /* USER CODE BEGIN RadioFunction */
  nRF24_HW_Init(&nrf_device, &hspi1, GPIOG, GPIO_PIN_10, GPIOG, GPIO_PIN_9);
 8001810:	f44f 7300 	mov.w	r3, #512	; 0x200
 8001814:	9301      	str	r3, [sp, #4]
 8001816:	4b3b      	ldr	r3, [pc, #236]	; (8001904 <RadioFunction+0xfc>)
 8001818:	9300      	str	r3, [sp, #0]
 800181a:	f44f 6380 	mov.w	r3, #1024	; 0x400
 800181e:	4a39      	ldr	r2, [pc, #228]	; (8001904 <RadioFunction+0xfc>)
 8001820:	4939      	ldr	r1, [pc, #228]	; (8001908 <RadioFunction+0x100>)
 8001822:	483a      	ldr	r0, [pc, #232]	; (800190c <RadioFunction+0x104>)
 8001824:	f006 fbd7 	bl	8007fd6 <nRF24_HW_Init>
  nRF24_Init(&nrf_device);
 8001828:	4838      	ldr	r0, [pc, #224]	; (800190c <RadioFunction+0x104>)
 800182a:	f006 fc97 	bl	800815c <nRF24_Init>
  //nRF24_SetAddr(&nrf_device, nRF24_PIPE1, rx_node_addr);
  nRF24_SetRXPipe(&nrf_device, nRF24_PIPE0, nRF24_AA_OFF, 30);
 800182e:	231e      	movs	r3, #30
 8001830:	2200      	movs	r2, #0
 8001832:	2100      	movs	r1, #0
 8001834:	4835      	ldr	r0, [pc, #212]	; (800190c <RadioFunction+0x104>)
 8001836:	f006 fd3d 	bl	80082b4 <nRF24_SetRXPipe>
  nRF24_DisableAA(&nrf_device, nRF24_PIPETX);
 800183a:	2106      	movs	r1, #6
 800183c:	4833      	ldr	r0, [pc, #204]	; (800190c <RadioFunction+0x104>)
 800183e:	f006 fd95 	bl	800836c <nRF24_DisableAA>
  nRF24_SetPowerMode(&nrf_device, nRF24_PWR_UP);
 8001842:	2102      	movs	r1, #2
 8001844:	4831      	ldr	r0, [pc, #196]	; (800190c <RadioFunction+0x104>)
 8001846:	f006 fcee 	bl	8008226 <nRF24_SetPowerMode>
  nRF24_SetOperationalMode(&nrf_device, nRF24_MODE_RX);
 800184a:	2101      	movs	r1, #1
 800184c:	482f      	ldr	r0, [pc, #188]	; (800190c <RadioFunction+0x104>)
 800184e:	f006 fd0c 	bl	800826a <nRF24_SetOperationalMode>
  nRF24_RX_ON(&nrf_device);
 8001852:	2101      	movs	r1, #1
 8001854:	482d      	ldr	r0, [pc, #180]	; (800190c <RadioFunction+0x104>)
 8001856:	f006 fb9a 	bl	8007f8e <nRF24_CE_State>
	checkSPI = nRF24_Check();
	memset(rxAddr, 0xE7, 5);
	nRF24_SetAddr(0, rxAddr);
	*/
	
	memset(nrf_device.rx_data, 0, 30);
 800185a:	221e      	movs	r2, #30
 800185c:	2100      	movs	r1, #0
 800185e:	482c      	ldr	r0, [pc, #176]	; (8001910 <RadioFunction+0x108>)
 8001860:	f006 ffe8 	bl	8008834 <memset>
	/* Infinite loop */
	for(;;)
	{
		osMessageGet(nrf24CheckHandle, osWaitForever);
 8001864:	4b2b      	ldr	r3, [pc, #172]	; (8001914 <RadioFunction+0x10c>)
 8001866:	6819      	ldr	r1, [r3, #0]
 8001868:	463b      	mov	r3, r7
 800186a:	f04f 32ff 	mov.w	r2, #4294967295
 800186e:	4618      	mov	r0, r3
 8001870:	f003 ff14 	bl	800569c <osMessageGet>
		status = nRF24_GetStatus(&nrf_device);
 8001874:	4825      	ldr	r0, [pc, #148]	; (800190c <RadioFunction+0x104>)
 8001876:	f006 fda4 	bl	80083c2 <nRF24_GetStatus>
 800187a:	4603      	mov	r3, r0
 800187c:	461a      	mov	r2, r3
 800187e:	4b26      	ldr	r3, [pc, #152]	; (8001918 <RadioFunction+0x110>)
 8001880:	701a      	strb	r2, [r3, #0]
		
		//if(nRF24_GetStatus_RXFIFO() == nRF24_STATUS_RXFIFO_DATA)
		if(status & nRF24_FLAG_RX_DR)
 8001882:	4b25      	ldr	r3, [pc, #148]	; (8001918 <RadioFunction+0x110>)
 8001884:	781b      	ldrb	r3, [r3, #0]
 8001886:	f003 0340 	and.w	r3, r3, #64	; 0x40
 800188a:	2b00      	cmp	r3, #0
 800188c:	d0ea      	beq.n	8001864 <RadioFunction+0x5c>
		{
			nRF24_ReadPayload(&nrf_device, nrf_device.rx_data, &rx_len);
 800188e:	4a23      	ldr	r2, [pc, #140]	; (800191c <RadioFunction+0x114>)
 8001890:	491f      	ldr	r1, [pc, #124]	; (8001910 <RadioFunction+0x108>)
 8001892:	481e      	ldr	r0, [pc, #120]	; (800190c <RadioFunction+0x104>)
 8001894:	f006 fdd4 	bl	8008440 <nRF24_ReadPayload>
			nRF24_FlushRX(&nrf_device);
 8001898:	481c      	ldr	r0, [pc, #112]	; (800190c <RadioFunction+0x104>)
 800189a:	f006 fdac 	bl	80083f6 <nRF24_FlushRX>
			nRF24_ClearIRQFlags(&nrf_device);
 800189e:	481b      	ldr	r0, [pc, #108]	; (800190c <RadioFunction+0x104>)
 80018a0:	f006 fdb6 	bl	8008410 <nRF24_ClearIRQFlags>
						
			/* Obtain speed from nrf24L01+ packet */
			setSpeed(nrf_device.rx_data + 5 * robot_id, speed, direction);
 80018a4:	4b1e      	ldr	r3, [pc, #120]	; (8001920 <RadioFunction+0x118>)
 80018a6:	881b      	ldrh	r3, [r3, #0]
 80018a8:	461a      	mov	r2, r3
 80018aa:	4613      	mov	r3, r2
 80018ac:	009b      	lsls	r3, r3, #2
 80018ae:	4413      	add	r3, r2
 80018b0:	461a      	mov	r2, r3
 80018b2:	4b17      	ldr	r3, [pc, #92]	; (8001910 <RadioFunction+0x108>)
 80018b4:	4413      	add	r3, r2
 80018b6:	4a1b      	ldr	r2, [pc, #108]	; (8001924 <RadioFunction+0x11c>)
 80018b8:	491b      	ldr	r1, [pc, #108]	; (8001928 <RadioFunction+0x120>)
 80018ba:	4618      	mov	r0, r3
 80018bc:	f7ff fb8e 	bl	8000fdc <setSpeed>
			dribbler_sel = getDribbler_speed(nrf_device.rx_data + 5 * robot_id);
 80018c0:	4b17      	ldr	r3, [pc, #92]	; (8001920 <RadioFunction+0x118>)
 80018c2:	881b      	ldrh	r3, [r3, #0]
 80018c4:	461a      	mov	r2, r3
 80018c6:	4613      	mov	r3, r2
 80018c8:	009b      	lsls	r3, r3, #2
 80018ca:	4413      	add	r3, r2
 80018cc:	461a      	mov	r2, r3
 80018ce:	4b10      	ldr	r3, [pc, #64]	; (8001910 <RadioFunction+0x108>)
 80018d0:	4413      	add	r3, r2
 80018d2:	4618      	mov	r0, r3
 80018d4:	f7ff fcf6 	bl	80012c4 <getDribbler_speed>
 80018d8:	4603      	mov	r3, r0
 80018da:	461a      	mov	r2, r3
 80018dc:	4b13      	ldr	r3, [pc, #76]	; (800192c <RadioFunction+0x124>)
 80018de:	701a      	strb	r2, [r3, #0]
			kick_sel = getKickerStatus(nrf_device.rx_data + 5 * robot_id);		
 80018e0:	4b0f      	ldr	r3, [pc, #60]	; (8001920 <RadioFunction+0x118>)
 80018e2:	881b      	ldrh	r3, [r3, #0]
 80018e4:	461a      	mov	r2, r3
 80018e6:	4613      	mov	r3, r2
 80018e8:	009b      	lsls	r3, r3, #2
 80018ea:	4413      	add	r3, r2
 80018ec:	461a      	mov	r2, r3
 80018ee:	4b08      	ldr	r3, [pc, #32]	; (8001910 <RadioFunction+0x108>)
 80018f0:	4413      	add	r3, r2
 80018f2:	4618      	mov	r0, r3
 80018f4:	f7ff fcf8 	bl	80012e8 <getKickerStatus>
 80018f8:	4603      	mov	r3, r0
 80018fa:	461a      	mov	r2, r3
 80018fc:	4b0c      	ldr	r3, [pc, #48]	; (8001930 <RadioFunction+0x128>)
 80018fe:	701a      	strb	r2, [r3, #0]
		osMessageGet(nrf24CheckHandle, osWaitForever);
 8001900:	e7b0      	b.n	8001864 <RadioFunction+0x5c>
 8001902:	bf00      	nop
 8001904:	40021800 	.word	0x40021800
 8001908:	2000018c 	.word	0x2000018c
 800190c:	20000578 	.word	0x20000578
 8001910:	200005ae 	.word	0x200005ae
 8001914:	20000334 	.word	0x20000334
 8001918:	20000339 	.word	0x20000339
 800191c:	20000338 	.word	0x20000338
 8001920:	20000570 	.word	0x20000570
 8001924:	2000033c 	.word	0x2000033c
 8001928:	20000340 	.word	0x20000340
 800192c:	20000572 	.word	0x20000572
 8001930:	20000573 	.word	0x20000573

08001934 <KickFunction>:
* @param argument: Not used
* @retval None
*/
/* USER CODE END Header_KickFunction */
void KickFunction(void const * argument)
{
 8001934:	b580      	push	{r7, lr}
 8001936:	b086      	sub	sp, #24
 8001938:	af00      	add	r7, sp, #0
 800193a:	6178      	str	r0, [r7, #20]
  /* USER CODE BEGIN KickFunction */
  /* Infinite loop */
  for(;;)
  {
    HAL_GPIO_WritePin(GPIOJ, GPIO_PIN_4, GPIO_PIN_SET);
 800193c:	2201      	movs	r2, #1
 800193e:	2110      	movs	r1, #16
 8001940:	4814      	ldr	r0, [pc, #80]	; (8001994 <KickFunction+0x60>)
 8001942:	f000 fe67 	bl	8002614 <HAL_GPIO_WritePin>
    osDelay(4000);
 8001946:	f44f 607a 	mov.w	r0, #4000	; 0xfa0
 800194a:	f003 fe41 	bl	80055d0 <osDelay>
    HAL_GPIO_WritePin(GPIOJ, GPIO_PIN_4, GPIO_PIN_RESET);
 800194e:	2200      	movs	r2, #0
 8001950:	2110      	movs	r1, #16
 8001952:	4810      	ldr	r0, [pc, #64]	; (8001994 <KickFunction+0x60>)
 8001954:	f000 fe5e 	bl	8002614 <HAL_GPIO_WritePin>
    kick_flag = 0x01;
 8001958:	4b0f      	ldr	r3, [pc, #60]	; (8001998 <KickFunction+0x64>)
 800195a:	2201      	movs	r2, #1
 800195c:	701a      	strb	r2, [r3, #0]

		osMessageGet(kickQueueHandle, osWaitForever);
 800195e:	4b0f      	ldr	r3, [pc, #60]	; (800199c <KickFunction+0x68>)
 8001960:	6819      	ldr	r1, [r3, #0]
 8001962:	463b      	mov	r3, r7
 8001964:	f04f 32ff 	mov.w	r2, #4294967295
 8001968:	4618      	mov	r0, r3
 800196a:	f003 fe97 	bl	800569c <osMessageGet>
		
		HAL_GPIO_WritePin(GPIOF, GPIO_PIN_11, GPIO_PIN_SET);
 800196e:	2201      	movs	r2, #1
 8001970:	f44f 6100 	mov.w	r1, #2048	; 0x800
 8001974:	480a      	ldr	r0, [pc, #40]	; (80019a0 <KickFunction+0x6c>)
 8001976:	f000 fe4d 	bl	8002614 <HAL_GPIO_WritePin>
		osDelay(10);
 800197a:	200a      	movs	r0, #10
 800197c:	f003 fe28 	bl	80055d0 <osDelay>
		HAL_GPIO_WritePin(GPIOF, GPIO_PIN_11, GPIO_PIN_RESET);
 8001980:	2200      	movs	r2, #0
 8001982:	f44f 6100 	mov.w	r1, #2048	; 0x800
 8001986:	4806      	ldr	r0, [pc, #24]	; (80019a0 <KickFunction+0x6c>)
 8001988:	f000 fe44 	bl	8002614 <HAL_GPIO_WritePin>
		kick_flag = 0x00;
 800198c:	4b02      	ldr	r3, [pc, #8]	; (8001998 <KickFunction+0x64>)
 800198e:	2200      	movs	r2, #0
 8001990:	701a      	strb	r2, [r3, #0]
    HAL_GPIO_WritePin(GPIOJ, GPIO_PIN_4, GPIO_PIN_SET);
 8001992:	e7d3      	b.n	800193c <KickFunction+0x8>
 8001994:	40022400 	.word	0x40022400
 8001998:	20000574 	.word	0x20000574
 800199c:	2000032c 	.word	0x2000032c
 80019a0:	40021400 	.word	0x40021400

080019a4 <HAL_TIM_PeriodElapsedCallback>:
  * a global variable "uwTick" used as application time base.
  * @param  htim : TIM handle
  * @retval None
  */
void HAL_TIM_PeriodElapsedCallback(TIM_HandleTypeDef *htim)
{
 80019a4:	b580      	push	{r7, lr}
 80019a6:	b082      	sub	sp, #8
 80019a8:	af00      	add	r7, sp, #0
 80019aa:	6078      	str	r0, [r7, #4]
  /* USER CODE BEGIN Callback 0 */

  /* USER CODE END Callback 0 */
  if (htim->Instance == TIM1) {
 80019ac:	687b      	ldr	r3, [r7, #4]
 80019ae:	681b      	ldr	r3, [r3, #0]
 80019b0:	4a04      	ldr	r2, [pc, #16]	; (80019c4 <HAL_TIM_PeriodElapsedCallback+0x20>)
 80019b2:	4293      	cmp	r3, r2
 80019b4:	d101      	bne.n	80019ba <HAL_TIM_PeriodElapsedCallback+0x16>
    HAL_IncTick();
 80019b6:	f000 fb43 	bl	8002040 <HAL_IncTick>
  }
  /* USER CODE BEGIN Callback 1 */

  /* USER CODE END Callback 1 */
}
 80019ba:	bf00      	nop
 80019bc:	3708      	adds	r7, #8
 80019be:	46bd      	mov	sp, r7
 80019c0:	bd80      	pop	{r7, pc}
 80019c2:	bf00      	nop
 80019c4:	40010000 	.word	0x40010000

080019c8 <Error_Handler>:
/**
  * @brief  This function is executed in case of error occurrence.
  * @retval None
  */
void Error_Handler(void)
{
 80019c8:	b480      	push	{r7}
 80019ca:	af00      	add	r7, sp, #0
  /* USER CODE BEGIN Error_Handler_Debug */
	/* User can add his own implementation to report the HAL error return state */

  /* USER CODE END Error_Handler_Debug */
}
 80019cc:	bf00      	nop
 80019ce:	46bd      	mov	sp, r7
 80019d0:	f85d 7b04 	ldr.w	r7, [sp], #4
 80019d4:	4770      	bx	lr
	...

080019d8 <HAL_MspInit>:
/* USER CODE END 0 */
/**
  * Initializes the Global MSP.
  */
void HAL_MspInit(void)
{
 80019d8:	b580      	push	{r7, lr}
 80019da:	b082      	sub	sp, #8
 80019dc:	af00      	add	r7, sp, #0
  /* USER CODE BEGIN MspInit 0 */

  /* USER CODE END MspInit 0 */

  __HAL_RCC_PWR_CLK_ENABLE();
 80019de:	4b11      	ldr	r3, [pc, #68]	; (8001a24 <HAL_MspInit+0x4c>)
 80019e0:	6c1b      	ldr	r3, [r3, #64]	; 0x40
 80019e2:	4a10      	ldr	r2, [pc, #64]	; (8001a24 <HAL_MspInit+0x4c>)
 80019e4:	f043 5380 	orr.w	r3, r3, #268435456	; 0x10000000
 80019e8:	6413      	str	r3, [r2, #64]	; 0x40
 80019ea:	4b0e      	ldr	r3, [pc, #56]	; (8001a24 <HAL_MspInit+0x4c>)
 80019ec:	6c1b      	ldr	r3, [r3, #64]	; 0x40
 80019ee:	f003 5380 	and.w	r3, r3, #268435456	; 0x10000000
 80019f2:	607b      	str	r3, [r7, #4]
 80019f4:	687b      	ldr	r3, [r7, #4]
  __HAL_RCC_SYSCFG_CLK_ENABLE();
 80019f6:	4b0b      	ldr	r3, [pc, #44]	; (8001a24 <HAL_MspInit+0x4c>)
 80019f8:	6c5b      	ldr	r3, [r3, #68]	; 0x44
 80019fa:	4a0a      	ldr	r2, [pc, #40]	; (8001a24 <HAL_MspInit+0x4c>)
 80019fc:	f443 4380 	orr.w	r3, r3, #16384	; 0x4000
 8001a00:	6453      	str	r3, [r2, #68]	; 0x44
 8001a02:	4b08      	ldr	r3, [pc, #32]	; (8001a24 <HAL_MspInit+0x4c>)
 8001a04:	6c5b      	ldr	r3, [r3, #68]	; 0x44
 8001a06:	f403 4380 	and.w	r3, r3, #16384	; 0x4000
 8001a0a:	603b      	str	r3, [r7, #0]
 8001a0c:	683b      	ldr	r3, [r7, #0]

  /* System interrupt init*/
  /* PendSV_IRQn interrupt configuration */
  HAL_NVIC_SetPriority(PendSV_IRQn, 15, 0);
 8001a0e:	2200      	movs	r2, #0
 8001a10:	210f      	movs	r1, #15
 8001a12:	f06f 0001 	mvn.w	r0, #1
 8001a16:	f000 fc0f 	bl	8002238 <HAL_NVIC_SetPriority>

  /* USER CODE BEGIN MspInit 1 */

  /* USER CODE END MspInit 1 */
}
 8001a1a:	bf00      	nop
 8001a1c:	3708      	adds	r7, #8
 8001a1e:	46bd      	mov	sp, r7
 8001a20:	bd80      	pop	{r7, pc}
 8001a22:	bf00      	nop
 8001a24:	40023800 	.word	0x40023800

08001a28 <HAL_I2C_MspInit>:
* This function configures the hardware resources used in this example
* @param hi2c: I2C handle pointer
* @retval None
*/
void HAL_I2C_MspInit(I2C_HandleTypeDef* hi2c)
{
 8001a28:	b580      	push	{r7, lr}
 8001a2a:	b0b2      	sub	sp, #200	; 0xc8
 8001a2c:	af00      	add	r7, sp, #0
 8001a2e:	6078      	str	r0, [r7, #4]
  GPIO_InitTypeDef GPIO_InitStruct = {0};
 8001a30:	f107 03b4 	add.w	r3, r7, #180	; 0xb4
 8001a34:	2200      	movs	r2, #0
 8001a36:	601a      	str	r2, [r3, #0]
 8001a38:	605a      	str	r2, [r3, #4]
 8001a3a:	609a      	str	r2, [r3, #8]
 8001a3c:	60da      	str	r2, [r3, #12]
 8001a3e:	611a      	str	r2, [r3, #16]
  RCC_PeriphCLKInitTypeDef PeriphClkInitStruct = {0};
 8001a40:	f107 0324 	add.w	r3, r7, #36	; 0x24
 8001a44:	2290      	movs	r2, #144	; 0x90
 8001a46:	2100      	movs	r1, #0
 8001a48:	4618      	mov	r0, r3
 8001a4a:	f006 fef3 	bl	8008834 <memset>
  if(hi2c->Instance==I2C1)
 8001a4e:	687b      	ldr	r3, [r7, #4]
 8001a50:	681b      	ldr	r3, [r3, #0]
 8001a52:	4a65      	ldr	r2, [pc, #404]	; (8001be8 <HAL_I2C_MspInit+0x1c0>)
 8001a54:	4293      	cmp	r3, r2
 8001a56:	d13d      	bne.n	8001ad4 <HAL_I2C_MspInit+0xac>

  /* USER CODE END I2C1_MspInit 0 */

  /** Initializes the peripherals clock
  */
    PeriphClkInitStruct.PeriphClockSelection = RCC_PERIPHCLK_I2C1;
 8001a58:	f44f 4380 	mov.w	r3, #16384	; 0x4000
 8001a5c:	627b      	str	r3, [r7, #36]	; 0x24
    PeriphClkInitStruct.I2c1ClockSelection = RCC_I2C1CLKSOURCE_PCLK1;
 8001a5e:	2300      	movs	r3, #0
 8001a60:	f8c7 3088 	str.w	r3, [r7, #136]	; 0x88
    if (HAL_RCCEx_PeriphCLKConfig(&PeriphClkInitStruct) != HAL_OK)
 8001a64:	f107 0324 	add.w	r3, r7, #36	; 0x24
 8001a68:	4618      	mov	r0, r3
 8001a6a:	f002 f8c7 	bl	8003bfc <HAL_RCCEx_PeriphCLKConfig>
 8001a6e:	4603      	mov	r3, r0
 8001a70:	2b00      	cmp	r3, #0
 8001a72:	d001      	beq.n	8001a78 <HAL_I2C_MspInit+0x50>
    {
      Error_Handler();
 8001a74:	f7ff ffa8 	bl	80019c8 <Error_Handler>
    }

    __HAL_RCC_GPIOB_CLK_ENABLE();
 8001a78:	4b5c      	ldr	r3, [pc, #368]	; (8001bec <HAL_I2C_MspInit+0x1c4>)
 8001a7a:	6b1b      	ldr	r3, [r3, #48]	; 0x30
 8001a7c:	4a5b      	ldr	r2, [pc, #364]	; (8001bec <HAL_I2C_MspInit+0x1c4>)
 8001a7e:	f043 0302 	orr.w	r3, r3, #2
 8001a82:	6313      	str	r3, [r2, #48]	; 0x30
 8001a84:	4b59      	ldr	r3, [pc, #356]	; (8001bec <HAL_I2C_MspInit+0x1c4>)
 8001a86:	6b1b      	ldr	r3, [r3, #48]	; 0x30
 8001a88:	f003 0302 	and.w	r3, r3, #2
 8001a8c:	623b      	str	r3, [r7, #32]
 8001a8e:	6a3b      	ldr	r3, [r7, #32]
    /**I2C1 GPIO Configuration
    PB6     ------> I2C1_SCL
    PB7     ------> I2C1_SDA
    */
    GPIO_InitStruct.Pin = GPIO_PIN_6|GPIO_PIN_7;
 8001a90:	23c0      	movs	r3, #192	; 0xc0
 8001a92:	f8c7 30b4 	str.w	r3, [r7, #180]	; 0xb4
    GPIO_InitStruct.Mode = GPIO_MODE_AF_OD;
 8001a96:	2312      	movs	r3, #18
 8001a98:	f8c7 30b8 	str.w	r3, [r7, #184]	; 0xb8
    GPIO_InitStruct.Pull = GPIO_PULLUP;
 8001a9c:	2301      	movs	r3, #1
 8001a9e:	f8c7 30bc 	str.w	r3, [r7, #188]	; 0xbc
    GPIO_InitStruct.Speed = GPIO_SPEED_FREQ_VERY_HIGH;
 8001aa2:	2303      	movs	r3, #3
 8001aa4:	f8c7 30c0 	str.w	r3, [r7, #192]	; 0xc0
    GPIO_InitStruct.Alternate = GPIO_AF4_I2C1;
 8001aa8:	2304      	movs	r3, #4
 8001aaa:	f8c7 30c4 	str.w	r3, [r7, #196]	; 0xc4
    HAL_GPIO_Init(GPIOB, &GPIO_InitStruct);
 8001aae:	f107 03b4 	add.w	r3, r7, #180	; 0xb4
 8001ab2:	4619      	mov	r1, r3
 8001ab4:	484e      	ldr	r0, [pc, #312]	; (8001bf0 <HAL_I2C_MspInit+0x1c8>)
 8001ab6:	f000 fbe9 	bl	800228c <HAL_GPIO_Init>

    /* Peripheral clock enable */
    __HAL_RCC_I2C1_CLK_ENABLE();
 8001aba:	4b4c      	ldr	r3, [pc, #304]	; (8001bec <HAL_I2C_MspInit+0x1c4>)
 8001abc:	6c1b      	ldr	r3, [r3, #64]	; 0x40
 8001abe:	4a4b      	ldr	r2, [pc, #300]	; (8001bec <HAL_I2C_MspInit+0x1c4>)
 8001ac0:	f443 1300 	orr.w	r3, r3, #2097152	; 0x200000
 8001ac4:	6413      	str	r3, [r2, #64]	; 0x40
 8001ac6:	4b49      	ldr	r3, [pc, #292]	; (8001bec <HAL_I2C_MspInit+0x1c4>)
 8001ac8:	6c1b      	ldr	r3, [r3, #64]	; 0x40
 8001aca:	f403 1300 	and.w	r3, r3, #2097152	; 0x200000
 8001ace:	61fb      	str	r3, [r7, #28]
 8001ad0:	69fb      	ldr	r3, [r7, #28]
  /* USER CODE BEGIN I2C3_MspInit 1 */

  /* USER CODE END I2C3_MspInit 1 */
  }

}
 8001ad2:	e085      	b.n	8001be0 <HAL_I2C_MspInit+0x1b8>
  else if(hi2c->Instance==I2C2)
 8001ad4:	687b      	ldr	r3, [r7, #4]
 8001ad6:	681b      	ldr	r3, [r3, #0]
 8001ad8:	4a46      	ldr	r2, [pc, #280]	; (8001bf4 <HAL_I2C_MspInit+0x1cc>)
 8001ada:	4293      	cmp	r3, r2
 8001adc:	d13d      	bne.n	8001b5a <HAL_I2C_MspInit+0x132>
    PeriphClkInitStruct.PeriphClockSelection = RCC_PERIPHCLK_I2C2;
 8001ade:	f44f 4300 	mov.w	r3, #32768	; 0x8000
 8001ae2:	627b      	str	r3, [r7, #36]	; 0x24
    PeriphClkInitStruct.I2c2ClockSelection = RCC_I2C2CLKSOURCE_PCLK1;
 8001ae4:	2300      	movs	r3, #0
 8001ae6:	f8c7 308c 	str.w	r3, [r7, #140]	; 0x8c
    if (HAL_RCCEx_PeriphCLKConfig(&PeriphClkInitStruct) != HAL_OK)
 8001aea:	f107 0324 	add.w	r3, r7, #36	; 0x24
 8001aee:	4618      	mov	r0, r3
 8001af0:	f002 f884 	bl	8003bfc <HAL_RCCEx_PeriphCLKConfig>
 8001af4:	4603      	mov	r3, r0
 8001af6:	2b00      	cmp	r3, #0
 8001af8:	d001      	beq.n	8001afe <HAL_I2C_MspInit+0xd6>
      Error_Handler();
 8001afa:	f7ff ff65 	bl	80019c8 <Error_Handler>
    __HAL_RCC_GPIOF_CLK_ENABLE();
 8001afe:	4b3b      	ldr	r3, [pc, #236]	; (8001bec <HAL_I2C_MspInit+0x1c4>)
 8001b00:	6b1b      	ldr	r3, [r3, #48]	; 0x30
 8001b02:	4a3a      	ldr	r2, [pc, #232]	; (8001bec <HAL_I2C_MspInit+0x1c4>)
 8001b04:	f043 0320 	orr.w	r3, r3, #32
 8001b08:	6313      	str	r3, [r2, #48]	; 0x30
 8001b0a:	4b38      	ldr	r3, [pc, #224]	; (8001bec <HAL_I2C_MspInit+0x1c4>)
 8001b0c:	6b1b      	ldr	r3, [r3, #48]	; 0x30
 8001b0e:	f003 0320 	and.w	r3, r3, #32
 8001b12:	61bb      	str	r3, [r7, #24]
 8001b14:	69bb      	ldr	r3, [r7, #24]
    GPIO_InitStruct.Pin = GPIO_PIN_0|GPIO_PIN_1;
 8001b16:	2303      	movs	r3, #3
 8001b18:	f8c7 30b4 	str.w	r3, [r7, #180]	; 0xb4
    GPIO_InitStruct.Mode = GPIO_MODE_AF_OD;
 8001b1c:	2312      	movs	r3, #18
 8001b1e:	f8c7 30b8 	str.w	r3, [r7, #184]	; 0xb8
    GPIO_InitStruct.Pull = GPIO_PULLUP;
 8001b22:	2301      	movs	r3, #1
 8001b24:	f8c7 30bc 	str.w	r3, [r7, #188]	; 0xbc
    GPIO_InitStruct.Speed = GPIO_SPEED_FREQ_VERY_HIGH;
 8001b28:	2303      	movs	r3, #3
 8001b2a:	f8c7 30c0 	str.w	r3, [r7, #192]	; 0xc0
    GPIO_InitStruct.Alternate = GPIO_AF4_I2C2;
 8001b2e:	2304      	movs	r3, #4
 8001b30:	f8c7 30c4 	str.w	r3, [r7, #196]	; 0xc4
    HAL_GPIO_Init(GPIOF, &GPIO_InitStruct);
 8001b34:	f107 03b4 	add.w	r3, r7, #180	; 0xb4
 8001b38:	4619      	mov	r1, r3
 8001b3a:	482f      	ldr	r0, [pc, #188]	; (8001bf8 <HAL_I2C_MspInit+0x1d0>)
 8001b3c:	f000 fba6 	bl	800228c <HAL_GPIO_Init>
    __HAL_RCC_I2C2_CLK_ENABLE();
 8001b40:	4b2a      	ldr	r3, [pc, #168]	; (8001bec <HAL_I2C_MspInit+0x1c4>)
 8001b42:	6c1b      	ldr	r3, [r3, #64]	; 0x40
 8001b44:	4a29      	ldr	r2, [pc, #164]	; (8001bec <HAL_I2C_MspInit+0x1c4>)
 8001b46:	f443 0380 	orr.w	r3, r3, #4194304	; 0x400000
 8001b4a:	6413      	str	r3, [r2, #64]	; 0x40
 8001b4c:	4b27      	ldr	r3, [pc, #156]	; (8001bec <HAL_I2C_MspInit+0x1c4>)
 8001b4e:	6c1b      	ldr	r3, [r3, #64]	; 0x40
 8001b50:	f403 0380 	and.w	r3, r3, #4194304	; 0x400000
 8001b54:	617b      	str	r3, [r7, #20]
 8001b56:	697b      	ldr	r3, [r7, #20]
}
 8001b58:	e042      	b.n	8001be0 <HAL_I2C_MspInit+0x1b8>
  else if(hi2c->Instance==I2C3)
 8001b5a:	687b      	ldr	r3, [r7, #4]
 8001b5c:	681b      	ldr	r3, [r3, #0]
 8001b5e:	4a27      	ldr	r2, [pc, #156]	; (8001bfc <HAL_I2C_MspInit+0x1d4>)
 8001b60:	4293      	cmp	r3, r2
 8001b62:	d13d      	bne.n	8001be0 <HAL_I2C_MspInit+0x1b8>
    PeriphClkInitStruct.PeriphClockSelection = RCC_PERIPHCLK_I2C3;
 8001b64:	f44f 3380 	mov.w	r3, #65536	; 0x10000
 8001b68:	627b      	str	r3, [r7, #36]	; 0x24
    PeriphClkInitStruct.I2c3ClockSelection = RCC_I2C3CLKSOURCE_PCLK1;
 8001b6a:	2300      	movs	r3, #0
 8001b6c:	f8c7 3090 	str.w	r3, [r7, #144]	; 0x90
    if (HAL_RCCEx_PeriphCLKConfig(&PeriphClkInitStruct) != HAL_OK)
 8001b70:	f107 0324 	add.w	r3, r7, #36	; 0x24
 8001b74:	4618      	mov	r0, r3
 8001b76:	f002 f841 	bl	8003bfc <HAL_RCCEx_PeriphCLKConfig>
 8001b7a:	4603      	mov	r3, r0
 8001b7c:	2b00      	cmp	r3, #0
 8001b7e:	d001      	beq.n	8001b84 <HAL_I2C_MspInit+0x15c>
      Error_Handler();
 8001b80:	f7ff ff22 	bl	80019c8 <Error_Handler>
    __HAL_RCC_GPIOH_CLK_ENABLE();
 8001b84:	4b19      	ldr	r3, [pc, #100]	; (8001bec <HAL_I2C_MspInit+0x1c4>)
 8001b86:	6b1b      	ldr	r3, [r3, #48]	; 0x30
 8001b88:	4a18      	ldr	r2, [pc, #96]	; (8001bec <HAL_I2C_MspInit+0x1c4>)
 8001b8a:	f043 0380 	orr.w	r3, r3, #128	; 0x80
 8001b8e:	6313      	str	r3, [r2, #48]	; 0x30
 8001b90:	4b16      	ldr	r3, [pc, #88]	; (8001bec <HAL_I2C_MspInit+0x1c4>)
 8001b92:	6b1b      	ldr	r3, [r3, #48]	; 0x30
 8001b94:	f003 0380 	and.w	r3, r3, #128	; 0x80
 8001b98:	613b      	str	r3, [r7, #16]
 8001b9a:	693b      	ldr	r3, [r7, #16]
    GPIO_InitStruct.Pin = GPIO_PIN_7|GPIO_PIN_8;
 8001b9c:	f44f 73c0 	mov.w	r3, #384	; 0x180
 8001ba0:	f8c7 30b4 	str.w	r3, [r7, #180]	; 0xb4
    GPIO_InitStruct.Mode = GPIO_MODE_AF_OD;
 8001ba4:	2312      	movs	r3, #18
 8001ba6:	f8c7 30b8 	str.w	r3, [r7, #184]	; 0xb8
    GPIO_InitStruct.Pull = GPIO_NOPULL;
 8001baa:	2300      	movs	r3, #0
 8001bac:	f8c7 30bc 	str.w	r3, [r7, #188]	; 0xbc
    GPIO_InitStruct.Speed = GPIO_SPEED_FREQ_VERY_HIGH;
 8001bb0:	2303      	movs	r3, #3
 8001bb2:	f8c7 30c0 	str.w	r3, [r7, #192]	; 0xc0
    GPIO_InitStruct.Alternate = GPIO_AF4_I2C3;
 8001bb6:	2304      	movs	r3, #4
 8001bb8:	f8c7 30c4 	str.w	r3, [r7, #196]	; 0xc4
    HAL_GPIO_Init(GPIOH, &GPIO_InitStruct);
 8001bbc:	f107 03b4 	add.w	r3, r7, #180	; 0xb4
 8001bc0:	4619      	mov	r1, r3
 8001bc2:	480f      	ldr	r0, [pc, #60]	; (8001c00 <HAL_I2C_MspInit+0x1d8>)
 8001bc4:	f000 fb62 	bl	800228c <HAL_GPIO_Init>
    __HAL_RCC_I2C3_CLK_ENABLE();
 8001bc8:	4b08      	ldr	r3, [pc, #32]	; (8001bec <HAL_I2C_MspInit+0x1c4>)
 8001bca:	6c1b      	ldr	r3, [r3, #64]	; 0x40
 8001bcc:	4a07      	ldr	r2, [pc, #28]	; (8001bec <HAL_I2C_MspInit+0x1c4>)
 8001bce:	f443 0300 	orr.w	r3, r3, #8388608	; 0x800000
 8001bd2:	6413      	str	r3, [r2, #64]	; 0x40
 8001bd4:	4b05      	ldr	r3, [pc, #20]	; (8001bec <HAL_I2C_MspInit+0x1c4>)
 8001bd6:	6c1b      	ldr	r3, [r3, #64]	; 0x40
 8001bd8:	f403 0300 	and.w	r3, r3, #8388608	; 0x800000
 8001bdc:	60fb      	str	r3, [r7, #12]
 8001bde:	68fb      	ldr	r3, [r7, #12]
}
 8001be0:	bf00      	nop
 8001be2:	37c8      	adds	r7, #200	; 0xc8
 8001be4:	46bd      	mov	sp, r7
 8001be6:	bd80      	pop	{r7, pc}
 8001be8:	40005400 	.word	0x40005400
 8001bec:	40023800 	.word	0x40023800
 8001bf0:	40020400 	.word	0x40020400
 8001bf4:	40005800 	.word	0x40005800
 8001bf8:	40021400 	.word	0x40021400
 8001bfc:	40005c00 	.word	0x40005c00
 8001c00:	40021c00 	.word	0x40021c00

08001c04 <HAL_SPI_MspInit>:
* This function configures the hardware resources used in this example
* @param hspi: SPI handle pointer
* @retval None
*/
void HAL_SPI_MspInit(SPI_HandleTypeDef* hspi)
{
 8001c04:	b580      	push	{r7, lr}
 8001c06:	b08a      	sub	sp, #40	; 0x28
 8001c08:	af00      	add	r7, sp, #0
 8001c0a:	6078      	str	r0, [r7, #4]
  GPIO_InitTypeDef GPIO_InitStruct = {0};
 8001c0c:	f107 0314 	add.w	r3, r7, #20
 8001c10:	2200      	movs	r2, #0
 8001c12:	601a      	str	r2, [r3, #0]
 8001c14:	605a      	str	r2, [r3, #4]
 8001c16:	609a      	str	r2, [r3, #8]
 8001c18:	60da      	str	r2, [r3, #12]
 8001c1a:	611a      	str	r2, [r3, #16]
  if(hspi->Instance==SPI1)
 8001c1c:	687b      	ldr	r3, [r7, #4]
 8001c1e:	681b      	ldr	r3, [r3, #0]
 8001c20:	4a17      	ldr	r2, [pc, #92]	; (8001c80 <HAL_SPI_MspInit+0x7c>)
 8001c22:	4293      	cmp	r3, r2
 8001c24:	d127      	bne.n	8001c76 <HAL_SPI_MspInit+0x72>
  {
  /* USER CODE BEGIN SPI1_MspInit 0 */

  /* USER CODE END SPI1_MspInit 0 */
    /* Peripheral clock enable */
    __HAL_RCC_SPI1_CLK_ENABLE();
 8001c26:	4b17      	ldr	r3, [pc, #92]	; (8001c84 <HAL_SPI_MspInit+0x80>)
 8001c28:	6c5b      	ldr	r3, [r3, #68]	; 0x44
 8001c2a:	4a16      	ldr	r2, [pc, #88]	; (8001c84 <HAL_SPI_MspInit+0x80>)
 8001c2c:	f443 5380 	orr.w	r3, r3, #4096	; 0x1000
 8001c30:	6453      	str	r3, [r2, #68]	; 0x44
 8001c32:	4b14      	ldr	r3, [pc, #80]	; (8001c84 <HAL_SPI_MspInit+0x80>)
 8001c34:	6c5b      	ldr	r3, [r3, #68]	; 0x44
 8001c36:	f403 5380 	and.w	r3, r3, #4096	; 0x1000
 8001c3a:	613b      	str	r3, [r7, #16]
 8001c3c:	693b      	ldr	r3, [r7, #16]

    __HAL_RCC_GPIOA_CLK_ENABLE();
 8001c3e:	4b11      	ldr	r3, [pc, #68]	; (8001c84 <HAL_SPI_MspInit+0x80>)
 8001c40:	6b1b      	ldr	r3, [r3, #48]	; 0x30
 8001c42:	4a10      	ldr	r2, [pc, #64]	; (8001c84 <HAL_SPI_MspInit+0x80>)
 8001c44:	f043 0301 	orr.w	r3, r3, #1
 8001c48:	6313      	str	r3, [r2, #48]	; 0x30
 8001c4a:	4b0e      	ldr	r3, [pc, #56]	; (8001c84 <HAL_SPI_MspInit+0x80>)
 8001c4c:	6b1b      	ldr	r3, [r3, #48]	; 0x30
 8001c4e:	f003 0301 	and.w	r3, r3, #1
 8001c52:	60fb      	str	r3, [r7, #12]
 8001c54:	68fb      	ldr	r3, [r7, #12]
    /**SPI1 GPIO Configuration
    PA5     ------> SPI1_SCK
    PA6     ------> SPI1_MISO
    PA7     ------> SPI1_MOSI
    */
    GPIO_InitStruct.Pin = GPIO_PIN_5|GPIO_PIN_6|GPIO_PIN_7;
 8001c56:	23e0      	movs	r3, #224	; 0xe0
 8001c58:	617b      	str	r3, [r7, #20]
    GPIO_InitStruct.Mode = GPIO_MODE_AF_PP;
 8001c5a:	2302      	movs	r3, #2
 8001c5c:	61bb      	str	r3, [r7, #24]
    GPIO_InitStruct.Pull = GPIO_NOPULL;
 8001c5e:	2300      	movs	r3, #0
 8001c60:	61fb      	str	r3, [r7, #28]
    GPIO_InitStruct.Speed = GPIO_SPEED_FREQ_VERY_HIGH;
 8001c62:	2303      	movs	r3, #3
 8001c64:	623b      	str	r3, [r7, #32]
    GPIO_InitStruct.Alternate = GPIO_AF5_SPI1;
 8001c66:	2305      	movs	r3, #5
 8001c68:	627b      	str	r3, [r7, #36]	; 0x24
    HAL_GPIO_Init(GPIOA, &GPIO_InitStruct);
 8001c6a:	f107 0314 	add.w	r3, r7, #20
 8001c6e:	4619      	mov	r1, r3
 8001c70:	4805      	ldr	r0, [pc, #20]	; (8001c88 <HAL_SPI_MspInit+0x84>)
 8001c72:	f000 fb0b 	bl	800228c <HAL_GPIO_Init>
  /* USER CODE BEGIN SPI1_MspInit 1 */

  /* USER CODE END SPI1_MspInit 1 */
  }

}
 8001c76:	bf00      	nop
 8001c78:	3728      	adds	r7, #40	; 0x28
 8001c7a:	46bd      	mov	sp, r7
 8001c7c:	bd80      	pop	{r7, pc}
 8001c7e:	bf00      	nop
 8001c80:	40013000 	.word	0x40013000
 8001c84:	40023800 	.word	0x40023800
 8001c88:	40020000 	.word	0x40020000

08001c8c <HAL_TIM_Encoder_MspInit>:
* This function configures the hardware resources used in this example
* @param htim_encoder: TIM_Encoder handle pointer
* @retval None
*/
void HAL_TIM_Encoder_MspInit(TIM_HandleTypeDef* htim_encoder)
{
 8001c8c:	b580      	push	{r7, lr}
 8001c8e:	b090      	sub	sp, #64	; 0x40
 8001c90:	af00      	add	r7, sp, #0
 8001c92:	6078      	str	r0, [r7, #4]
  GPIO_InitTypeDef GPIO_InitStruct = {0};
 8001c94:	f107 032c 	add.w	r3, r7, #44	; 0x2c
 8001c98:	2200      	movs	r2, #0
 8001c9a:	601a      	str	r2, [r3, #0]
 8001c9c:	605a      	str	r2, [r3, #4]
 8001c9e:	609a      	str	r2, [r3, #8]
 8001ca0:	60da      	str	r2, [r3, #12]
 8001ca2:	611a      	str	r2, [r3, #16]
  if(htim_encoder->Instance==TIM2)
 8001ca4:	687b      	ldr	r3, [r7, #4]
 8001ca6:	681b      	ldr	r3, [r3, #0]
 8001ca8:	f1b3 4f80 	cmp.w	r3, #1073741824	; 0x40000000
 8001cac:	d128      	bne.n	8001d00 <HAL_TIM_Encoder_MspInit+0x74>
  {
  /* USER CODE BEGIN TIM2_MspInit 0 */

  /* USER CODE END TIM2_MspInit 0 */
    /* Peripheral clock enable */
    __HAL_RCC_TIM2_CLK_ENABLE();
 8001cae:	4b5b      	ldr	r3, [pc, #364]	; (8001e1c <HAL_TIM_Encoder_MspInit+0x190>)
 8001cb0:	6c1b      	ldr	r3, [r3, #64]	; 0x40
 8001cb2:	4a5a      	ldr	r2, [pc, #360]	; (8001e1c <HAL_TIM_Encoder_MspInit+0x190>)
 8001cb4:	f043 0301 	orr.w	r3, r3, #1
 8001cb8:	6413      	str	r3, [r2, #64]	; 0x40
 8001cba:	4b58      	ldr	r3, [pc, #352]	; (8001e1c <HAL_TIM_Encoder_MspInit+0x190>)
 8001cbc:	6c1b      	ldr	r3, [r3, #64]	; 0x40
 8001cbe:	f003 0301 	and.w	r3, r3, #1
 8001cc2:	62bb      	str	r3, [r7, #40]	; 0x28
 8001cc4:	6abb      	ldr	r3, [r7, #40]	; 0x28

    __HAL_RCC_GPIOA_CLK_ENABLE();
 8001cc6:	4b55      	ldr	r3, [pc, #340]	; (8001e1c <HAL_TIM_Encoder_MspInit+0x190>)
 8001cc8:	6b1b      	ldr	r3, [r3, #48]	; 0x30
 8001cca:	4a54      	ldr	r2, [pc, #336]	; (8001e1c <HAL_TIM_Encoder_MspInit+0x190>)
 8001ccc:	f043 0301 	orr.w	r3, r3, #1
 8001cd0:	6313      	str	r3, [r2, #48]	; 0x30
 8001cd2:	4b52      	ldr	r3, [pc, #328]	; (8001e1c <HAL_TIM_Encoder_MspInit+0x190>)
 8001cd4:	6b1b      	ldr	r3, [r3, #48]	; 0x30
 8001cd6:	f003 0301 	and.w	r3, r3, #1
 8001cda:	627b      	str	r3, [r7, #36]	; 0x24
 8001cdc:	6a7b      	ldr	r3, [r7, #36]	; 0x24
    /**TIM2 GPIO Configuration
    PA0/WKUP     ------> TIM2_CH1
    PA1     ------> TIM2_CH2
    */
    GPIO_InitStruct.Pin = GPIO_PIN_0|GPIO_PIN_1;
 8001cde:	2303      	movs	r3, #3
 8001ce0:	62fb      	str	r3, [r7, #44]	; 0x2c
    GPIO_InitStruct.Mode = GPIO_MODE_AF_PP;
 8001ce2:	2302      	movs	r3, #2
 8001ce4:	633b      	str	r3, [r7, #48]	; 0x30
    GPIO_InitStruct.Pull = GPIO_NOPULL;
 8001ce6:	2300      	movs	r3, #0
 8001ce8:	637b      	str	r3, [r7, #52]	; 0x34
    GPIO_InitStruct.Speed = GPIO_SPEED_FREQ_LOW;
 8001cea:	2300      	movs	r3, #0
 8001cec:	63bb      	str	r3, [r7, #56]	; 0x38
    GPIO_InitStruct.Alternate = GPIO_AF1_TIM2;
 8001cee:	2301      	movs	r3, #1
 8001cf0:	63fb      	str	r3, [r7, #60]	; 0x3c
    HAL_GPIO_Init(GPIOA, &GPIO_InitStruct);
 8001cf2:	f107 032c 	add.w	r3, r7, #44	; 0x2c
 8001cf6:	4619      	mov	r1, r3
 8001cf8:	4849      	ldr	r0, [pc, #292]	; (8001e20 <HAL_TIM_Encoder_MspInit+0x194>)
 8001cfa:	f000 fac7 	bl	800228c <HAL_GPIO_Init>
  /* USER CODE BEGIN TIM8_MspInit 1 */

  /* USER CODE END TIM8_MspInit 1 */
  }

}
 8001cfe:	e089      	b.n	8001e14 <HAL_TIM_Encoder_MspInit+0x188>
  else if(htim_encoder->Instance==TIM3)
 8001d00:	687b      	ldr	r3, [r7, #4]
 8001d02:	681b      	ldr	r3, [r3, #0]
 8001d04:	4a47      	ldr	r2, [pc, #284]	; (8001e24 <HAL_TIM_Encoder_MspInit+0x198>)
 8001d06:	4293      	cmp	r3, r2
 8001d08:	d128      	bne.n	8001d5c <HAL_TIM_Encoder_MspInit+0xd0>
    __HAL_RCC_TIM3_CLK_ENABLE();
 8001d0a:	4b44      	ldr	r3, [pc, #272]	; (8001e1c <HAL_TIM_Encoder_MspInit+0x190>)
 8001d0c:	6c1b      	ldr	r3, [r3, #64]	; 0x40
 8001d0e:	4a43      	ldr	r2, [pc, #268]	; (8001e1c <HAL_TIM_Encoder_MspInit+0x190>)
 8001d10:	f043 0302 	orr.w	r3, r3, #2
 8001d14:	6413      	str	r3, [r2, #64]	; 0x40
 8001d16:	4b41      	ldr	r3, [pc, #260]	; (8001e1c <HAL_TIM_Encoder_MspInit+0x190>)
 8001d18:	6c1b      	ldr	r3, [r3, #64]	; 0x40
 8001d1a:	f003 0302 	and.w	r3, r3, #2
 8001d1e:	623b      	str	r3, [r7, #32]
 8001d20:	6a3b      	ldr	r3, [r7, #32]
    __HAL_RCC_GPIOC_CLK_ENABLE();
 8001d22:	4b3e      	ldr	r3, [pc, #248]	; (8001e1c <HAL_TIM_Encoder_MspInit+0x190>)
 8001d24:	6b1b      	ldr	r3, [r3, #48]	; 0x30
 8001d26:	4a3d      	ldr	r2, [pc, #244]	; (8001e1c <HAL_TIM_Encoder_MspInit+0x190>)
 8001d28:	f043 0304 	orr.w	r3, r3, #4
 8001d2c:	6313      	str	r3, [r2, #48]	; 0x30
 8001d2e:	4b3b      	ldr	r3, [pc, #236]	; (8001e1c <HAL_TIM_Encoder_MspInit+0x190>)
 8001d30:	6b1b      	ldr	r3, [r3, #48]	; 0x30
 8001d32:	f003 0304 	and.w	r3, r3, #4
 8001d36:	61fb      	str	r3, [r7, #28]
 8001d38:	69fb      	ldr	r3, [r7, #28]
    GPIO_InitStruct.Pin = GPIO_PIN_6|GPIO_PIN_7;
 8001d3a:	23c0      	movs	r3, #192	; 0xc0
 8001d3c:	62fb      	str	r3, [r7, #44]	; 0x2c
    GPIO_InitStruct.Mode = GPIO_MODE_AF_PP;
 8001d3e:	2302      	movs	r3, #2
 8001d40:	633b      	str	r3, [r7, #48]	; 0x30
    GPIO_InitStruct.Pull = GPIO_NOPULL;
 8001d42:	2300      	movs	r3, #0
 8001d44:	637b      	str	r3, [r7, #52]	; 0x34
    GPIO_InitStruct.Speed = GPIO_SPEED_FREQ_LOW;
 8001d46:	2300      	movs	r3, #0
 8001d48:	63bb      	str	r3, [r7, #56]	; 0x38
    GPIO_InitStruct.Alternate = GPIO_AF2_TIM3;
 8001d4a:	2302      	movs	r3, #2
 8001d4c:	63fb      	str	r3, [r7, #60]	; 0x3c
    HAL_GPIO_Init(GPIOC, &GPIO_InitStruct);
 8001d4e:	f107 032c 	add.w	r3, r7, #44	; 0x2c
 8001d52:	4619      	mov	r1, r3
 8001d54:	4834      	ldr	r0, [pc, #208]	; (8001e28 <HAL_TIM_Encoder_MspInit+0x19c>)
 8001d56:	f000 fa99 	bl	800228c <HAL_GPIO_Init>
}
 8001d5a:	e05b      	b.n	8001e14 <HAL_TIM_Encoder_MspInit+0x188>
  else if(htim_encoder->Instance==TIM5)
 8001d5c:	687b      	ldr	r3, [r7, #4]
 8001d5e:	681b      	ldr	r3, [r3, #0]
 8001d60:	4a32      	ldr	r2, [pc, #200]	; (8001e2c <HAL_TIM_Encoder_MspInit+0x1a0>)
 8001d62:	4293      	cmp	r3, r2
 8001d64:	d129      	bne.n	8001dba <HAL_TIM_Encoder_MspInit+0x12e>
    __HAL_RCC_TIM5_CLK_ENABLE();
 8001d66:	4b2d      	ldr	r3, [pc, #180]	; (8001e1c <HAL_TIM_Encoder_MspInit+0x190>)
 8001d68:	6c1b      	ldr	r3, [r3, #64]	; 0x40
 8001d6a:	4a2c      	ldr	r2, [pc, #176]	; (8001e1c <HAL_TIM_Encoder_MspInit+0x190>)
 8001d6c:	f043 0308 	orr.w	r3, r3, #8
 8001d70:	6413      	str	r3, [r2, #64]	; 0x40
 8001d72:	4b2a      	ldr	r3, [pc, #168]	; (8001e1c <HAL_TIM_Encoder_MspInit+0x190>)
 8001d74:	6c1b      	ldr	r3, [r3, #64]	; 0x40
 8001d76:	f003 0308 	and.w	r3, r3, #8
 8001d7a:	61bb      	str	r3, [r7, #24]
 8001d7c:	69bb      	ldr	r3, [r7, #24]
    __HAL_RCC_GPIOH_CLK_ENABLE();
 8001d7e:	4b27      	ldr	r3, [pc, #156]	; (8001e1c <HAL_TIM_Encoder_MspInit+0x190>)
 8001d80:	6b1b      	ldr	r3, [r3, #48]	; 0x30
 8001d82:	4a26      	ldr	r2, [pc, #152]	; (8001e1c <HAL_TIM_Encoder_MspInit+0x190>)
 8001d84:	f043 0380 	orr.w	r3, r3, #128	; 0x80
 8001d88:	6313      	str	r3, [r2, #48]	; 0x30
 8001d8a:	4b24      	ldr	r3, [pc, #144]	; (8001e1c <HAL_TIM_Encoder_MspInit+0x190>)
 8001d8c:	6b1b      	ldr	r3, [r3, #48]	; 0x30
 8001d8e:	f003 0380 	and.w	r3, r3, #128	; 0x80
 8001d92:	617b      	str	r3, [r7, #20]
 8001d94:	697b      	ldr	r3, [r7, #20]
    GPIO_InitStruct.Pin = GPIO_PIN_10|GPIO_PIN_11;
 8001d96:	f44f 6340 	mov.w	r3, #3072	; 0xc00
 8001d9a:	62fb      	str	r3, [r7, #44]	; 0x2c
    GPIO_InitStruct.Mode = GPIO_MODE_AF_PP;
 8001d9c:	2302      	movs	r3, #2
 8001d9e:	633b      	str	r3, [r7, #48]	; 0x30
    GPIO_InitStruct.Pull = GPIO_NOPULL;
 8001da0:	2300      	movs	r3, #0
 8001da2:	637b      	str	r3, [r7, #52]	; 0x34
    GPIO_InitStruct.Speed = GPIO_SPEED_FREQ_LOW;
 8001da4:	2300      	movs	r3, #0
 8001da6:	63bb      	str	r3, [r7, #56]	; 0x38
    GPIO_InitStruct.Alternate = GPIO_AF2_TIM5;
 8001da8:	2302      	movs	r3, #2
 8001daa:	63fb      	str	r3, [r7, #60]	; 0x3c
    HAL_GPIO_Init(GPIOH, &GPIO_InitStruct);
 8001dac:	f107 032c 	add.w	r3, r7, #44	; 0x2c
 8001db0:	4619      	mov	r1, r3
 8001db2:	481f      	ldr	r0, [pc, #124]	; (8001e30 <HAL_TIM_Encoder_MspInit+0x1a4>)
 8001db4:	f000 fa6a 	bl	800228c <HAL_GPIO_Init>
}
 8001db8:	e02c      	b.n	8001e14 <HAL_TIM_Encoder_MspInit+0x188>
  else if(htim_encoder->Instance==TIM8)
 8001dba:	687b      	ldr	r3, [r7, #4]
 8001dbc:	681b      	ldr	r3, [r3, #0]
 8001dbe:	4a1d      	ldr	r2, [pc, #116]	; (8001e34 <HAL_TIM_Encoder_MspInit+0x1a8>)
 8001dc0:	4293      	cmp	r3, r2
 8001dc2:	d127      	bne.n	8001e14 <HAL_TIM_Encoder_MspInit+0x188>
    __HAL_RCC_TIM8_CLK_ENABLE();
 8001dc4:	4b15      	ldr	r3, [pc, #84]	; (8001e1c <HAL_TIM_Encoder_MspInit+0x190>)
 8001dc6:	6c5b      	ldr	r3, [r3, #68]	; 0x44
 8001dc8:	4a14      	ldr	r2, [pc, #80]	; (8001e1c <HAL_TIM_Encoder_MspInit+0x190>)
 8001dca:	f043 0302 	orr.w	r3, r3, #2
 8001dce:	6453      	str	r3, [r2, #68]	; 0x44
 8001dd0:	4b12      	ldr	r3, [pc, #72]	; (8001e1c <HAL_TIM_Encoder_MspInit+0x190>)
 8001dd2:	6c5b      	ldr	r3, [r3, #68]	; 0x44
 8001dd4:	f003 0302 	and.w	r3, r3, #2
 8001dd8:	613b      	str	r3, [r7, #16]
 8001dda:	693b      	ldr	r3, [r7, #16]
    __HAL_RCC_GPIOI_CLK_ENABLE();
 8001ddc:	4b0f      	ldr	r3, [pc, #60]	; (8001e1c <HAL_TIM_Encoder_MspInit+0x190>)
 8001dde:	6b1b      	ldr	r3, [r3, #48]	; 0x30
 8001de0:	4a0e      	ldr	r2, [pc, #56]	; (8001e1c <HAL_TIM_Encoder_MspInit+0x190>)
 8001de2:	f443 7380 	orr.w	r3, r3, #256	; 0x100
 8001de6:	6313      	str	r3, [r2, #48]	; 0x30
 8001de8:	4b0c      	ldr	r3, [pc, #48]	; (8001e1c <HAL_TIM_Encoder_MspInit+0x190>)
 8001dea:	6b1b      	ldr	r3, [r3, #48]	; 0x30
 8001dec:	f403 7380 	and.w	r3, r3, #256	; 0x100
 8001df0:	60fb      	str	r3, [r7, #12]
 8001df2:	68fb      	ldr	r3, [r7, #12]
    GPIO_InitStruct.Pin = GPIO_PIN_5|GPIO_PIN_6;
 8001df4:	2360      	movs	r3, #96	; 0x60
 8001df6:	62fb      	str	r3, [r7, #44]	; 0x2c
    GPIO_InitStruct.Mode = GPIO_MODE_AF_PP;
 8001df8:	2302      	movs	r3, #2
 8001dfa:	633b      	str	r3, [r7, #48]	; 0x30
    GPIO_InitStruct.Pull = GPIO_NOPULL;
 8001dfc:	2300      	movs	r3, #0
 8001dfe:	637b      	str	r3, [r7, #52]	; 0x34
    GPIO_InitStruct.Speed = GPIO_SPEED_FREQ_LOW;
 8001e00:	2300      	movs	r3, #0
 8001e02:	63bb      	str	r3, [r7, #56]	; 0x38
    GPIO_InitStruct.Alternate = GPIO_AF3_TIM8;
 8001e04:	2303      	movs	r3, #3
 8001e06:	63fb      	str	r3, [r7, #60]	; 0x3c
    HAL_GPIO_Init(GPIOI, &GPIO_InitStruct);
 8001e08:	f107 032c 	add.w	r3, r7, #44	; 0x2c
 8001e0c:	4619      	mov	r1, r3
 8001e0e:	480a      	ldr	r0, [pc, #40]	; (8001e38 <HAL_TIM_Encoder_MspInit+0x1ac>)
 8001e10:	f000 fa3c 	bl	800228c <HAL_GPIO_Init>
}
 8001e14:	bf00      	nop
 8001e16:	3740      	adds	r7, #64	; 0x40
 8001e18:	46bd      	mov	sp, r7
 8001e1a:	bd80      	pop	{r7, pc}
 8001e1c:	40023800 	.word	0x40023800
 8001e20:	40020000 	.word	0x40020000
 8001e24:	40000400 	.word	0x40000400
 8001e28:	40020800 	.word	0x40020800
 8001e2c:	40000c00 	.word	0x40000c00
 8001e30:	40021c00 	.word	0x40021c00
 8001e34:	40010400 	.word	0x40010400
 8001e38:	40022000 	.word	0x40022000

08001e3c <HAL_InitTick>:
  *         reset by HAL_Init() or at any time when clock is configured, by HAL_RCC_ClockConfig().
  * @param  TickPriority: Tick interrupt priority.
  * @retval HAL status
  */
HAL_StatusTypeDef HAL_InitTick(uint32_t TickPriority)
{
 8001e3c:	b580      	push	{r7, lr}
 8001e3e:	b08c      	sub	sp, #48	; 0x30
 8001e40:	af00      	add	r7, sp, #0
 8001e42:	6078      	str	r0, [r7, #4]
  RCC_ClkInitTypeDef    clkconfig;
  uint32_t              uwTimclock = 0U;
 8001e44:	2300      	movs	r3, #0
 8001e46:	62bb      	str	r3, [r7, #40]	; 0x28

  uint32_t              uwPrescalerValue = 0U;
 8001e48:	2300      	movs	r3, #0
 8001e4a:	627b      	str	r3, [r7, #36]	; 0x24
  uint32_t              pFLatency;
  HAL_StatusTypeDef     status;

  /* Enable TIM1 clock */
  __HAL_RCC_TIM1_CLK_ENABLE();
 8001e4c:	4b2f      	ldr	r3, [pc, #188]	; (8001f0c <HAL_InitTick+0xd0>)
 8001e4e:	6c5b      	ldr	r3, [r3, #68]	; 0x44
 8001e50:	4a2e      	ldr	r2, [pc, #184]	; (8001f0c <HAL_InitTick+0xd0>)
 8001e52:	f043 0301 	orr.w	r3, r3, #1
 8001e56:	6453      	str	r3, [r2, #68]	; 0x44
 8001e58:	4b2c      	ldr	r3, [pc, #176]	; (8001f0c <HAL_InitTick+0xd0>)
 8001e5a:	6c5b      	ldr	r3, [r3, #68]	; 0x44
 8001e5c:	f003 0301 	and.w	r3, r3, #1
 8001e60:	60bb      	str	r3, [r7, #8]
 8001e62:	68bb      	ldr	r3, [r7, #8]

  /* Get clock configuration */
  HAL_RCC_GetClockConfig(&clkconfig, &pFLatency);
 8001e64:	f107 020c 	add.w	r2, r7, #12
 8001e68:	f107 0310 	add.w	r3, r7, #16
 8001e6c:	4611      	mov	r1, r2
 8001e6e:	4618      	mov	r0, r3
 8001e70:	f001 fe92 	bl	8003b98 <HAL_RCC_GetClockConfig>

  /* Compute TIM1 clock */
  uwTimclock = 2*HAL_RCC_GetPCLK2Freq();
 8001e74:	f001 fe7c 	bl	8003b70 <HAL_RCC_GetPCLK2Freq>
 8001e78:	4603      	mov	r3, r0
 8001e7a:	005b      	lsls	r3, r3, #1
 8001e7c:	62bb      	str	r3, [r7, #40]	; 0x28

  /* Compute the prescaler value to have TIM1 counter clock equal to 1MHz */
  uwPrescalerValue = (uint32_t) ((uwTimclock / 1000000U) - 1U);
 8001e7e:	6abb      	ldr	r3, [r7, #40]	; 0x28
 8001e80:	4a23      	ldr	r2, [pc, #140]	; (8001f10 <HAL_InitTick+0xd4>)
 8001e82:	fba2 2303 	umull	r2, r3, r2, r3
 8001e86:	0c9b      	lsrs	r3, r3, #18
 8001e88:	3b01      	subs	r3, #1
 8001e8a:	627b      	str	r3, [r7, #36]	; 0x24

  /* Initialize TIM1 */
  htim1.Instance = TIM1;
 8001e8c:	4b21      	ldr	r3, [pc, #132]	; (8001f14 <HAL_InitTick+0xd8>)
 8001e8e:	4a22      	ldr	r2, [pc, #136]	; (8001f18 <HAL_InitTick+0xdc>)
 8001e90:	601a      	str	r2, [r3, #0]
  + Period = [(TIM1CLK/1000) - 1]. to have a (1/1000) s time base.
  + Prescaler = (uwTimclock/1000000 - 1) to have a 1MHz counter clock.
  + ClockDivision = 0
  + Counter direction = Up
  */
  htim1.Init.Period = (1000000U / 1000U) - 1U;
 8001e92:	4b20      	ldr	r3, [pc, #128]	; (8001f14 <HAL_InitTick+0xd8>)
 8001e94:	f240 32e7 	movw	r2, #999	; 0x3e7
 8001e98:	60da      	str	r2, [r3, #12]
  htim1.Init.Prescaler = uwPrescalerValue;
 8001e9a:	4a1e      	ldr	r2, [pc, #120]	; (8001f14 <HAL_InitTick+0xd8>)
 8001e9c:	6a7b      	ldr	r3, [r7, #36]	; 0x24
 8001e9e:	6053      	str	r3, [r2, #4]
  htim1.Init.ClockDivision = 0;
 8001ea0:	4b1c      	ldr	r3, [pc, #112]	; (8001f14 <HAL_InitTick+0xd8>)
 8001ea2:	2200      	movs	r2, #0
 8001ea4:	611a      	str	r2, [r3, #16]
  htim1.Init.CounterMode = TIM_COUNTERMODE_UP;
 8001ea6:	4b1b      	ldr	r3, [pc, #108]	; (8001f14 <HAL_InitTick+0xd8>)
 8001ea8:	2200      	movs	r2, #0
 8001eaa:	609a      	str	r2, [r3, #8]
  htim1.Init.AutoReloadPreload = TIM_AUTORELOAD_PRELOAD_DISABLE;
 8001eac:	4b19      	ldr	r3, [pc, #100]	; (8001f14 <HAL_InitTick+0xd8>)
 8001eae:	2200      	movs	r2, #0
 8001eb0:	619a      	str	r2, [r3, #24]

  status = HAL_TIM_Base_Init(&htim1);
 8001eb2:	4818      	ldr	r0, [pc, #96]	; (8001f14 <HAL_InitTick+0xd8>)
 8001eb4:	f002 ff10 	bl	8004cd8 <HAL_TIM_Base_Init>
 8001eb8:	4603      	mov	r3, r0
 8001eba:	f887 302f 	strb.w	r3, [r7, #47]	; 0x2f
  if (status == HAL_OK)
 8001ebe:	f897 302f 	ldrb.w	r3, [r7, #47]	; 0x2f
 8001ec2:	2b00      	cmp	r3, #0
 8001ec4:	d11b      	bne.n	8001efe <HAL_InitTick+0xc2>
  {
    /* Start the TIM time Base generation in interrupt mode */
    status = HAL_TIM_Base_Start_IT(&htim1);
 8001ec6:	4813      	ldr	r0, [pc, #76]	; (8001f14 <HAL_InitTick+0xd8>)
 8001ec8:	f002 ff68 	bl	8004d9c <HAL_TIM_Base_Start_IT>
 8001ecc:	4603      	mov	r3, r0
 8001ece:	f887 302f 	strb.w	r3, [r7, #47]	; 0x2f
    if (status == HAL_OK)
 8001ed2:	f897 302f 	ldrb.w	r3, [r7, #47]	; 0x2f
 8001ed6:	2b00      	cmp	r3, #0
 8001ed8:	d111      	bne.n	8001efe <HAL_InitTick+0xc2>
    {
    /* Enable the TIM1 global Interrupt */
        HAL_NVIC_EnableIRQ(TIM1_UP_TIM10_IRQn);
 8001eda:	2019      	movs	r0, #25
 8001edc:	f000 f9c8 	bl	8002270 <HAL_NVIC_EnableIRQ>
      /* Configure the SysTick IRQ priority */
      if (TickPriority < (1UL << __NVIC_PRIO_BITS))
 8001ee0:	687b      	ldr	r3, [r7, #4]
 8001ee2:	2b0f      	cmp	r3, #15
 8001ee4:	d808      	bhi.n	8001ef8 <HAL_InitTick+0xbc>
      {
        /* Configure the TIM IRQ priority */
        HAL_NVIC_SetPriority(TIM1_UP_TIM10_IRQn, TickPriority, 0U);
 8001ee6:	2200      	movs	r2, #0
 8001ee8:	6879      	ldr	r1, [r7, #4]
 8001eea:	2019      	movs	r0, #25
 8001eec:	f000 f9a4 	bl	8002238 <HAL_NVIC_SetPriority>
        uwTickPrio = TickPriority;
 8001ef0:	4a0a      	ldr	r2, [pc, #40]	; (8001f1c <HAL_InitTick+0xe0>)
 8001ef2:	687b      	ldr	r3, [r7, #4]
 8001ef4:	6013      	str	r3, [r2, #0]
 8001ef6:	e002      	b.n	8001efe <HAL_InitTick+0xc2>
      }
      else
      {
        status = HAL_ERROR;
 8001ef8:	2301      	movs	r3, #1
 8001efa:	f887 302f 	strb.w	r3, [r7, #47]	; 0x2f
      }
    }
  }

 /* Return function status */
  return status;
 8001efe:	f897 302f 	ldrb.w	r3, [r7, #47]	; 0x2f
}
 8001f02:	4618      	mov	r0, r3
 8001f04:	3730      	adds	r7, #48	; 0x30
 8001f06:	46bd      	mov	sp, r7
 8001f08:	bd80      	pop	{r7, pc}
 8001f0a:	bf00      	nop
 8001f0c:	40023800 	.word	0x40023800
 8001f10:	431bde83 	.word	0x431bde83
 8001f14:	20000600 	.word	0x20000600
 8001f18:	40010000 	.word	0x40010000
 8001f1c:	20000004 	.word	0x20000004

08001f20 <NMI_Handler>:
/******************************************************************************/
/**
  * @brief This function handles Non maskable interrupt.
  */
void NMI_Handler(void)
{
 8001f20:	b480      	push	{r7}
 8001f22:	af00      	add	r7, sp, #0

  /* USER CODE END NonMaskableInt_IRQn 0 */
  /* USER CODE BEGIN NonMaskableInt_IRQn 1 */

  /* USER CODE END NonMaskableInt_IRQn 1 */
}
 8001f24:	bf00      	nop
 8001f26:	46bd      	mov	sp, r7
 8001f28:	f85d 7b04 	ldr.w	r7, [sp], #4
 8001f2c:	4770      	bx	lr

08001f2e <HardFault_Handler>:

/**
  * @brief This function handles Hard fault interrupt.
  */
void HardFault_Handler(void)
{
 8001f2e:	b480      	push	{r7}
 8001f30:	af00      	add	r7, sp, #0
  /* USER CODE BEGIN HardFault_IRQn 0 */

  /* USER CODE END HardFault_IRQn 0 */
  while (1)
 8001f32:	e7fe      	b.n	8001f32 <HardFault_Handler+0x4>

08001f34 <MemManage_Handler>:

/**
  * @brief This function handles Memory management fault.
  */
void MemManage_Handler(void)
{
 8001f34:	b480      	push	{r7}
 8001f36:	af00      	add	r7, sp, #0
  /* USER CODE BEGIN MemoryManagement_IRQn 0 */

  /* USER CODE END MemoryManagement_IRQn 0 */
  while (1)
 8001f38:	e7fe      	b.n	8001f38 <MemManage_Handler+0x4>

08001f3a <BusFault_Handler>:

/**
  * @brief This function handles Pre-fetch fault, memory access fault.
  */
void BusFault_Handler(void)
{
 8001f3a:	b480      	push	{r7}
 8001f3c:	af00      	add	r7, sp, #0
  /* USER CODE BEGIN BusFault_IRQn 0 */

  /* USER CODE END BusFault_IRQn 0 */
  while (1)
 8001f3e:	e7fe      	b.n	8001f3e <BusFault_Handler+0x4>

08001f40 <UsageFault_Handler>:

/**
  * @brief This function handles Undefined instruction or illegal state.
  */
void UsageFault_Handler(void)
{
 8001f40:	b480      	push	{r7}
 8001f42:	af00      	add	r7, sp, #0
  /* USER CODE BEGIN UsageFault_IRQn 0 */

  /* USER CODE END UsageFault_IRQn 0 */
  while (1)
 8001f44:	e7fe      	b.n	8001f44 <UsageFault_Handler+0x4>

08001f46 <DebugMon_Handler>:

/**
  * @brief This function handles Debug monitor.
  */
void DebugMon_Handler(void)
{
 8001f46:	b480      	push	{r7}
 8001f48:	af00      	add	r7, sp, #0

  /* USER CODE END DebugMonitor_IRQn 0 */
  /* USER CODE BEGIN DebugMonitor_IRQn 1 */

  /* USER CODE END DebugMonitor_IRQn 1 */
}
 8001f4a:	bf00      	nop
 8001f4c:	46bd      	mov	sp, r7
 8001f4e:	f85d 7b04 	ldr.w	r7, [sp], #4
 8001f52:	4770      	bx	lr

08001f54 <TIM1_UP_TIM10_IRQHandler>:

/**
  * @brief This function handles TIM1 update interrupt and TIM10 global interrupt.
  */
void TIM1_UP_TIM10_IRQHandler(void)
{
 8001f54:	b580      	push	{r7, lr}
 8001f56:	af00      	add	r7, sp, #0
  /* USER CODE BEGIN TIM1_UP_TIM10_IRQn 0 */

  /* USER CODE END TIM1_UP_TIM10_IRQn 0 */
  HAL_TIM_IRQHandler(&htim1);
 8001f58:	4802      	ldr	r0, [pc, #8]	; (8001f64 <TIM1_UP_TIM10_IRQHandler+0x10>)
 8001f5a:	f003 f83d 	bl	8004fd8 <HAL_TIM_IRQHandler>
  /* USER CODE BEGIN TIM1_UP_TIM10_IRQn 1 */

  /* USER CODE END TIM1_UP_TIM10_IRQn 1 */
}
 8001f5e:	bf00      	nop
 8001f60:	bd80      	pop	{r7, pc}
 8001f62:	bf00      	nop
 8001f64:	20000600 	.word	0x20000600

08001f68 <SystemInit>:
  *         SystemFrequency variable.
  * @param  None
  * @retval None
  */
void SystemInit(void)
{
 8001f68:	b480      	push	{r7}
 8001f6a:	af00      	add	r7, sp, #0
  /* FPU settings ------------------------------------------------------------*/
  #if (__FPU_PRESENT == 1) && (__FPU_USED == 1)
    SCB->CPACR |= ((3UL << 10*2)|(3UL << 11*2));  /* set CP10 and CP11 Full Access */
 8001f6c:	4b15      	ldr	r3, [pc, #84]	; (8001fc4 <SystemInit+0x5c>)
 8001f6e:	f8d3 3088 	ldr.w	r3, [r3, #136]	; 0x88
 8001f72:	4a14      	ldr	r2, [pc, #80]	; (8001fc4 <SystemInit+0x5c>)
 8001f74:	f443 0370 	orr.w	r3, r3, #15728640	; 0xf00000
 8001f78:	f8c2 3088 	str.w	r3, [r2, #136]	; 0x88
  #endif
  /* Reset the RCC clock configuration to the default reset state ------------*/
  /* Set HSION bit */
  RCC->CR |= (uint32_t)0x00000001;
 8001f7c:	4b12      	ldr	r3, [pc, #72]	; (8001fc8 <SystemInit+0x60>)
 8001f7e:	681b      	ldr	r3, [r3, #0]
 8001f80:	4a11      	ldr	r2, [pc, #68]	; (8001fc8 <SystemInit+0x60>)
 8001f82:	f043 0301 	orr.w	r3, r3, #1
 8001f86:	6013      	str	r3, [r2, #0]

  /* Reset CFGR register */
  RCC->CFGR = 0x00000000;
 8001f88:	4b0f      	ldr	r3, [pc, #60]	; (8001fc8 <SystemInit+0x60>)
 8001f8a:	2200      	movs	r2, #0
 8001f8c:	609a      	str	r2, [r3, #8]

  /* Reset HSEON, CSSON and PLLON bits */
  RCC->CR &= (uint32_t)0xFEF6FFFF;
 8001f8e:	4b0e      	ldr	r3, [pc, #56]	; (8001fc8 <SystemInit+0x60>)
 8001f90:	681a      	ldr	r2, [r3, #0]
 8001f92:	490d      	ldr	r1, [pc, #52]	; (8001fc8 <SystemInit+0x60>)
 8001f94:	4b0d      	ldr	r3, [pc, #52]	; (8001fcc <SystemInit+0x64>)
 8001f96:	4013      	ands	r3, r2
 8001f98:	600b      	str	r3, [r1, #0]

  /* Reset PLLCFGR register */
  RCC->PLLCFGR = 0x24003010;
 8001f9a:	4b0b      	ldr	r3, [pc, #44]	; (8001fc8 <SystemInit+0x60>)
 8001f9c:	4a0c      	ldr	r2, [pc, #48]	; (8001fd0 <SystemInit+0x68>)
 8001f9e:	605a      	str	r2, [r3, #4]

  /* Reset HSEBYP bit */
  RCC->CR &= (uint32_t)0xFFFBFFFF;
 8001fa0:	4b09      	ldr	r3, [pc, #36]	; (8001fc8 <SystemInit+0x60>)
 8001fa2:	681b      	ldr	r3, [r3, #0]
 8001fa4:	4a08      	ldr	r2, [pc, #32]	; (8001fc8 <SystemInit+0x60>)
 8001fa6:	f423 2380 	bic.w	r3, r3, #262144	; 0x40000
 8001faa:	6013      	str	r3, [r2, #0]

  /* Disable all interrupts */
  RCC->CIR = 0x00000000;
 8001fac:	4b06      	ldr	r3, [pc, #24]	; (8001fc8 <SystemInit+0x60>)
 8001fae:	2200      	movs	r2, #0
 8001fb0:	60da      	str	r2, [r3, #12]

  /* Configure the Vector Table location add offset address ------------------*/
#ifdef VECT_TAB_SRAM
  SCB->VTOR = RAMDTCM_BASE | VECT_TAB_OFFSET; /* Vector Table Relocation in Internal SRAM */
#else
  SCB->VTOR = FLASH_BASE | VECT_TAB_OFFSET; /* Vector Table Relocation in Internal FLASH */
 8001fb2:	4b04      	ldr	r3, [pc, #16]	; (8001fc4 <SystemInit+0x5c>)
 8001fb4:	f04f 6200 	mov.w	r2, #134217728	; 0x8000000
 8001fb8:	609a      	str	r2, [r3, #8]
#endif
}
 8001fba:	bf00      	nop
 8001fbc:	46bd      	mov	sp, r7
 8001fbe:	f85d 7b04 	ldr.w	r7, [sp], #4
 8001fc2:	4770      	bx	lr
 8001fc4:	e000ed00 	.word	0xe000ed00
 8001fc8:	40023800 	.word	0x40023800
 8001fcc:	fef6ffff 	.word	0xfef6ffff
 8001fd0:	24003010 	.word	0x24003010

08001fd4 <Reset_Handler>:
 8001fd4:	f8df d034 	ldr.w	sp, [pc, #52]	; 800200c <LoopFillZerobss+0x12>
 8001fd8:	480d      	ldr	r0, [pc, #52]	; (8002010 <LoopFillZerobss+0x16>)
 8001fda:	490e      	ldr	r1, [pc, #56]	; (8002014 <LoopFillZerobss+0x1a>)
 8001fdc:	4a0e      	ldr	r2, [pc, #56]	; (8002018 <LoopFillZerobss+0x1e>)
 8001fde:	2300      	movs	r3, #0
 8001fe0:	e002      	b.n	8001fe8 <LoopCopyDataInit>

08001fe2 <CopyDataInit>:
 8001fe2:	58d4      	ldr	r4, [r2, r3]
 8001fe4:	50c4      	str	r4, [r0, r3]
 8001fe6:	3304      	adds	r3, #4

08001fe8 <LoopCopyDataInit>:
 8001fe8:	18c4      	adds	r4, r0, r3
 8001fea:	428c      	cmp	r4, r1
 8001fec:	d3f9      	bcc.n	8001fe2 <CopyDataInit>
 8001fee:	4a0b      	ldr	r2, [pc, #44]	; (800201c <LoopFillZerobss+0x22>)
 8001ff0:	4c0b      	ldr	r4, [pc, #44]	; (8002020 <LoopFillZerobss+0x26>)
 8001ff2:	2300      	movs	r3, #0
 8001ff4:	e001      	b.n	8001ffa <LoopFillZerobss>

08001ff6 <FillZerobss>:
 8001ff6:	6013      	str	r3, [r2, #0]
 8001ff8:	3204      	adds	r2, #4

08001ffa <LoopFillZerobss>:
 8001ffa:	42a2      	cmp	r2, r4
 8001ffc:	d3fb      	bcc.n	8001ff6 <FillZerobss>
 8001ffe:	f7ff ffb3 	bl	8001f68 <SystemInit>
 8002002:	f006 fbe5 	bl	80087d0 <__libc_init_array>
 8002006:	f7fe fa9d 	bl	8000544 <main>
 800200a:	4770      	bx	lr
 800200c:	20080000 	.word	0x20080000
 8002010:	20000000 	.word	0x20000000
 8002014:	20000074 	.word	0x20000074
 8002018:	08008980 	.word	0x08008980
 800201c:	20000074 	.word	0x20000074
 8002020:	2000439c 	.word	0x2000439c

08002024 <ADC_IRQHandler>:
 8002024:	e7fe      	b.n	8002024 <ADC_IRQHandler>

08002026 <HAL_Init>:
  *         need to ensure that the SysTick time base is always set to 1 millisecond
  *         to have correct HAL operation.
  * @retval HAL status
  */
HAL_StatusTypeDef HAL_Init(void)
{
 8002026:	b580      	push	{r7, lr}
 8002028:	af00      	add	r7, sp, #0
#if (PREFETCH_ENABLE != 0U)
  __HAL_FLASH_PREFETCH_BUFFER_ENABLE();
#endif /* PREFETCH_ENABLE */

  /* Set Interrupt Group Priority */
  HAL_NVIC_SetPriorityGrouping(NVIC_PRIORITYGROUP_4);
 800202a:	2003      	movs	r0, #3
 800202c:	f000 f8f9 	bl	8002222 <HAL_NVIC_SetPriorityGrouping>

  /* Use systick as time base source and configure 1ms tick (default clock after Reset is HSI) */
  HAL_InitTick(TICK_INT_PRIORITY);
 8002030:	2000      	movs	r0, #0
 8002032:	f7ff ff03 	bl	8001e3c <HAL_InitTick>

  /* Init the low level hardware */
  HAL_MspInit();
 8002036:	f7ff fccf 	bl	80019d8 <HAL_MspInit>

  /* Return function status */
  return HAL_OK;
 800203a:	2300      	movs	r3, #0
}
 800203c:	4618      	mov	r0, r3
 800203e:	bd80      	pop	{r7, pc}

08002040 <HAL_IncTick>:
 * @note This function is declared as __weak to be overwritten in case of other 
  *      implementations in user file.
  * @retval None
  */
__weak void HAL_IncTick(void)
{
 8002040:	b480      	push	{r7}
 8002042:	af00      	add	r7, sp, #0
  uwTick += uwTickFreq;
 8002044:	4b06      	ldr	r3, [pc, #24]	; (8002060 <HAL_IncTick+0x20>)
 8002046:	781b      	ldrb	r3, [r3, #0]
 8002048:	461a      	mov	r2, r3
 800204a:	4b06      	ldr	r3, [pc, #24]	; (8002064 <HAL_IncTick+0x24>)
 800204c:	681b      	ldr	r3, [r3, #0]
 800204e:	4413      	add	r3, r2
 8002050:	4a04      	ldr	r2, [pc, #16]	; (8002064 <HAL_IncTick+0x24>)
 8002052:	6013      	str	r3, [r2, #0]
}
 8002054:	bf00      	nop
 8002056:	46bd      	mov	sp, r7
 8002058:	f85d 7b04 	ldr.w	r7, [sp], #4
 800205c:	4770      	bx	lr
 800205e:	bf00      	nop
 8002060:	20000008 	.word	0x20000008
 8002064:	2000064c 	.word	0x2000064c

08002068 <HAL_GetTick>:
  * @note This function is declared as __weak to be overwritten in case of other 
  *       implementations in user file.
  * @retval tick value
  */
__weak uint32_t HAL_GetTick(void)
{
 8002068:	b480      	push	{r7}
 800206a:	af00      	add	r7, sp, #0
  return uwTick;
 800206c:	4b03      	ldr	r3, [pc, #12]	; (800207c <HAL_GetTick+0x14>)
 800206e:	681b      	ldr	r3, [r3, #0]
}
 8002070:	4618      	mov	r0, r3
 8002072:	46bd      	mov	sp, r7
 8002074:	f85d 7b04 	ldr.w	r7, [sp], #4
 8002078:	4770      	bx	lr
 800207a:	bf00      	nop
 800207c:	2000064c 	.word	0x2000064c

08002080 <HAL_Delay>:
  *       implementations in user file.
  * @param Delay  specifies the delay time length, in milliseconds.
  * @retval None
  */
__weak void HAL_Delay(uint32_t Delay)
{
 8002080:	b580      	push	{r7, lr}
 8002082:	b084      	sub	sp, #16
 8002084:	af00      	add	r7, sp, #0
 8002086:	6078      	str	r0, [r7, #4]
  uint32_t tickstart = HAL_GetTick();
 8002088:	f7ff ffee 	bl	8002068 <HAL_GetTick>
 800208c:	60b8      	str	r0, [r7, #8]
  uint32_t wait = Delay;
 800208e:	687b      	ldr	r3, [r7, #4]
 8002090:	60fb      	str	r3, [r7, #12]

  /* Add a freq to guarantee minimum wait */
  if (wait < HAL_MAX_DELAY)
 8002092:	68fb      	ldr	r3, [r7, #12]
 8002094:	f1b3 3fff 	cmp.w	r3, #4294967295
 8002098:	d005      	beq.n	80020a6 <HAL_Delay+0x26>
  {
    wait += (uint32_t)(uwTickFreq);
 800209a:	4b0a      	ldr	r3, [pc, #40]	; (80020c4 <HAL_Delay+0x44>)
 800209c:	781b      	ldrb	r3, [r3, #0]
 800209e:	461a      	mov	r2, r3
 80020a0:	68fb      	ldr	r3, [r7, #12]
 80020a2:	4413      	add	r3, r2
 80020a4:	60fb      	str	r3, [r7, #12]
  }

  while ((HAL_GetTick() - tickstart) < wait)
 80020a6:	bf00      	nop
 80020a8:	f7ff ffde 	bl	8002068 <HAL_GetTick>
 80020ac:	4602      	mov	r2, r0
 80020ae:	68bb      	ldr	r3, [r7, #8]
 80020b0:	1ad3      	subs	r3, r2, r3
 80020b2:	68fa      	ldr	r2, [r7, #12]
 80020b4:	429a      	cmp	r2, r3
 80020b6:	d8f7      	bhi.n	80020a8 <HAL_Delay+0x28>
  {
  }
}
 80020b8:	bf00      	nop
 80020ba:	bf00      	nop
 80020bc:	3710      	adds	r7, #16
 80020be:	46bd      	mov	sp, r7
 80020c0:	bd80      	pop	{r7, pc}
 80020c2:	bf00      	nop
 80020c4:	20000008 	.word	0x20000008

080020c8 <__NVIC_SetPriorityGrouping>:
           In case of a conflict between priority grouping and available
           priority bits (__NVIC_PRIO_BITS), the smallest possible priority group is set.
  \param [in]      PriorityGroup  Priority grouping field.
 */
__STATIC_INLINE void __NVIC_SetPriorityGrouping(uint32_t PriorityGroup)
{
 80020c8:	b480      	push	{r7}
 80020ca:	b085      	sub	sp, #20
 80020cc:	af00      	add	r7, sp, #0
 80020ce:	6078      	str	r0, [r7, #4]
  uint32_t reg_value;
  uint32_t PriorityGroupTmp = (PriorityGroup & (uint32_t)0x07UL);             /* only values 0..7 are used          */
 80020d0:	687b      	ldr	r3, [r7, #4]
 80020d2:	f003 0307 	and.w	r3, r3, #7
 80020d6:	60fb      	str	r3, [r7, #12]

  reg_value  =  SCB->AIRCR;                                                   /* read old register configuration    */
 80020d8:	4b0b      	ldr	r3, [pc, #44]	; (8002108 <__NVIC_SetPriorityGrouping+0x40>)
 80020da:	68db      	ldr	r3, [r3, #12]
 80020dc:	60bb      	str	r3, [r7, #8]
  reg_value &= ~((uint32_t)(SCB_AIRCR_VECTKEY_Msk | SCB_AIRCR_PRIGROUP_Msk)); /* clear bits to change               */
 80020de:	68ba      	ldr	r2, [r7, #8]
 80020e0:	f64f 03ff 	movw	r3, #63743	; 0xf8ff
 80020e4:	4013      	ands	r3, r2
 80020e6:	60bb      	str	r3, [r7, #8]
  reg_value  =  (reg_value                                   |
                ((uint32_t)0x5FAUL << SCB_AIRCR_VECTKEY_Pos) |
                (PriorityGroupTmp << SCB_AIRCR_PRIGROUP_Pos)  );              /* Insert write key and priority group */
 80020e8:	68fb      	ldr	r3, [r7, #12]
 80020ea:	021a      	lsls	r2, r3, #8
                ((uint32_t)0x5FAUL << SCB_AIRCR_VECTKEY_Pos) |
 80020ec:	68bb      	ldr	r3, [r7, #8]
 80020ee:	431a      	orrs	r2, r3
  reg_value  =  (reg_value                                   |
 80020f0:	4b06      	ldr	r3, [pc, #24]	; (800210c <__NVIC_SetPriorityGrouping+0x44>)
 80020f2:	4313      	orrs	r3, r2
 80020f4:	60bb      	str	r3, [r7, #8]
  SCB->AIRCR =  reg_value;
 80020f6:	4a04      	ldr	r2, [pc, #16]	; (8002108 <__NVIC_SetPriorityGrouping+0x40>)
 80020f8:	68bb      	ldr	r3, [r7, #8]
 80020fa:	60d3      	str	r3, [r2, #12]
}
 80020fc:	bf00      	nop
 80020fe:	3714      	adds	r7, #20
 8002100:	46bd      	mov	sp, r7
 8002102:	f85d 7b04 	ldr.w	r7, [sp], #4
 8002106:	4770      	bx	lr
 8002108:	e000ed00 	.word	0xe000ed00
 800210c:	05fa0000 	.word	0x05fa0000

08002110 <__NVIC_GetPriorityGrouping>:
  \brief   Get Priority Grouping
  \details Reads the priority grouping field from the NVIC Interrupt Controller.
  \return                Priority grouping field (SCB->AIRCR [10:8] PRIGROUP field).
 */
__STATIC_INLINE uint32_t __NVIC_GetPriorityGrouping(void)
{
 8002110:	b480      	push	{r7}
 8002112:	af00      	add	r7, sp, #0
  return ((uint32_t)((SCB->AIRCR & SCB_AIRCR_PRIGROUP_Msk) >> SCB_AIRCR_PRIGROUP_Pos));
 8002114:	4b04      	ldr	r3, [pc, #16]	; (8002128 <__NVIC_GetPriorityGrouping+0x18>)
 8002116:	68db      	ldr	r3, [r3, #12]
 8002118:	0a1b      	lsrs	r3, r3, #8
 800211a:	f003 0307 	and.w	r3, r3, #7
}
 800211e:	4618      	mov	r0, r3
 8002120:	46bd      	mov	sp, r7
 8002122:	f85d 7b04 	ldr.w	r7, [sp], #4
 8002126:	4770      	bx	lr
 8002128:	e000ed00 	.word	0xe000ed00

0800212c <__NVIC_EnableIRQ>:
  \details Enables a device specific interrupt in the NVIC interrupt controller.
  \param [in]      IRQn  Device specific interrupt number.
  \note    IRQn must not be negative.
 */
__STATIC_INLINE void __NVIC_EnableIRQ(IRQn_Type IRQn)
{
 800212c:	b480      	push	{r7}
 800212e:	b083      	sub	sp, #12
 8002130:	af00      	add	r7, sp, #0
 8002132:	4603      	mov	r3, r0
 8002134:	71fb      	strb	r3, [r7, #7]
  if ((int32_t)(IRQn) >= 0)
 8002136:	f997 3007 	ldrsb.w	r3, [r7, #7]
 800213a:	2b00      	cmp	r3, #0
 800213c:	db0b      	blt.n	8002156 <__NVIC_EnableIRQ+0x2a>
  {
    NVIC->ISER[(((uint32_t)IRQn) >> 5UL)] = (uint32_t)(1UL << (((uint32_t)IRQn) & 0x1FUL));
 800213e:	79fb      	ldrb	r3, [r7, #7]
 8002140:	f003 021f 	and.w	r2, r3, #31
 8002144:	4907      	ldr	r1, [pc, #28]	; (8002164 <__NVIC_EnableIRQ+0x38>)
 8002146:	f997 3007 	ldrsb.w	r3, [r7, #7]
 800214a:	095b      	lsrs	r3, r3, #5
 800214c:	2001      	movs	r0, #1
 800214e:	fa00 f202 	lsl.w	r2, r0, r2
 8002152:	f841 2023 	str.w	r2, [r1, r3, lsl #2]
  }
}
 8002156:	bf00      	nop
 8002158:	370c      	adds	r7, #12
 800215a:	46bd      	mov	sp, r7
 800215c:	f85d 7b04 	ldr.w	r7, [sp], #4
 8002160:	4770      	bx	lr
 8002162:	bf00      	nop
 8002164:	e000e100 	.word	0xe000e100

08002168 <__NVIC_SetPriority>:
  \param [in]      IRQn  Interrupt number.
  \param [in]  priority  Priority to set.
  \note    The priority cannot be set for every processor exception.
 */
__STATIC_INLINE void __NVIC_SetPriority(IRQn_Type IRQn, uint32_t priority)
{
 8002168:	b480      	push	{r7}
 800216a:	b083      	sub	sp, #12
 800216c:	af00      	add	r7, sp, #0
 800216e:	4603      	mov	r3, r0
 8002170:	6039      	str	r1, [r7, #0]
 8002172:	71fb      	strb	r3, [r7, #7]
  if ((int32_t)(IRQn) >= 0)
 8002174:	f997 3007 	ldrsb.w	r3, [r7, #7]
 8002178:	2b00      	cmp	r3, #0
 800217a:	db0a      	blt.n	8002192 <__NVIC_SetPriority+0x2a>
  {
    NVIC->IP[((uint32_t)IRQn)]                = (uint8_t)((priority << (8U - __NVIC_PRIO_BITS)) & (uint32_t)0xFFUL);
 800217c:	683b      	ldr	r3, [r7, #0]
 800217e:	b2da      	uxtb	r2, r3
 8002180:	490c      	ldr	r1, [pc, #48]	; (80021b4 <__NVIC_SetPriority+0x4c>)
 8002182:	f997 3007 	ldrsb.w	r3, [r7, #7]
 8002186:	0112      	lsls	r2, r2, #4
 8002188:	b2d2      	uxtb	r2, r2
 800218a:	440b      	add	r3, r1
 800218c:	f883 2300 	strb.w	r2, [r3, #768]	; 0x300
  }
  else
  {
    SCB->SHPR[(((uint32_t)IRQn) & 0xFUL)-4UL] = (uint8_t)((priority << (8U - __NVIC_PRIO_BITS)) & (uint32_t)0xFFUL);
  }
}
 8002190:	e00a      	b.n	80021a8 <__NVIC_SetPriority+0x40>
    SCB->SHPR[(((uint32_t)IRQn) & 0xFUL)-4UL] = (uint8_t)((priority << (8U - __NVIC_PRIO_BITS)) & (uint32_t)0xFFUL);
 8002192:	683b      	ldr	r3, [r7, #0]
 8002194:	b2da      	uxtb	r2, r3
 8002196:	4908      	ldr	r1, [pc, #32]	; (80021b8 <__NVIC_SetPriority+0x50>)
 8002198:	79fb      	ldrb	r3, [r7, #7]
 800219a:	f003 030f 	and.w	r3, r3, #15
 800219e:	3b04      	subs	r3, #4
 80021a0:	0112      	lsls	r2, r2, #4
 80021a2:	b2d2      	uxtb	r2, r2
 80021a4:	440b      	add	r3, r1
 80021a6:	761a      	strb	r2, [r3, #24]
}
 80021a8:	bf00      	nop
 80021aa:	370c      	adds	r7, #12
 80021ac:	46bd      	mov	sp, r7
 80021ae:	f85d 7b04 	ldr.w	r7, [sp], #4
 80021b2:	4770      	bx	lr
 80021b4:	e000e100 	.word	0xe000e100
 80021b8:	e000ed00 	.word	0xe000ed00

080021bc <NVIC_EncodePriority>:
  \param [in]   PreemptPriority  Preemptive priority value (starting from 0).
  \param [in]       SubPriority  Subpriority value (starting from 0).
  \return                        Encoded priority. Value can be used in the function \ref NVIC_SetPriority().
 */
__STATIC_INLINE uint32_t NVIC_EncodePriority (uint32_t PriorityGroup, uint32_t PreemptPriority, uint32_t SubPriority)
{
 80021bc:	b480      	push	{r7}
 80021be:	b089      	sub	sp, #36	; 0x24
 80021c0:	af00      	add	r7, sp, #0
 80021c2:	60f8      	str	r0, [r7, #12]
 80021c4:	60b9      	str	r1, [r7, #8]
 80021c6:	607a      	str	r2, [r7, #4]
  uint32_t PriorityGroupTmp = (PriorityGroup & (uint32_t)0x07UL);   /* only values 0..7 are used          */
 80021c8:	68fb      	ldr	r3, [r7, #12]
 80021ca:	f003 0307 	and.w	r3, r3, #7
 80021ce:	61fb      	str	r3, [r7, #28]
  uint32_t PreemptPriorityBits;
  uint32_t SubPriorityBits;

  PreemptPriorityBits = ((7UL - PriorityGroupTmp) > (uint32_t)(__NVIC_PRIO_BITS)) ? (uint32_t)(__NVIC_PRIO_BITS) : (uint32_t)(7UL - PriorityGroupTmp);
 80021d0:	69fb      	ldr	r3, [r7, #28]
 80021d2:	f1c3 0307 	rsb	r3, r3, #7
 80021d6:	2b04      	cmp	r3, #4
 80021d8:	bf28      	it	cs
 80021da:	2304      	movcs	r3, #4
 80021dc:	61bb      	str	r3, [r7, #24]
  SubPriorityBits     = ((PriorityGroupTmp + (uint32_t)(__NVIC_PRIO_BITS)) < (uint32_t)7UL) ? (uint32_t)0UL : (uint32_t)((PriorityGroupTmp - 7UL) + (uint32_t)(__NVIC_PRIO_BITS));
 80021de:	69fb      	ldr	r3, [r7, #28]
 80021e0:	3304      	adds	r3, #4
 80021e2:	2b06      	cmp	r3, #6
 80021e4:	d902      	bls.n	80021ec <NVIC_EncodePriority+0x30>
 80021e6:	69fb      	ldr	r3, [r7, #28]
 80021e8:	3b03      	subs	r3, #3
 80021ea:	e000      	b.n	80021ee <NVIC_EncodePriority+0x32>
 80021ec:	2300      	movs	r3, #0
 80021ee:	617b      	str	r3, [r7, #20]

  return (
           ((PreemptPriority & (uint32_t)((1UL << (PreemptPriorityBits)) - 1UL)) << SubPriorityBits) |
 80021f0:	f04f 32ff 	mov.w	r2, #4294967295
 80021f4:	69bb      	ldr	r3, [r7, #24]
 80021f6:	fa02 f303 	lsl.w	r3, r2, r3
 80021fa:	43da      	mvns	r2, r3
 80021fc:	68bb      	ldr	r3, [r7, #8]
 80021fe:	401a      	ands	r2, r3
 8002200:	697b      	ldr	r3, [r7, #20]
 8002202:	409a      	lsls	r2, r3
           ((SubPriority     & (uint32_t)((1UL << (SubPriorityBits    )) - 1UL)))
 8002204:	f04f 31ff 	mov.w	r1, #4294967295
 8002208:	697b      	ldr	r3, [r7, #20]
 800220a:	fa01 f303 	lsl.w	r3, r1, r3
 800220e:	43d9      	mvns	r1, r3
 8002210:	687b      	ldr	r3, [r7, #4]
 8002212:	400b      	ands	r3, r1
           ((PreemptPriority & (uint32_t)((1UL << (PreemptPriorityBits)) - 1UL)) << SubPriorityBits) |
 8002214:	4313      	orrs	r3, r2
         );
}
 8002216:	4618      	mov	r0, r3
 8002218:	3724      	adds	r7, #36	; 0x24
 800221a:	46bd      	mov	sp, r7
 800221c:	f85d 7b04 	ldr.w	r7, [sp], #4
 8002220:	4770      	bx	lr

08002222 <HAL_NVIC_SetPriorityGrouping>:
  * @note   When the NVIC_PriorityGroup_0 is selected, IRQ preemption is no more possible. 
  *         The pending IRQ priority will be managed only by the subpriority. 
  * @retval None
  */
void HAL_NVIC_SetPriorityGrouping(uint32_t PriorityGroup)
{
 8002222:	b580      	push	{r7, lr}
 8002224:	b082      	sub	sp, #8
 8002226:	af00      	add	r7, sp, #0
 8002228:	6078      	str	r0, [r7, #4]
  /* Check the parameters */
  assert_param(IS_NVIC_PRIORITY_GROUP(PriorityGroup));
  
  /* Set the PRIGROUP[10:8] bits according to the PriorityGroup parameter value */
  NVIC_SetPriorityGrouping(PriorityGroup);
 800222a:	6878      	ldr	r0, [r7, #4]
 800222c:	f7ff ff4c 	bl	80020c8 <__NVIC_SetPriorityGrouping>
}
 8002230:	bf00      	nop
 8002232:	3708      	adds	r7, #8
 8002234:	46bd      	mov	sp, r7
 8002236:	bd80      	pop	{r7, pc}

08002238 <HAL_NVIC_SetPriority>:
  *         This parameter can be a value between 0 and 15
  *         A lower priority value indicates a higher priority.          
  * @retval None
  */
void HAL_NVIC_SetPriority(IRQn_Type IRQn, uint32_t PreemptPriority, uint32_t SubPriority)
{ 
 8002238:	b580      	push	{r7, lr}
 800223a:	b086      	sub	sp, #24
 800223c:	af00      	add	r7, sp, #0
 800223e:	4603      	mov	r3, r0
 8002240:	60b9      	str	r1, [r7, #8]
 8002242:	607a      	str	r2, [r7, #4]
 8002244:	73fb      	strb	r3, [r7, #15]
  uint32_t prioritygroup = 0x00;
 8002246:	2300      	movs	r3, #0
 8002248:	617b      	str	r3, [r7, #20]
  
  /* Check the parameters */
  assert_param(IS_NVIC_SUB_PRIORITY(SubPriority));
  assert_param(IS_NVIC_PREEMPTION_PRIORITY(PreemptPriority));
  
  prioritygroup = NVIC_GetPriorityGrouping();
 800224a:	f7ff ff61 	bl	8002110 <__NVIC_GetPriorityGrouping>
 800224e:	6178      	str	r0, [r7, #20]
  
  NVIC_SetPriority(IRQn, NVIC_EncodePriority(prioritygroup, PreemptPriority, SubPriority));
 8002250:	687a      	ldr	r2, [r7, #4]
 8002252:	68b9      	ldr	r1, [r7, #8]
 8002254:	6978      	ldr	r0, [r7, #20]
 8002256:	f7ff ffb1 	bl	80021bc <NVIC_EncodePriority>
 800225a:	4602      	mov	r2, r0
 800225c:	f997 300f 	ldrsb.w	r3, [r7, #15]
 8002260:	4611      	mov	r1, r2
 8002262:	4618      	mov	r0, r3
 8002264:	f7ff ff80 	bl	8002168 <__NVIC_SetPriority>
}
 8002268:	bf00      	nop
 800226a:	3718      	adds	r7, #24
 800226c:	46bd      	mov	sp, r7
 800226e:	bd80      	pop	{r7, pc}

08002270 <HAL_NVIC_EnableIRQ>:
  *         This parameter can be an enumerator of IRQn_Type enumeration
  *         (For the complete STM32 Devices IRQ Channels list, please refer to the appropriate CMSIS device file (stm32f7xxxx.h))
  * @retval None
  */
void HAL_NVIC_EnableIRQ(IRQn_Type IRQn)
{
 8002270:	b580      	push	{r7, lr}
 8002272:	b082      	sub	sp, #8
 8002274:	af00      	add	r7, sp, #0
 8002276:	4603      	mov	r3, r0
 8002278:	71fb      	strb	r3, [r7, #7]
  /* Check the parameters */
  assert_param(IS_NVIC_DEVICE_IRQ(IRQn));
  
  /* Enable interrupt */
  NVIC_EnableIRQ(IRQn);
 800227a:	f997 3007 	ldrsb.w	r3, [r7, #7]
 800227e:	4618      	mov	r0, r3
 8002280:	f7ff ff54 	bl	800212c <__NVIC_EnableIRQ>
}
 8002284:	bf00      	nop
 8002286:	3708      	adds	r7, #8
 8002288:	46bd      	mov	sp, r7
 800228a:	bd80      	pop	{r7, pc}

0800228c <HAL_GPIO_Init>:
  * @param  GPIO_Init pointer to a GPIO_InitTypeDef structure that contains
  *         the configuration information for the specified GPIO peripheral.
  * @retval None
  */
void HAL_GPIO_Init(GPIO_TypeDef  *GPIOx, GPIO_InitTypeDef *GPIO_Init)
{
 800228c:	b480      	push	{r7}
 800228e:	b089      	sub	sp, #36	; 0x24
 8002290:	af00      	add	r7, sp, #0
 8002292:	6078      	str	r0, [r7, #4]
 8002294:	6039      	str	r1, [r7, #0]
  uint32_t position = 0x00;
 8002296:	2300      	movs	r3, #0
 8002298:	61fb      	str	r3, [r7, #28]
  uint32_t ioposition = 0x00;
 800229a:	2300      	movs	r3, #0
 800229c:	617b      	str	r3, [r7, #20]
  uint32_t iocurrent = 0x00;
 800229e:	2300      	movs	r3, #0
 80022a0:	613b      	str	r3, [r7, #16]
  uint32_t temp = 0x00;
 80022a2:	2300      	movs	r3, #0
 80022a4:	61bb      	str	r3, [r7, #24]
  assert_param(IS_GPIO_ALL_INSTANCE(GPIOx));
  assert_param(IS_GPIO_PIN(GPIO_Init->Pin));
  assert_param(IS_GPIO_MODE(GPIO_Init->Mode));

  /* Configure the port pins */
  for(position = 0; position < GPIO_NUMBER; position++)
 80022a6:	2300      	movs	r3, #0
 80022a8:	61fb      	str	r3, [r7, #28]
 80022aa:	e175      	b.n	8002598 <HAL_GPIO_Init+0x30c>
  {
    /* Get the IO position */
    ioposition = ((uint32_t)0x01) << position;
 80022ac:	2201      	movs	r2, #1
 80022ae:	69fb      	ldr	r3, [r7, #28]
 80022b0:	fa02 f303 	lsl.w	r3, r2, r3
 80022b4:	617b      	str	r3, [r7, #20]
    /* Get the current IO position */
    iocurrent = (uint32_t)(GPIO_Init->Pin) & ioposition;
 80022b6:	683b      	ldr	r3, [r7, #0]
 80022b8:	681b      	ldr	r3, [r3, #0]
 80022ba:	697a      	ldr	r2, [r7, #20]
 80022bc:	4013      	ands	r3, r2
 80022be:	613b      	str	r3, [r7, #16]

    if(iocurrent == ioposition)
 80022c0:	693a      	ldr	r2, [r7, #16]
 80022c2:	697b      	ldr	r3, [r7, #20]
 80022c4:	429a      	cmp	r2, r3
 80022c6:	f040 8164 	bne.w	8002592 <HAL_GPIO_Init+0x306>
    {
      /*--------------------- GPIO Mode Configuration ------------------------*/
      /* In case of Output or Alternate function mode selection */
      if(((GPIO_Init->Mode & GPIO_MODE) == MODE_OUTPUT) || ((GPIO_Init->Mode & GPIO_MODE) == MODE_AF))
 80022ca:	683b      	ldr	r3, [r7, #0]
 80022cc:	685b      	ldr	r3, [r3, #4]
 80022ce:	f003 0303 	and.w	r3, r3, #3
 80022d2:	2b01      	cmp	r3, #1
 80022d4:	d005      	beq.n	80022e2 <HAL_GPIO_Init+0x56>
 80022d6:	683b      	ldr	r3, [r7, #0]
 80022d8:	685b      	ldr	r3, [r3, #4]
 80022da:	f003 0303 	and.w	r3, r3, #3
 80022de:	2b02      	cmp	r3, #2
 80022e0:	d130      	bne.n	8002344 <HAL_GPIO_Init+0xb8>
      {
        /* Check the Speed parameter */
        assert_param(IS_GPIO_SPEED(GPIO_Init->Speed));
        /* Configure the IO Speed */
        temp = GPIOx->OSPEEDR; 
 80022e2:	687b      	ldr	r3, [r7, #4]
 80022e4:	689b      	ldr	r3, [r3, #8]
 80022e6:	61bb      	str	r3, [r7, #24]
        temp &= ~(GPIO_OSPEEDER_OSPEEDR0 << (position * 2));
 80022e8:	69fb      	ldr	r3, [r7, #28]
 80022ea:	005b      	lsls	r3, r3, #1
 80022ec:	2203      	movs	r2, #3
 80022ee:	fa02 f303 	lsl.w	r3, r2, r3
 80022f2:	43db      	mvns	r3, r3
 80022f4:	69ba      	ldr	r2, [r7, #24]
 80022f6:	4013      	ands	r3, r2
 80022f8:	61bb      	str	r3, [r7, #24]
        temp |= (GPIO_Init->Speed << (position * 2));
 80022fa:	683b      	ldr	r3, [r7, #0]
 80022fc:	68da      	ldr	r2, [r3, #12]
 80022fe:	69fb      	ldr	r3, [r7, #28]
 8002300:	005b      	lsls	r3, r3, #1
 8002302:	fa02 f303 	lsl.w	r3, r2, r3
 8002306:	69ba      	ldr	r2, [r7, #24]
 8002308:	4313      	orrs	r3, r2
 800230a:	61bb      	str	r3, [r7, #24]
        GPIOx->OSPEEDR = temp;
 800230c:	687b      	ldr	r3, [r7, #4]
 800230e:	69ba      	ldr	r2, [r7, #24]
 8002310:	609a      	str	r2, [r3, #8]

        /* Configure the IO Output Type */
        temp = GPIOx->OTYPER;
 8002312:	687b      	ldr	r3, [r7, #4]
 8002314:	685b      	ldr	r3, [r3, #4]
 8002316:	61bb      	str	r3, [r7, #24]
        temp &= ~(GPIO_OTYPER_OT_0 << position) ;
 8002318:	2201      	movs	r2, #1
 800231a:	69fb      	ldr	r3, [r7, #28]
 800231c:	fa02 f303 	lsl.w	r3, r2, r3
 8002320:	43db      	mvns	r3, r3
 8002322:	69ba      	ldr	r2, [r7, #24]
 8002324:	4013      	ands	r3, r2
 8002326:	61bb      	str	r3, [r7, #24]
        temp |= (((GPIO_Init->Mode & OUTPUT_TYPE) >> OUTPUT_TYPE_Pos) << position);
 8002328:	683b      	ldr	r3, [r7, #0]
 800232a:	685b      	ldr	r3, [r3, #4]
 800232c:	091b      	lsrs	r3, r3, #4
 800232e:	f003 0201 	and.w	r2, r3, #1
 8002332:	69fb      	ldr	r3, [r7, #28]
 8002334:	fa02 f303 	lsl.w	r3, r2, r3
 8002338:	69ba      	ldr	r2, [r7, #24]
 800233a:	4313      	orrs	r3, r2
 800233c:	61bb      	str	r3, [r7, #24]
        GPIOx->OTYPER = temp;
 800233e:	687b      	ldr	r3, [r7, #4]
 8002340:	69ba      	ldr	r2, [r7, #24]
 8002342:	605a      	str	r2, [r3, #4]
      }
      
      if((GPIO_Init->Mode & GPIO_MODE) != MODE_ANALOG)
 8002344:	683b      	ldr	r3, [r7, #0]
 8002346:	685b      	ldr	r3, [r3, #4]
 8002348:	f003 0303 	and.w	r3, r3, #3
 800234c:	2b03      	cmp	r3, #3
 800234e:	d017      	beq.n	8002380 <HAL_GPIO_Init+0xf4>
      {
        /* Check the Pull parameter */
        assert_param(IS_GPIO_PULL(GPIO_Init->Pull));

        /* Activate the Pull-up or Pull down resistor for the current IO */
        temp = GPIOx->PUPDR;
 8002350:	687b      	ldr	r3, [r7, #4]
 8002352:	68db      	ldr	r3, [r3, #12]
 8002354:	61bb      	str	r3, [r7, #24]
        temp &= ~(GPIO_PUPDR_PUPDR0 << (position * 2));
 8002356:	69fb      	ldr	r3, [r7, #28]
 8002358:	005b      	lsls	r3, r3, #1
 800235a:	2203      	movs	r2, #3
 800235c:	fa02 f303 	lsl.w	r3, r2, r3
 8002360:	43db      	mvns	r3, r3
 8002362:	69ba      	ldr	r2, [r7, #24]
 8002364:	4013      	ands	r3, r2
 8002366:	61bb      	str	r3, [r7, #24]
        temp |= ((GPIO_Init->Pull) << (position * 2));
 8002368:	683b      	ldr	r3, [r7, #0]
 800236a:	689a      	ldr	r2, [r3, #8]
 800236c:	69fb      	ldr	r3, [r7, #28]
 800236e:	005b      	lsls	r3, r3, #1
 8002370:	fa02 f303 	lsl.w	r3, r2, r3
 8002374:	69ba      	ldr	r2, [r7, #24]
 8002376:	4313      	orrs	r3, r2
 8002378:	61bb      	str	r3, [r7, #24]
        GPIOx->PUPDR = temp;
 800237a:	687b      	ldr	r3, [r7, #4]
 800237c:	69ba      	ldr	r2, [r7, #24]
 800237e:	60da      	str	r2, [r3, #12]
      }

      /* In case of Alternate function mode selection */
      if((GPIO_Init->Mode & GPIO_MODE) == MODE_AF)
 8002380:	683b      	ldr	r3, [r7, #0]
 8002382:	685b      	ldr	r3, [r3, #4]
 8002384:	f003 0303 	and.w	r3, r3, #3
 8002388:	2b02      	cmp	r3, #2
 800238a:	d123      	bne.n	80023d4 <HAL_GPIO_Init+0x148>
      {
        /* Check the Alternate function parameter */
        assert_param(IS_GPIO_AF(GPIO_Init->Alternate));

        /* Configure Alternate function mapped with the current IO */
        temp = GPIOx->AFR[position >> 3];
 800238c:	69fb      	ldr	r3, [r7, #28]
 800238e:	08da      	lsrs	r2, r3, #3
 8002390:	687b      	ldr	r3, [r7, #4]
 8002392:	3208      	adds	r2, #8
 8002394:	f853 3022 	ldr.w	r3, [r3, r2, lsl #2]
 8002398:	61bb      	str	r3, [r7, #24]
        temp &= ~((uint32_t)0xF << ((uint32_t)(position & (uint32_t)0x07) * 4)) ;
 800239a:	69fb      	ldr	r3, [r7, #28]
 800239c:	f003 0307 	and.w	r3, r3, #7
 80023a0:	009b      	lsls	r3, r3, #2
 80023a2:	220f      	movs	r2, #15
 80023a4:	fa02 f303 	lsl.w	r3, r2, r3
 80023a8:	43db      	mvns	r3, r3
 80023aa:	69ba      	ldr	r2, [r7, #24]
 80023ac:	4013      	ands	r3, r2
 80023ae:	61bb      	str	r3, [r7, #24]
        temp |= ((uint32_t)(GPIO_Init->Alternate) << (((uint32_t)position & (uint32_t)0x07) * 4));
 80023b0:	683b      	ldr	r3, [r7, #0]
 80023b2:	691a      	ldr	r2, [r3, #16]
 80023b4:	69fb      	ldr	r3, [r7, #28]
 80023b6:	f003 0307 	and.w	r3, r3, #7
 80023ba:	009b      	lsls	r3, r3, #2
 80023bc:	fa02 f303 	lsl.w	r3, r2, r3
 80023c0:	69ba      	ldr	r2, [r7, #24]
 80023c2:	4313      	orrs	r3, r2
 80023c4:	61bb      	str	r3, [r7, #24]
        GPIOx->AFR[position >> 3] = temp;
 80023c6:	69fb      	ldr	r3, [r7, #28]
 80023c8:	08da      	lsrs	r2, r3, #3
 80023ca:	687b      	ldr	r3, [r7, #4]
 80023cc:	3208      	adds	r2, #8
 80023ce:	69b9      	ldr	r1, [r7, #24]
 80023d0:	f843 1022 	str.w	r1, [r3, r2, lsl #2]
      }
      
      /* Configure IO Direction mode (Input, Output, Alternate or Analog) */
      temp = GPIOx->MODER;
 80023d4:	687b      	ldr	r3, [r7, #4]
 80023d6:	681b      	ldr	r3, [r3, #0]
 80023d8:	61bb      	str	r3, [r7, #24]
      temp &= ~(GPIO_MODER_MODER0 << (position * 2));
 80023da:	69fb      	ldr	r3, [r7, #28]
 80023dc:	005b      	lsls	r3, r3, #1
 80023de:	2203      	movs	r2, #3
 80023e0:	fa02 f303 	lsl.w	r3, r2, r3
 80023e4:	43db      	mvns	r3, r3
 80023e6:	69ba      	ldr	r2, [r7, #24]
 80023e8:	4013      	ands	r3, r2
 80023ea:	61bb      	str	r3, [r7, #24]
      temp |= ((GPIO_Init->Mode & GPIO_MODE) << (position * 2));
 80023ec:	683b      	ldr	r3, [r7, #0]
 80023ee:	685b      	ldr	r3, [r3, #4]
 80023f0:	f003 0203 	and.w	r2, r3, #3
 80023f4:	69fb      	ldr	r3, [r7, #28]
 80023f6:	005b      	lsls	r3, r3, #1
 80023f8:	fa02 f303 	lsl.w	r3, r2, r3
 80023fc:	69ba      	ldr	r2, [r7, #24]
 80023fe:	4313      	orrs	r3, r2
 8002400:	61bb      	str	r3, [r7, #24]
      GPIOx->MODER = temp;
 8002402:	687b      	ldr	r3, [r7, #4]
 8002404:	69ba      	ldr	r2, [r7, #24]
 8002406:	601a      	str	r2, [r3, #0]

      /*--------------------- EXTI Mode Configuration ------------------------*/
      /* Configure the External Interrupt or event for the current IO */
      if((GPIO_Init->Mode & EXTI_MODE) != 0x00u)
 8002408:	683b      	ldr	r3, [r7, #0]
 800240a:	685b      	ldr	r3, [r3, #4]
 800240c:	f403 3340 	and.w	r3, r3, #196608	; 0x30000
 8002410:	2b00      	cmp	r3, #0
 8002412:	f000 80be 	beq.w	8002592 <HAL_GPIO_Init+0x306>
      {
        /* Enable SYSCFG Clock */
        __HAL_RCC_SYSCFG_CLK_ENABLE();
 8002416:	4b66      	ldr	r3, [pc, #408]	; (80025b0 <HAL_GPIO_Init+0x324>)
 8002418:	6c5b      	ldr	r3, [r3, #68]	; 0x44
 800241a:	4a65      	ldr	r2, [pc, #404]	; (80025b0 <HAL_GPIO_Init+0x324>)
 800241c:	f443 4380 	orr.w	r3, r3, #16384	; 0x4000
 8002420:	6453      	str	r3, [r2, #68]	; 0x44
 8002422:	4b63      	ldr	r3, [pc, #396]	; (80025b0 <HAL_GPIO_Init+0x324>)
 8002424:	6c5b      	ldr	r3, [r3, #68]	; 0x44
 8002426:	f403 4380 	and.w	r3, r3, #16384	; 0x4000
 800242a:	60fb      	str	r3, [r7, #12]
 800242c:	68fb      	ldr	r3, [r7, #12]

        temp = SYSCFG->EXTICR[position >> 2];
 800242e:	4a61      	ldr	r2, [pc, #388]	; (80025b4 <HAL_GPIO_Init+0x328>)
 8002430:	69fb      	ldr	r3, [r7, #28]
 8002432:	089b      	lsrs	r3, r3, #2
 8002434:	3302      	adds	r3, #2
 8002436:	f852 3023 	ldr.w	r3, [r2, r3, lsl #2]
 800243a:	61bb      	str	r3, [r7, #24]
        temp &= ~(((uint32_t)0x0F) << (4 * (position & 0x03)));
 800243c:	69fb      	ldr	r3, [r7, #28]
 800243e:	f003 0303 	and.w	r3, r3, #3
 8002442:	009b      	lsls	r3, r3, #2
 8002444:	220f      	movs	r2, #15
 8002446:	fa02 f303 	lsl.w	r3, r2, r3
 800244a:	43db      	mvns	r3, r3
 800244c:	69ba      	ldr	r2, [r7, #24]
 800244e:	4013      	ands	r3, r2
 8002450:	61bb      	str	r3, [r7, #24]
        temp |= ((uint32_t)(GPIO_GET_INDEX(GPIOx)) << (4 * (position & 0x03)));
 8002452:	687b      	ldr	r3, [r7, #4]
 8002454:	4a58      	ldr	r2, [pc, #352]	; (80025b8 <HAL_GPIO_Init+0x32c>)
 8002456:	4293      	cmp	r3, r2
 8002458:	d037      	beq.n	80024ca <HAL_GPIO_Init+0x23e>
 800245a:	687b      	ldr	r3, [r7, #4]
 800245c:	4a57      	ldr	r2, [pc, #348]	; (80025bc <HAL_GPIO_Init+0x330>)
 800245e:	4293      	cmp	r3, r2
 8002460:	d031      	beq.n	80024c6 <HAL_GPIO_Init+0x23a>
 8002462:	687b      	ldr	r3, [r7, #4]
 8002464:	4a56      	ldr	r2, [pc, #344]	; (80025c0 <HAL_GPIO_Init+0x334>)
 8002466:	4293      	cmp	r3, r2
 8002468:	d02b      	beq.n	80024c2 <HAL_GPIO_Init+0x236>
 800246a:	687b      	ldr	r3, [r7, #4]
 800246c:	4a55      	ldr	r2, [pc, #340]	; (80025c4 <HAL_GPIO_Init+0x338>)
 800246e:	4293      	cmp	r3, r2
 8002470:	d025      	beq.n	80024be <HAL_GPIO_Init+0x232>
 8002472:	687b      	ldr	r3, [r7, #4]
 8002474:	4a54      	ldr	r2, [pc, #336]	; (80025c8 <HAL_GPIO_Init+0x33c>)
 8002476:	4293      	cmp	r3, r2
 8002478:	d01f      	beq.n	80024ba <HAL_GPIO_Init+0x22e>
 800247a:	687b      	ldr	r3, [r7, #4]
 800247c:	4a53      	ldr	r2, [pc, #332]	; (80025cc <HAL_GPIO_Init+0x340>)
 800247e:	4293      	cmp	r3, r2
 8002480:	d019      	beq.n	80024b6 <HAL_GPIO_Init+0x22a>
 8002482:	687b      	ldr	r3, [r7, #4]
 8002484:	4a52      	ldr	r2, [pc, #328]	; (80025d0 <HAL_GPIO_Init+0x344>)
 8002486:	4293      	cmp	r3, r2
 8002488:	d013      	beq.n	80024b2 <HAL_GPIO_Init+0x226>
 800248a:	687b      	ldr	r3, [r7, #4]
 800248c:	4a51      	ldr	r2, [pc, #324]	; (80025d4 <HAL_GPIO_Init+0x348>)
 800248e:	4293      	cmp	r3, r2
 8002490:	d00d      	beq.n	80024ae <HAL_GPIO_Init+0x222>
 8002492:	687b      	ldr	r3, [r7, #4]
 8002494:	4a50      	ldr	r2, [pc, #320]	; (80025d8 <HAL_GPIO_Init+0x34c>)
 8002496:	4293      	cmp	r3, r2
 8002498:	d007      	beq.n	80024aa <HAL_GPIO_Init+0x21e>
 800249a:	687b      	ldr	r3, [r7, #4]
 800249c:	4a4f      	ldr	r2, [pc, #316]	; (80025dc <HAL_GPIO_Init+0x350>)
 800249e:	4293      	cmp	r3, r2
 80024a0:	d101      	bne.n	80024a6 <HAL_GPIO_Init+0x21a>
 80024a2:	2309      	movs	r3, #9
 80024a4:	e012      	b.n	80024cc <HAL_GPIO_Init+0x240>
 80024a6:	230a      	movs	r3, #10
 80024a8:	e010      	b.n	80024cc <HAL_GPIO_Init+0x240>
 80024aa:	2308      	movs	r3, #8
 80024ac:	e00e      	b.n	80024cc <HAL_GPIO_Init+0x240>
 80024ae:	2307      	movs	r3, #7
 80024b0:	e00c      	b.n	80024cc <HAL_GPIO_Init+0x240>
 80024b2:	2306      	movs	r3, #6
 80024b4:	e00a      	b.n	80024cc <HAL_GPIO_Init+0x240>
 80024b6:	2305      	movs	r3, #5
 80024b8:	e008      	b.n	80024cc <HAL_GPIO_Init+0x240>
 80024ba:	2304      	movs	r3, #4
 80024bc:	e006      	b.n	80024cc <HAL_GPIO_Init+0x240>
 80024be:	2303      	movs	r3, #3
 80024c0:	e004      	b.n	80024cc <HAL_GPIO_Init+0x240>
 80024c2:	2302      	movs	r3, #2
 80024c4:	e002      	b.n	80024cc <HAL_GPIO_Init+0x240>
 80024c6:	2301      	movs	r3, #1
 80024c8:	e000      	b.n	80024cc <HAL_GPIO_Init+0x240>
 80024ca:	2300      	movs	r3, #0
 80024cc:	69fa      	ldr	r2, [r7, #28]
 80024ce:	f002 0203 	and.w	r2, r2, #3
 80024d2:	0092      	lsls	r2, r2, #2
 80024d4:	4093      	lsls	r3, r2
 80024d6:	69ba      	ldr	r2, [r7, #24]
 80024d8:	4313      	orrs	r3, r2
 80024da:	61bb      	str	r3, [r7, #24]
        SYSCFG->EXTICR[position >> 2] = temp;
 80024dc:	4935      	ldr	r1, [pc, #212]	; (80025b4 <HAL_GPIO_Init+0x328>)
 80024de:	69fb      	ldr	r3, [r7, #28]
 80024e0:	089b      	lsrs	r3, r3, #2
 80024e2:	3302      	adds	r3, #2
 80024e4:	69ba      	ldr	r2, [r7, #24]
 80024e6:	f841 2023 	str.w	r2, [r1, r3, lsl #2]

        /* Clear Rising Falling edge configuration */
        temp = EXTI->RTSR;
 80024ea:	4b3d      	ldr	r3, [pc, #244]	; (80025e0 <HAL_GPIO_Init+0x354>)
 80024ec:	689b      	ldr	r3, [r3, #8]
 80024ee:	61bb      	str	r3, [r7, #24]
        temp &= ~((uint32_t)iocurrent);
 80024f0:	693b      	ldr	r3, [r7, #16]
 80024f2:	43db      	mvns	r3, r3
 80024f4:	69ba      	ldr	r2, [r7, #24]
 80024f6:	4013      	ands	r3, r2
 80024f8:	61bb      	str	r3, [r7, #24]
        if((GPIO_Init->Mode & TRIGGER_RISING) != 0x00u)
 80024fa:	683b      	ldr	r3, [r7, #0]
 80024fc:	685b      	ldr	r3, [r3, #4]
 80024fe:	f403 1380 	and.w	r3, r3, #1048576	; 0x100000
 8002502:	2b00      	cmp	r3, #0
 8002504:	d003      	beq.n	800250e <HAL_GPIO_Init+0x282>
        {
          temp |= iocurrent;
 8002506:	69ba      	ldr	r2, [r7, #24]
 8002508:	693b      	ldr	r3, [r7, #16]
 800250a:	4313      	orrs	r3, r2
 800250c:	61bb      	str	r3, [r7, #24]
        }
        EXTI->RTSR = temp;
 800250e:	4a34      	ldr	r2, [pc, #208]	; (80025e0 <HAL_GPIO_Init+0x354>)
 8002510:	69bb      	ldr	r3, [r7, #24]
 8002512:	6093      	str	r3, [r2, #8]

        temp = EXTI->FTSR;
 8002514:	4b32      	ldr	r3, [pc, #200]	; (80025e0 <HAL_GPIO_Init+0x354>)
 8002516:	68db      	ldr	r3, [r3, #12]
 8002518:	61bb      	str	r3, [r7, #24]
        temp &= ~((uint32_t)iocurrent);
 800251a:	693b      	ldr	r3, [r7, #16]
 800251c:	43db      	mvns	r3, r3
 800251e:	69ba      	ldr	r2, [r7, #24]
 8002520:	4013      	ands	r3, r2
 8002522:	61bb      	str	r3, [r7, #24]
        if((GPIO_Init->Mode & TRIGGER_FALLING) != 0x00u)
 8002524:	683b      	ldr	r3, [r7, #0]
 8002526:	685b      	ldr	r3, [r3, #4]
 8002528:	f403 1300 	and.w	r3, r3, #2097152	; 0x200000
 800252c:	2b00      	cmp	r3, #0
 800252e:	d003      	beq.n	8002538 <HAL_GPIO_Init+0x2ac>
        {
          temp |= iocurrent;
 8002530:	69ba      	ldr	r2, [r7, #24]
 8002532:	693b      	ldr	r3, [r7, #16]
 8002534:	4313      	orrs	r3, r2
 8002536:	61bb      	str	r3, [r7, #24]
        }
        EXTI->FTSR = temp;
 8002538:	4a29      	ldr	r2, [pc, #164]	; (80025e0 <HAL_GPIO_Init+0x354>)
 800253a:	69bb      	ldr	r3, [r7, #24]
 800253c:	60d3      	str	r3, [r2, #12]

        temp = EXTI->EMR;
 800253e:	4b28      	ldr	r3, [pc, #160]	; (80025e0 <HAL_GPIO_Init+0x354>)
 8002540:	685b      	ldr	r3, [r3, #4]
 8002542:	61bb      	str	r3, [r7, #24]
        temp &= ~((uint32_t)iocurrent);
 8002544:	693b      	ldr	r3, [r7, #16]
 8002546:	43db      	mvns	r3, r3
 8002548:	69ba      	ldr	r2, [r7, #24]
 800254a:	4013      	ands	r3, r2
 800254c:	61bb      	str	r3, [r7, #24]
        if((GPIO_Init->Mode & EXTI_EVT) != 0x00u)
 800254e:	683b      	ldr	r3, [r7, #0]
 8002550:	685b      	ldr	r3, [r3, #4]
 8002552:	f403 3300 	and.w	r3, r3, #131072	; 0x20000
 8002556:	2b00      	cmp	r3, #0
 8002558:	d003      	beq.n	8002562 <HAL_GPIO_Init+0x2d6>
        {
          temp |= iocurrent;
 800255a:	69ba      	ldr	r2, [r7, #24]
 800255c:	693b      	ldr	r3, [r7, #16]
 800255e:	4313      	orrs	r3, r2
 8002560:	61bb      	str	r3, [r7, #24]
        }
        EXTI->EMR = temp;
 8002562:	4a1f      	ldr	r2, [pc, #124]	; (80025e0 <HAL_GPIO_Init+0x354>)
 8002564:	69bb      	ldr	r3, [r7, #24]
 8002566:	6053      	str	r3, [r2, #4]

        /* Clear EXTI line configuration */
        temp = EXTI->IMR;
 8002568:	4b1d      	ldr	r3, [pc, #116]	; (80025e0 <HAL_GPIO_Init+0x354>)
 800256a:	681b      	ldr	r3, [r3, #0]
 800256c:	61bb      	str	r3, [r7, #24]
        temp &= ~((uint32_t)iocurrent);
 800256e:	693b      	ldr	r3, [r7, #16]
 8002570:	43db      	mvns	r3, r3
 8002572:	69ba      	ldr	r2, [r7, #24]
 8002574:	4013      	ands	r3, r2
 8002576:	61bb      	str	r3, [r7, #24]
        if((GPIO_Init->Mode & EXTI_IT) != 0x00u)
 8002578:	683b      	ldr	r3, [r7, #0]
 800257a:	685b      	ldr	r3, [r3, #4]
 800257c:	f403 3380 	and.w	r3, r3, #65536	; 0x10000
 8002580:	2b00      	cmp	r3, #0
 8002582:	d003      	beq.n	800258c <HAL_GPIO_Init+0x300>
        {
          temp |= iocurrent;
 8002584:	69ba      	ldr	r2, [r7, #24]
 8002586:	693b      	ldr	r3, [r7, #16]
 8002588:	4313      	orrs	r3, r2
 800258a:	61bb      	str	r3, [r7, #24]
        }
        EXTI->IMR = temp;
 800258c:	4a14      	ldr	r2, [pc, #80]	; (80025e0 <HAL_GPIO_Init+0x354>)
 800258e:	69bb      	ldr	r3, [r7, #24]
 8002590:	6013      	str	r3, [r2, #0]
  for(position = 0; position < GPIO_NUMBER; position++)
 8002592:	69fb      	ldr	r3, [r7, #28]
 8002594:	3301      	adds	r3, #1
 8002596:	61fb      	str	r3, [r7, #28]
 8002598:	69fb      	ldr	r3, [r7, #28]
 800259a:	2b0f      	cmp	r3, #15
 800259c:	f67f ae86 	bls.w	80022ac <HAL_GPIO_Init+0x20>
      }
    }
  }
}
 80025a0:	bf00      	nop
 80025a2:	bf00      	nop
 80025a4:	3724      	adds	r7, #36	; 0x24
 80025a6:	46bd      	mov	sp, r7
 80025a8:	f85d 7b04 	ldr.w	r7, [sp], #4
 80025ac:	4770      	bx	lr
 80025ae:	bf00      	nop
 80025b0:	40023800 	.word	0x40023800
 80025b4:	40013800 	.word	0x40013800
 80025b8:	40020000 	.word	0x40020000
 80025bc:	40020400 	.word	0x40020400
 80025c0:	40020800 	.word	0x40020800
 80025c4:	40020c00 	.word	0x40020c00
 80025c8:	40021000 	.word	0x40021000
 80025cc:	40021400 	.word	0x40021400
 80025d0:	40021800 	.word	0x40021800
 80025d4:	40021c00 	.word	0x40021c00
 80025d8:	40022000 	.word	0x40022000
 80025dc:	40022400 	.word	0x40022400
 80025e0:	40013c00 	.word	0x40013c00

080025e4 <HAL_GPIO_ReadPin>:
  * @param  GPIO_Pin specifies the port bit to read.
  *         This parameter can be GPIO_PIN_x where x can be (0..15).
  * @retval The input port pin value.
  */
GPIO_PinState HAL_GPIO_ReadPin(GPIO_TypeDef* GPIOx, uint16_t GPIO_Pin)
{
 80025e4:	b480      	push	{r7}
 80025e6:	b085      	sub	sp, #20
 80025e8:	af00      	add	r7, sp, #0
 80025ea:	6078      	str	r0, [r7, #4]
 80025ec:	460b      	mov	r3, r1
 80025ee:	807b      	strh	r3, [r7, #2]
  GPIO_PinState bitstatus;

  /* Check the parameters */
  assert_param(IS_GPIO_PIN(GPIO_Pin));

  if((GPIOx->IDR & GPIO_Pin) != (uint32_t)GPIO_PIN_RESET)
 80025f0:	687b      	ldr	r3, [r7, #4]
 80025f2:	691a      	ldr	r2, [r3, #16]
 80025f4:	887b      	ldrh	r3, [r7, #2]
 80025f6:	4013      	ands	r3, r2
 80025f8:	2b00      	cmp	r3, #0
 80025fa:	d002      	beq.n	8002602 <HAL_GPIO_ReadPin+0x1e>
  {
    bitstatus = GPIO_PIN_SET;
 80025fc:	2301      	movs	r3, #1
 80025fe:	73fb      	strb	r3, [r7, #15]
 8002600:	e001      	b.n	8002606 <HAL_GPIO_ReadPin+0x22>
  }
  else
  {
    bitstatus = GPIO_PIN_RESET;
 8002602:	2300      	movs	r3, #0
 8002604:	73fb      	strb	r3, [r7, #15]
  }
  return bitstatus;
 8002606:	7bfb      	ldrb	r3, [r7, #15]
}
 8002608:	4618      	mov	r0, r3
 800260a:	3714      	adds	r7, #20
 800260c:	46bd      	mov	sp, r7
 800260e:	f85d 7b04 	ldr.w	r7, [sp], #4
 8002612:	4770      	bx	lr

08002614 <HAL_GPIO_WritePin>:
  *            @arg GPIO_PIN_RESET: to clear the port pin
  *            @arg GPIO_PIN_SET: to set the port pin
  * @retval None
  */
void HAL_GPIO_WritePin(GPIO_TypeDef* GPIOx, uint16_t GPIO_Pin, GPIO_PinState PinState)
{
 8002614:	b480      	push	{r7}
 8002616:	b083      	sub	sp, #12
 8002618:	af00      	add	r7, sp, #0
 800261a:	6078      	str	r0, [r7, #4]
 800261c:	460b      	mov	r3, r1
 800261e:	807b      	strh	r3, [r7, #2]
 8002620:	4613      	mov	r3, r2
 8002622:	707b      	strb	r3, [r7, #1]
  /* Check the parameters */
  assert_param(IS_GPIO_PIN(GPIO_Pin));
  assert_param(IS_GPIO_PIN_ACTION(PinState));

  if(PinState != GPIO_PIN_RESET)
 8002624:	787b      	ldrb	r3, [r7, #1]
 8002626:	2b00      	cmp	r3, #0
 8002628:	d003      	beq.n	8002632 <HAL_GPIO_WritePin+0x1e>
  {
    GPIOx->BSRR = GPIO_Pin;
 800262a:	887a      	ldrh	r2, [r7, #2]
 800262c:	687b      	ldr	r3, [r7, #4]
 800262e:	619a      	str	r2, [r3, #24]
  }
  else
  {
    GPIOx->BSRR = (uint32_t)GPIO_Pin << 16;
  }
}
 8002630:	e003      	b.n	800263a <HAL_GPIO_WritePin+0x26>
    GPIOx->BSRR = (uint32_t)GPIO_Pin << 16;
 8002632:	887b      	ldrh	r3, [r7, #2]
 8002634:	041a      	lsls	r2, r3, #16
 8002636:	687b      	ldr	r3, [r7, #4]
 8002638:	619a      	str	r2, [r3, #24]
}
 800263a:	bf00      	nop
 800263c:	370c      	adds	r7, #12
 800263e:	46bd      	mov	sp, r7
 8002640:	f85d 7b04 	ldr.w	r7, [sp], #4
 8002644:	4770      	bx	lr

08002646 <HAL_GPIO_TogglePin>:
  * @param  GPIOx Where x can be (A..I) to select the GPIO peripheral.
  * @param  GPIO_Pin Specifies the pins to be toggled.
  * @retval None
  */
void HAL_GPIO_TogglePin(GPIO_TypeDef* GPIOx, uint16_t GPIO_Pin)
{
 8002646:	b480      	push	{r7}
 8002648:	b085      	sub	sp, #20
 800264a:	af00      	add	r7, sp, #0
 800264c:	6078      	str	r0, [r7, #4]
 800264e:	460b      	mov	r3, r1
 8002650:	807b      	strh	r3, [r7, #2]

  /* Check the parameters */
  assert_param(IS_GPIO_PIN(GPIO_Pin));

  /* get current Output Data Register value */
  odr = GPIOx->ODR;
 8002652:	687b      	ldr	r3, [r7, #4]
 8002654:	695b      	ldr	r3, [r3, #20]
 8002656:	60fb      	str	r3, [r7, #12]

  /* Set selected pins that were at low level, and reset ones that were high */
  GPIOx->BSRR = ((odr & GPIO_Pin) << GPIO_NUMBER) | (~odr & GPIO_Pin);
 8002658:	887a      	ldrh	r2, [r7, #2]
 800265a:	68fb      	ldr	r3, [r7, #12]
 800265c:	4013      	ands	r3, r2
 800265e:	041a      	lsls	r2, r3, #16
 8002660:	68fb      	ldr	r3, [r7, #12]
 8002662:	43d9      	mvns	r1, r3
 8002664:	887b      	ldrh	r3, [r7, #2]
 8002666:	400b      	ands	r3, r1
 8002668:	431a      	orrs	r2, r3
 800266a:	687b      	ldr	r3, [r7, #4]
 800266c:	619a      	str	r2, [r3, #24]
}
 800266e:	bf00      	nop
 8002670:	3714      	adds	r7, #20
 8002672:	46bd      	mov	sp, r7
 8002674:	f85d 7b04 	ldr.w	r7, [sp], #4
 8002678:	4770      	bx	lr
	...

0800267c <HAL_I2C_Init>:
  * @param  hi2c Pointer to a I2C_HandleTypeDef structure that contains
  *                the configuration information for the specified I2C.
  * @retval HAL status
  */
HAL_StatusTypeDef HAL_I2C_Init(I2C_HandleTypeDef *hi2c)
{
 800267c:	b580      	push	{r7, lr}
 800267e:	b082      	sub	sp, #8
 8002680:	af00      	add	r7, sp, #0
 8002682:	6078      	str	r0, [r7, #4]
  /* Check the I2C handle allocation */
  if (hi2c == NULL)
 8002684:	687b      	ldr	r3, [r7, #4]
 8002686:	2b00      	cmp	r3, #0
 8002688:	d101      	bne.n	800268e <HAL_I2C_Init+0x12>
  {
    return HAL_ERROR;
 800268a:	2301      	movs	r3, #1
 800268c:	e07f      	b.n	800278e <HAL_I2C_Init+0x112>
  assert_param(IS_I2C_OWN_ADDRESS2(hi2c->Init.OwnAddress2));
  assert_param(IS_I2C_OWN_ADDRESS2_MASK(hi2c->Init.OwnAddress2Masks));
  assert_param(IS_I2C_GENERAL_CALL(hi2c->Init.GeneralCallMode));
  assert_param(IS_I2C_NO_STRETCH(hi2c->Init.NoStretchMode));

  if (hi2c->State == HAL_I2C_STATE_RESET)
 800268e:	687b      	ldr	r3, [r7, #4]
 8002690:	f893 3041 	ldrb.w	r3, [r3, #65]	; 0x41
 8002694:	b2db      	uxtb	r3, r3
 8002696:	2b00      	cmp	r3, #0
 8002698:	d106      	bne.n	80026a8 <HAL_I2C_Init+0x2c>
  {
    /* Allocate lock resource and initialize it */
    hi2c->Lock = HAL_UNLOCKED;
 800269a:	687b      	ldr	r3, [r7, #4]
 800269c:	2200      	movs	r2, #0
 800269e:	f883 2040 	strb.w	r2, [r3, #64]	; 0x40

    /* Init the low level hardware : GPIO, CLOCK, CORTEX...etc */
    hi2c->MspInitCallback(hi2c);
#else
    /* Init the low level hardware : GPIO, CLOCK, CORTEX...etc */
    HAL_I2C_MspInit(hi2c);
 80026a2:	6878      	ldr	r0, [r7, #4]
 80026a4:	f7ff f9c0 	bl	8001a28 <HAL_I2C_MspInit>
#endif /* USE_HAL_I2C_REGISTER_CALLBACKS */
  }

  hi2c->State = HAL_I2C_STATE_BUSY;
 80026a8:	687b      	ldr	r3, [r7, #4]
 80026aa:	2224      	movs	r2, #36	; 0x24
 80026ac:	f883 2041 	strb.w	r2, [r3, #65]	; 0x41

  /* Disable the selected I2C peripheral */
  __HAL_I2C_DISABLE(hi2c);
 80026b0:	687b      	ldr	r3, [r7, #4]
 80026b2:	681b      	ldr	r3, [r3, #0]
 80026b4:	681a      	ldr	r2, [r3, #0]
 80026b6:	687b      	ldr	r3, [r7, #4]
 80026b8:	681b      	ldr	r3, [r3, #0]
 80026ba:	f022 0201 	bic.w	r2, r2, #1
 80026be:	601a      	str	r2, [r3, #0]

  /*---------------------------- I2Cx TIMINGR Configuration ------------------*/
  /* Configure I2Cx: Frequency range */
  hi2c->Instance->TIMINGR = hi2c->Init.Timing & TIMING_CLEAR_MASK;
 80026c0:	687b      	ldr	r3, [r7, #4]
 80026c2:	685a      	ldr	r2, [r3, #4]
 80026c4:	687b      	ldr	r3, [r7, #4]
 80026c6:	681b      	ldr	r3, [r3, #0]
 80026c8:	f022 6270 	bic.w	r2, r2, #251658240	; 0xf000000
 80026cc:	611a      	str	r2, [r3, #16]

  /*---------------------------- I2Cx OAR1 Configuration ---------------------*/
  /* Disable Own Address1 before set the Own Address1 configuration */
  hi2c->Instance->OAR1 &= ~I2C_OAR1_OA1EN;
 80026ce:	687b      	ldr	r3, [r7, #4]
 80026d0:	681b      	ldr	r3, [r3, #0]
 80026d2:	689a      	ldr	r2, [r3, #8]
 80026d4:	687b      	ldr	r3, [r7, #4]
 80026d6:	681b      	ldr	r3, [r3, #0]
 80026d8:	f422 4200 	bic.w	r2, r2, #32768	; 0x8000
 80026dc:	609a      	str	r2, [r3, #8]

  /* Configure I2Cx: Own Address1 and ack own address1 mode */
  if (hi2c->Init.AddressingMode == I2C_ADDRESSINGMODE_7BIT)
 80026de:	687b      	ldr	r3, [r7, #4]
 80026e0:	68db      	ldr	r3, [r3, #12]
 80026e2:	2b01      	cmp	r3, #1
 80026e4:	d107      	bne.n	80026f6 <HAL_I2C_Init+0x7a>
  {
    hi2c->Instance->OAR1 = (I2C_OAR1_OA1EN | hi2c->Init.OwnAddress1);
 80026e6:	687b      	ldr	r3, [r7, #4]
 80026e8:	689a      	ldr	r2, [r3, #8]
 80026ea:	687b      	ldr	r3, [r7, #4]
 80026ec:	681b      	ldr	r3, [r3, #0]
 80026ee:	f442 4200 	orr.w	r2, r2, #32768	; 0x8000
 80026f2:	609a      	str	r2, [r3, #8]
 80026f4:	e006      	b.n	8002704 <HAL_I2C_Init+0x88>
  }
  else /* I2C_ADDRESSINGMODE_10BIT */
  {
    hi2c->Instance->OAR1 = (I2C_OAR1_OA1EN | I2C_OAR1_OA1MODE | hi2c->Init.OwnAddress1);
 80026f6:	687b      	ldr	r3, [r7, #4]
 80026f8:	689a      	ldr	r2, [r3, #8]
 80026fa:	687b      	ldr	r3, [r7, #4]
 80026fc:	681b      	ldr	r3, [r3, #0]
 80026fe:	f442 4204 	orr.w	r2, r2, #33792	; 0x8400
 8002702:	609a      	str	r2, [r3, #8]
  }

  /*---------------------------- I2Cx CR2 Configuration ----------------------*/
  /* Configure I2Cx: Addressing Master mode */
  if (hi2c->Init.AddressingMode == I2C_ADDRESSINGMODE_10BIT)
 8002704:	687b      	ldr	r3, [r7, #4]
 8002706:	68db      	ldr	r3, [r3, #12]
 8002708:	2b02      	cmp	r3, #2
 800270a:	d104      	bne.n	8002716 <HAL_I2C_Init+0x9a>
  {
    hi2c->Instance->CR2 = (I2C_CR2_ADD10);
 800270c:	687b      	ldr	r3, [r7, #4]
 800270e:	681b      	ldr	r3, [r3, #0]
 8002710:	f44f 6200 	mov.w	r2, #2048	; 0x800
 8002714:	605a      	str	r2, [r3, #4]
  }
  /* Enable the AUTOEND by default, and enable NACK (should be disable only during Slave process */
  hi2c->Instance->CR2 |= (I2C_CR2_AUTOEND | I2C_CR2_NACK);
 8002716:	687b      	ldr	r3, [r7, #4]
 8002718:	681b      	ldr	r3, [r3, #0]
 800271a:	6859      	ldr	r1, [r3, #4]
 800271c:	687b      	ldr	r3, [r7, #4]
 800271e:	681a      	ldr	r2, [r3, #0]
 8002720:	4b1d      	ldr	r3, [pc, #116]	; (8002798 <HAL_I2C_Init+0x11c>)
 8002722:	430b      	orrs	r3, r1
 8002724:	6053      	str	r3, [r2, #4]

  /*---------------------------- I2Cx OAR2 Configuration ---------------------*/
  /* Disable Own Address2 before set the Own Address2 configuration */
  hi2c->Instance->OAR2 &= ~I2C_DUALADDRESS_ENABLE;
 8002726:	687b      	ldr	r3, [r7, #4]
 8002728:	681b      	ldr	r3, [r3, #0]
 800272a:	68da      	ldr	r2, [r3, #12]
 800272c:	687b      	ldr	r3, [r7, #4]
 800272e:	681b      	ldr	r3, [r3, #0]
 8002730:	f422 4200 	bic.w	r2, r2, #32768	; 0x8000
 8002734:	60da      	str	r2, [r3, #12]

  /* Configure I2Cx: Dual mode and Own Address2 */
  hi2c->Instance->OAR2 = (hi2c->Init.DualAddressMode | hi2c->Init.OwnAddress2 | \
 8002736:	687b      	ldr	r3, [r7, #4]
 8002738:	691a      	ldr	r2, [r3, #16]
 800273a:	687b      	ldr	r3, [r7, #4]
 800273c:	695b      	ldr	r3, [r3, #20]
 800273e:	ea42 0103 	orr.w	r1, r2, r3
                          (hi2c->Init.OwnAddress2Masks << 8));
 8002742:	687b      	ldr	r3, [r7, #4]
 8002744:	699b      	ldr	r3, [r3, #24]
 8002746:	021a      	lsls	r2, r3, #8
  hi2c->Instance->OAR2 = (hi2c->Init.DualAddressMode | hi2c->Init.OwnAddress2 | \
 8002748:	687b      	ldr	r3, [r7, #4]
 800274a:	681b      	ldr	r3, [r3, #0]
 800274c:	430a      	orrs	r2, r1
 800274e:	60da      	str	r2, [r3, #12]

  /*---------------------------- I2Cx CR1 Configuration ----------------------*/
  /* Configure I2Cx: Generalcall and NoStretch mode */
  hi2c->Instance->CR1 = (hi2c->Init.GeneralCallMode | hi2c->Init.NoStretchMode);
 8002750:	687b      	ldr	r3, [r7, #4]
 8002752:	69d9      	ldr	r1, [r3, #28]
 8002754:	687b      	ldr	r3, [r7, #4]
 8002756:	6a1a      	ldr	r2, [r3, #32]
 8002758:	687b      	ldr	r3, [r7, #4]
 800275a:	681b      	ldr	r3, [r3, #0]
 800275c:	430a      	orrs	r2, r1
 800275e:	601a      	str	r2, [r3, #0]

  /* Enable the selected I2C peripheral */
  __HAL_I2C_ENABLE(hi2c);
 8002760:	687b      	ldr	r3, [r7, #4]
 8002762:	681b      	ldr	r3, [r3, #0]
 8002764:	681a      	ldr	r2, [r3, #0]
 8002766:	687b      	ldr	r3, [r7, #4]
 8002768:	681b      	ldr	r3, [r3, #0]
 800276a:	f042 0201 	orr.w	r2, r2, #1
 800276e:	601a      	str	r2, [r3, #0]

  hi2c->ErrorCode = HAL_I2C_ERROR_NONE;
 8002770:	687b      	ldr	r3, [r7, #4]
 8002772:	2200      	movs	r2, #0
 8002774:	645a      	str	r2, [r3, #68]	; 0x44
  hi2c->State = HAL_I2C_STATE_READY;
 8002776:	687b      	ldr	r3, [r7, #4]
 8002778:	2220      	movs	r2, #32
 800277a:	f883 2041 	strb.w	r2, [r3, #65]	; 0x41
  hi2c->PreviousState = I2C_STATE_NONE;
 800277e:	687b      	ldr	r3, [r7, #4]
 8002780:	2200      	movs	r2, #0
 8002782:	631a      	str	r2, [r3, #48]	; 0x30
  hi2c->Mode = HAL_I2C_MODE_NONE;
 8002784:	687b      	ldr	r3, [r7, #4]
 8002786:	2200      	movs	r2, #0
 8002788:	f883 2042 	strb.w	r2, [r3, #66]	; 0x42

  return HAL_OK;
 800278c:	2300      	movs	r3, #0
}
 800278e:	4618      	mov	r0, r3
 8002790:	3708      	adds	r7, #8
 8002792:	46bd      	mov	sp, r7
 8002794:	bd80      	pop	{r7, pc}
 8002796:	bf00      	nop
 8002798:	02008000 	.word	0x02008000

0800279c <HAL_I2C_Master_Transmit>:
  * @param  Timeout Timeout duration
  * @retval HAL status
  */
HAL_StatusTypeDef HAL_I2C_Master_Transmit(I2C_HandleTypeDef *hi2c, uint16_t DevAddress, uint8_t *pData,
                                          uint16_t Size, uint32_t Timeout)
{
 800279c:	b580      	push	{r7, lr}
 800279e:	b088      	sub	sp, #32
 80027a0:	af02      	add	r7, sp, #8
 80027a2:	60f8      	str	r0, [r7, #12]
 80027a4:	607a      	str	r2, [r7, #4]
 80027a6:	461a      	mov	r2, r3
 80027a8:	460b      	mov	r3, r1
 80027aa:	817b      	strh	r3, [r7, #10]
 80027ac:	4613      	mov	r3, r2
 80027ae:	813b      	strh	r3, [r7, #8]
  uint32_t tickstart;

  if (hi2c->State == HAL_I2C_STATE_READY)
 80027b0:	68fb      	ldr	r3, [r7, #12]
 80027b2:	f893 3041 	ldrb.w	r3, [r3, #65]	; 0x41
 80027b6:	b2db      	uxtb	r3, r3
 80027b8:	2b20      	cmp	r3, #32
 80027ba:	f040 80da 	bne.w	8002972 <HAL_I2C_Master_Transmit+0x1d6>
  {
    /* Process Locked */
    __HAL_LOCK(hi2c);
 80027be:	68fb      	ldr	r3, [r7, #12]
 80027c0:	f893 3040 	ldrb.w	r3, [r3, #64]	; 0x40
 80027c4:	2b01      	cmp	r3, #1
 80027c6:	d101      	bne.n	80027cc <HAL_I2C_Master_Transmit+0x30>
 80027c8:	2302      	movs	r3, #2
 80027ca:	e0d3      	b.n	8002974 <HAL_I2C_Master_Transmit+0x1d8>
 80027cc:	68fb      	ldr	r3, [r7, #12]
 80027ce:	2201      	movs	r2, #1
 80027d0:	f883 2040 	strb.w	r2, [r3, #64]	; 0x40

    /* Init tickstart for timeout management*/
    tickstart = HAL_GetTick();
 80027d4:	f7ff fc48 	bl	8002068 <HAL_GetTick>
 80027d8:	6178      	str	r0, [r7, #20]

    if (I2C_WaitOnFlagUntilTimeout(hi2c, I2C_FLAG_BUSY, SET, I2C_TIMEOUT_BUSY, tickstart) != HAL_OK)
 80027da:	697b      	ldr	r3, [r7, #20]
 80027dc:	9300      	str	r3, [sp, #0]
 80027de:	2319      	movs	r3, #25
 80027e0:	2201      	movs	r2, #1
 80027e2:	f44f 4100 	mov.w	r1, #32768	; 0x8000
 80027e6:	68f8      	ldr	r0, [r7, #12]
 80027e8:	f000 f9e6 	bl	8002bb8 <I2C_WaitOnFlagUntilTimeout>
 80027ec:	4603      	mov	r3, r0
 80027ee:	2b00      	cmp	r3, #0
 80027f0:	d001      	beq.n	80027f6 <HAL_I2C_Master_Transmit+0x5a>
    {
      return HAL_ERROR;
 80027f2:	2301      	movs	r3, #1
 80027f4:	e0be      	b.n	8002974 <HAL_I2C_Master_Transmit+0x1d8>
    }

    hi2c->State     = HAL_I2C_STATE_BUSY_TX;
 80027f6:	68fb      	ldr	r3, [r7, #12]
 80027f8:	2221      	movs	r2, #33	; 0x21
 80027fa:	f883 2041 	strb.w	r2, [r3, #65]	; 0x41
    hi2c->Mode      = HAL_I2C_MODE_MASTER;
 80027fe:	68fb      	ldr	r3, [r7, #12]
 8002800:	2210      	movs	r2, #16
 8002802:	f883 2042 	strb.w	r2, [r3, #66]	; 0x42
    hi2c->ErrorCode = HAL_I2C_ERROR_NONE;
 8002806:	68fb      	ldr	r3, [r7, #12]
 8002808:	2200      	movs	r2, #0
 800280a:	645a      	str	r2, [r3, #68]	; 0x44

    /* Prepare transfer parameters */
    hi2c->pBuffPtr  = pData;
 800280c:	68fb      	ldr	r3, [r7, #12]
 800280e:	687a      	ldr	r2, [r7, #4]
 8002810:	625a      	str	r2, [r3, #36]	; 0x24
    hi2c->XferCount = Size;
 8002812:	68fb      	ldr	r3, [r7, #12]
 8002814:	893a      	ldrh	r2, [r7, #8]
 8002816:	855a      	strh	r2, [r3, #42]	; 0x2a
    hi2c->XferISR   = NULL;
 8002818:	68fb      	ldr	r3, [r7, #12]
 800281a:	2200      	movs	r2, #0
 800281c:	635a      	str	r2, [r3, #52]	; 0x34

    /* Send Slave Address */
    /* Set NBYTES to write and reload if hi2c->XferCount > MAX_NBYTE_SIZE and generate RESTART */
    if (hi2c->XferCount > MAX_NBYTE_SIZE)
 800281e:	68fb      	ldr	r3, [r7, #12]
 8002820:	8d5b      	ldrh	r3, [r3, #42]	; 0x2a
 8002822:	b29b      	uxth	r3, r3
 8002824:	2bff      	cmp	r3, #255	; 0xff
 8002826:	d90e      	bls.n	8002846 <HAL_I2C_Master_Transmit+0xaa>
    {
      hi2c->XferSize = MAX_NBYTE_SIZE;
 8002828:	68fb      	ldr	r3, [r7, #12]
 800282a:	22ff      	movs	r2, #255	; 0xff
 800282c:	851a      	strh	r2, [r3, #40]	; 0x28
      I2C_TransferConfig(hi2c, DevAddress, (uint8_t)hi2c->XferSize, I2C_RELOAD_MODE,
 800282e:	68fb      	ldr	r3, [r7, #12]
 8002830:	8d1b      	ldrh	r3, [r3, #40]	; 0x28
 8002832:	b2da      	uxtb	r2, r3
 8002834:	8979      	ldrh	r1, [r7, #10]
 8002836:	4b51      	ldr	r3, [pc, #324]	; (800297c <HAL_I2C_Master_Transmit+0x1e0>)
 8002838:	9300      	str	r3, [sp, #0]
 800283a:	f04f 7380 	mov.w	r3, #16777216	; 0x1000000
 800283e:	68f8      	ldr	r0, [r7, #12]
 8002840:	f000 fbd0 	bl	8002fe4 <I2C_TransferConfig>
 8002844:	e06c      	b.n	8002920 <HAL_I2C_Master_Transmit+0x184>
                         I2C_GENERATE_START_WRITE);
    }
    else
    {
      hi2c->XferSize = hi2c->XferCount;
 8002846:	68fb      	ldr	r3, [r7, #12]
 8002848:	8d5b      	ldrh	r3, [r3, #42]	; 0x2a
 800284a:	b29a      	uxth	r2, r3
 800284c:	68fb      	ldr	r3, [r7, #12]
 800284e:	851a      	strh	r2, [r3, #40]	; 0x28
      I2C_TransferConfig(hi2c, DevAddress, (uint8_t)hi2c->XferSize, I2C_AUTOEND_MODE,
 8002850:	68fb      	ldr	r3, [r7, #12]
 8002852:	8d1b      	ldrh	r3, [r3, #40]	; 0x28
 8002854:	b2da      	uxtb	r2, r3
 8002856:	8979      	ldrh	r1, [r7, #10]
 8002858:	4b48      	ldr	r3, [pc, #288]	; (800297c <HAL_I2C_Master_Transmit+0x1e0>)
 800285a:	9300      	str	r3, [sp, #0]
 800285c:	f04f 7300 	mov.w	r3, #33554432	; 0x2000000
 8002860:	68f8      	ldr	r0, [r7, #12]
 8002862:	f000 fbbf 	bl	8002fe4 <I2C_TransferConfig>
                         I2C_GENERATE_START_WRITE);
    }

    while (hi2c->XferCount > 0U)
 8002866:	e05b      	b.n	8002920 <HAL_I2C_Master_Transmit+0x184>
    {
      /* Wait until TXIS flag is set */
      if (I2C_WaitOnTXISFlagUntilTimeout(hi2c, Timeout, tickstart) != HAL_OK)
 8002868:	697a      	ldr	r2, [r7, #20]
 800286a:	6a39      	ldr	r1, [r7, #32]
 800286c:	68f8      	ldr	r0, [r7, #12]
 800286e:	f000 f9e3 	bl	8002c38 <I2C_WaitOnTXISFlagUntilTimeout>
 8002872:	4603      	mov	r3, r0
 8002874:	2b00      	cmp	r3, #0
 8002876:	d001      	beq.n	800287c <HAL_I2C_Master_Transmit+0xe0>
      {
        return HAL_ERROR;
 8002878:	2301      	movs	r3, #1
 800287a:	e07b      	b.n	8002974 <HAL_I2C_Master_Transmit+0x1d8>
      }
      /* Write data to TXDR */
      hi2c->Instance->TXDR = *hi2c->pBuffPtr;
 800287c:	68fb      	ldr	r3, [r7, #12]
 800287e:	6a5b      	ldr	r3, [r3, #36]	; 0x24
 8002880:	781a      	ldrb	r2, [r3, #0]
 8002882:	68fb      	ldr	r3, [r7, #12]
 8002884:	681b      	ldr	r3, [r3, #0]
 8002886:	629a      	str	r2, [r3, #40]	; 0x28

      /* Increment Buffer pointer */
      hi2c->pBuffPtr++;
 8002888:	68fb      	ldr	r3, [r7, #12]
 800288a:	6a5b      	ldr	r3, [r3, #36]	; 0x24
 800288c:	1c5a      	adds	r2, r3, #1
 800288e:	68fb      	ldr	r3, [r7, #12]
 8002890:	625a      	str	r2, [r3, #36]	; 0x24

      hi2c->XferCount--;
 8002892:	68fb      	ldr	r3, [r7, #12]
 8002894:	8d5b      	ldrh	r3, [r3, #42]	; 0x2a
 8002896:	b29b      	uxth	r3, r3
 8002898:	3b01      	subs	r3, #1
 800289a:	b29a      	uxth	r2, r3
 800289c:	68fb      	ldr	r3, [r7, #12]
 800289e:	855a      	strh	r2, [r3, #42]	; 0x2a
      hi2c->XferSize--;
 80028a0:	68fb      	ldr	r3, [r7, #12]
 80028a2:	8d1b      	ldrh	r3, [r3, #40]	; 0x28
 80028a4:	3b01      	subs	r3, #1
 80028a6:	b29a      	uxth	r2, r3
 80028a8:	68fb      	ldr	r3, [r7, #12]
 80028aa:	851a      	strh	r2, [r3, #40]	; 0x28

      if ((hi2c->XferCount != 0U) && (hi2c->XferSize == 0U))
 80028ac:	68fb      	ldr	r3, [r7, #12]
 80028ae:	8d5b      	ldrh	r3, [r3, #42]	; 0x2a
 80028b0:	b29b      	uxth	r3, r3
 80028b2:	2b00      	cmp	r3, #0
 80028b4:	d034      	beq.n	8002920 <HAL_I2C_Master_Transmit+0x184>
 80028b6:	68fb      	ldr	r3, [r7, #12]
 80028b8:	8d1b      	ldrh	r3, [r3, #40]	; 0x28
 80028ba:	2b00      	cmp	r3, #0
 80028bc:	d130      	bne.n	8002920 <HAL_I2C_Master_Transmit+0x184>
      {
        /* Wait until TCR flag is set */
        if (I2C_WaitOnFlagUntilTimeout(hi2c, I2C_FLAG_TCR, RESET, Timeout, tickstart) != HAL_OK)
 80028be:	697b      	ldr	r3, [r7, #20]
 80028c0:	9300      	str	r3, [sp, #0]
 80028c2:	6a3b      	ldr	r3, [r7, #32]
 80028c4:	2200      	movs	r2, #0
 80028c6:	2180      	movs	r1, #128	; 0x80
 80028c8:	68f8      	ldr	r0, [r7, #12]
 80028ca:	f000 f975 	bl	8002bb8 <I2C_WaitOnFlagUntilTimeout>
 80028ce:	4603      	mov	r3, r0
 80028d0:	2b00      	cmp	r3, #0
 80028d2:	d001      	beq.n	80028d8 <HAL_I2C_Master_Transmit+0x13c>
        {
          return HAL_ERROR;
 80028d4:	2301      	movs	r3, #1
 80028d6:	e04d      	b.n	8002974 <HAL_I2C_Master_Transmit+0x1d8>
        }

        if (hi2c->XferCount > MAX_NBYTE_SIZE)
 80028d8:	68fb      	ldr	r3, [r7, #12]
 80028da:	8d5b      	ldrh	r3, [r3, #42]	; 0x2a
 80028dc:	b29b      	uxth	r3, r3
 80028de:	2bff      	cmp	r3, #255	; 0xff
 80028e0:	d90e      	bls.n	8002900 <HAL_I2C_Master_Transmit+0x164>
        {
          hi2c->XferSize = MAX_NBYTE_SIZE;
 80028e2:	68fb      	ldr	r3, [r7, #12]
 80028e4:	22ff      	movs	r2, #255	; 0xff
 80028e6:	851a      	strh	r2, [r3, #40]	; 0x28
          I2C_TransferConfig(hi2c, DevAddress, (uint8_t)hi2c->XferSize, I2C_RELOAD_MODE,
 80028e8:	68fb      	ldr	r3, [r7, #12]
 80028ea:	8d1b      	ldrh	r3, [r3, #40]	; 0x28
 80028ec:	b2da      	uxtb	r2, r3
 80028ee:	8979      	ldrh	r1, [r7, #10]
 80028f0:	2300      	movs	r3, #0
 80028f2:	9300      	str	r3, [sp, #0]
 80028f4:	f04f 7380 	mov.w	r3, #16777216	; 0x1000000
 80028f8:	68f8      	ldr	r0, [r7, #12]
 80028fa:	f000 fb73 	bl	8002fe4 <I2C_TransferConfig>
 80028fe:	e00f      	b.n	8002920 <HAL_I2C_Master_Transmit+0x184>
                             I2C_NO_STARTSTOP);
        }
        else
        {
          hi2c->XferSize = hi2c->XferCount;
 8002900:	68fb      	ldr	r3, [r7, #12]
 8002902:	8d5b      	ldrh	r3, [r3, #42]	; 0x2a
 8002904:	b29a      	uxth	r2, r3
 8002906:	68fb      	ldr	r3, [r7, #12]
 8002908:	851a      	strh	r2, [r3, #40]	; 0x28
          I2C_TransferConfig(hi2c, DevAddress, (uint8_t)hi2c->XferSize, I2C_AUTOEND_MODE,
 800290a:	68fb      	ldr	r3, [r7, #12]
 800290c:	8d1b      	ldrh	r3, [r3, #40]	; 0x28
 800290e:	b2da      	uxtb	r2, r3
 8002910:	8979      	ldrh	r1, [r7, #10]
 8002912:	2300      	movs	r3, #0
 8002914:	9300      	str	r3, [sp, #0]
 8002916:	f04f 7300 	mov.w	r3, #33554432	; 0x2000000
 800291a:	68f8      	ldr	r0, [r7, #12]
 800291c:	f000 fb62 	bl	8002fe4 <I2C_TransferConfig>
    while (hi2c->XferCount > 0U)
 8002920:	68fb      	ldr	r3, [r7, #12]
 8002922:	8d5b      	ldrh	r3, [r3, #42]	; 0x2a
 8002924:	b29b      	uxth	r3, r3
 8002926:	2b00      	cmp	r3, #0
 8002928:	d19e      	bne.n	8002868 <HAL_I2C_Master_Transmit+0xcc>
      }
    }

    /* No need to Check TC flag, with AUTOEND mode the stop is automatically generated */
    /* Wait until STOPF flag is set */
    if (I2C_WaitOnSTOPFlagUntilTimeout(hi2c, Timeout, tickstart) != HAL_OK)
 800292a:	697a      	ldr	r2, [r7, #20]
 800292c:	6a39      	ldr	r1, [r7, #32]
 800292e:	68f8      	ldr	r0, [r7, #12]
 8002930:	f000 f9c2 	bl	8002cb8 <I2C_WaitOnSTOPFlagUntilTimeout>
 8002934:	4603      	mov	r3, r0
 8002936:	2b00      	cmp	r3, #0
 8002938:	d001      	beq.n	800293e <HAL_I2C_Master_Transmit+0x1a2>
    {
      return HAL_ERROR;
 800293a:	2301      	movs	r3, #1
 800293c:	e01a      	b.n	8002974 <HAL_I2C_Master_Transmit+0x1d8>
    }

    /* Clear STOP Flag */
    __HAL_I2C_CLEAR_FLAG(hi2c, I2C_FLAG_STOPF);
 800293e:	68fb      	ldr	r3, [r7, #12]
 8002940:	681b      	ldr	r3, [r3, #0]
 8002942:	2220      	movs	r2, #32
 8002944:	61da      	str	r2, [r3, #28]

    /* Clear Configuration Register 2 */
    I2C_RESET_CR2(hi2c);
 8002946:	68fb      	ldr	r3, [r7, #12]
 8002948:	681b      	ldr	r3, [r3, #0]
 800294a:	6859      	ldr	r1, [r3, #4]
 800294c:	68fb      	ldr	r3, [r7, #12]
 800294e:	681a      	ldr	r2, [r3, #0]
 8002950:	4b0b      	ldr	r3, [pc, #44]	; (8002980 <HAL_I2C_Master_Transmit+0x1e4>)
 8002952:	400b      	ands	r3, r1
 8002954:	6053      	str	r3, [r2, #4]

    hi2c->State = HAL_I2C_STATE_READY;
 8002956:	68fb      	ldr	r3, [r7, #12]
 8002958:	2220      	movs	r2, #32
 800295a:	f883 2041 	strb.w	r2, [r3, #65]	; 0x41
    hi2c->Mode  = HAL_I2C_MODE_NONE;
 800295e:	68fb      	ldr	r3, [r7, #12]
 8002960:	2200      	movs	r2, #0
 8002962:	f883 2042 	strb.w	r2, [r3, #66]	; 0x42

    /* Process Unlocked */
    __HAL_UNLOCK(hi2c);
 8002966:	68fb      	ldr	r3, [r7, #12]
 8002968:	2200      	movs	r2, #0
 800296a:	f883 2040 	strb.w	r2, [r3, #64]	; 0x40

    return HAL_OK;
 800296e:	2300      	movs	r3, #0
 8002970:	e000      	b.n	8002974 <HAL_I2C_Master_Transmit+0x1d8>
  }
  else
  {
    return HAL_BUSY;
 8002972:	2302      	movs	r3, #2
  }
}
 8002974:	4618      	mov	r0, r3
 8002976:	3718      	adds	r7, #24
 8002978:	46bd      	mov	sp, r7
 800297a:	bd80      	pop	{r7, pc}
 800297c:	80002000 	.word	0x80002000
 8002980:	fe00e800 	.word	0xfe00e800

08002984 <HAL_I2C_Master_Receive>:
  * @param  Timeout Timeout duration
  * @retval HAL status
  */
HAL_StatusTypeDef HAL_I2C_Master_Receive(I2C_HandleTypeDef *hi2c, uint16_t DevAddress, uint8_t *pData,
                                         uint16_t Size, uint32_t Timeout)
{
 8002984:	b580      	push	{r7, lr}
 8002986:	b088      	sub	sp, #32
 8002988:	af02      	add	r7, sp, #8
 800298a:	60f8      	str	r0, [r7, #12]
 800298c:	607a      	str	r2, [r7, #4]
 800298e:	461a      	mov	r2, r3
 8002990:	460b      	mov	r3, r1
 8002992:	817b      	strh	r3, [r7, #10]
 8002994:	4613      	mov	r3, r2
 8002996:	813b      	strh	r3, [r7, #8]
  uint32_t tickstart;

  if (hi2c->State == HAL_I2C_STATE_READY)
 8002998:	68fb      	ldr	r3, [r7, #12]
 800299a:	f893 3041 	ldrb.w	r3, [r3, #65]	; 0x41
 800299e:	b2db      	uxtb	r3, r3
 80029a0:	2b20      	cmp	r3, #32
 80029a2:	f040 80db 	bne.w	8002b5c <HAL_I2C_Master_Receive+0x1d8>
  {
    /* Process Locked */
    __HAL_LOCK(hi2c);
 80029a6:	68fb      	ldr	r3, [r7, #12]
 80029a8:	f893 3040 	ldrb.w	r3, [r3, #64]	; 0x40
 80029ac:	2b01      	cmp	r3, #1
 80029ae:	d101      	bne.n	80029b4 <HAL_I2C_Master_Receive+0x30>
 80029b0:	2302      	movs	r3, #2
 80029b2:	e0d4      	b.n	8002b5e <HAL_I2C_Master_Receive+0x1da>
 80029b4:	68fb      	ldr	r3, [r7, #12]
 80029b6:	2201      	movs	r2, #1
 80029b8:	f883 2040 	strb.w	r2, [r3, #64]	; 0x40

    /* Init tickstart for timeout management*/
    tickstart = HAL_GetTick();
 80029bc:	f7ff fb54 	bl	8002068 <HAL_GetTick>
 80029c0:	6178      	str	r0, [r7, #20]

    if (I2C_WaitOnFlagUntilTimeout(hi2c, I2C_FLAG_BUSY, SET, I2C_TIMEOUT_BUSY, tickstart) != HAL_OK)
 80029c2:	697b      	ldr	r3, [r7, #20]
 80029c4:	9300      	str	r3, [sp, #0]
 80029c6:	2319      	movs	r3, #25
 80029c8:	2201      	movs	r2, #1
 80029ca:	f44f 4100 	mov.w	r1, #32768	; 0x8000
 80029ce:	68f8      	ldr	r0, [r7, #12]
 80029d0:	f000 f8f2 	bl	8002bb8 <I2C_WaitOnFlagUntilTimeout>
 80029d4:	4603      	mov	r3, r0
 80029d6:	2b00      	cmp	r3, #0
 80029d8:	d001      	beq.n	80029de <HAL_I2C_Master_Receive+0x5a>
    {
      return HAL_ERROR;
 80029da:	2301      	movs	r3, #1
 80029dc:	e0bf      	b.n	8002b5e <HAL_I2C_Master_Receive+0x1da>
    }

    hi2c->State     = HAL_I2C_STATE_BUSY_RX;
 80029de:	68fb      	ldr	r3, [r7, #12]
 80029e0:	2222      	movs	r2, #34	; 0x22
 80029e2:	f883 2041 	strb.w	r2, [r3, #65]	; 0x41
    hi2c->Mode      = HAL_I2C_MODE_MASTER;
 80029e6:	68fb      	ldr	r3, [r7, #12]
 80029e8:	2210      	movs	r2, #16
 80029ea:	f883 2042 	strb.w	r2, [r3, #66]	; 0x42
    hi2c->ErrorCode = HAL_I2C_ERROR_NONE;
 80029ee:	68fb      	ldr	r3, [r7, #12]
 80029f0:	2200      	movs	r2, #0
 80029f2:	645a      	str	r2, [r3, #68]	; 0x44

    /* Prepare transfer parameters */
    hi2c->pBuffPtr  = pData;
 80029f4:	68fb      	ldr	r3, [r7, #12]
 80029f6:	687a      	ldr	r2, [r7, #4]
 80029f8:	625a      	str	r2, [r3, #36]	; 0x24
    hi2c->XferCount = Size;
 80029fa:	68fb      	ldr	r3, [r7, #12]
 80029fc:	893a      	ldrh	r2, [r7, #8]
 80029fe:	855a      	strh	r2, [r3, #42]	; 0x2a
    hi2c->XferISR   = NULL;
 8002a00:	68fb      	ldr	r3, [r7, #12]
 8002a02:	2200      	movs	r2, #0
 8002a04:	635a      	str	r2, [r3, #52]	; 0x34

    /* Send Slave Address */
    /* Set NBYTES to write and reload if hi2c->XferCount > MAX_NBYTE_SIZE and generate RESTART */
    if (hi2c->XferCount > MAX_NBYTE_SIZE)
 8002a06:	68fb      	ldr	r3, [r7, #12]
 8002a08:	8d5b      	ldrh	r3, [r3, #42]	; 0x2a
 8002a0a:	b29b      	uxth	r3, r3
 8002a0c:	2bff      	cmp	r3, #255	; 0xff
 8002a0e:	d90e      	bls.n	8002a2e <HAL_I2C_Master_Receive+0xaa>
    {
      hi2c->XferSize = MAX_NBYTE_SIZE;
 8002a10:	68fb      	ldr	r3, [r7, #12]
 8002a12:	22ff      	movs	r2, #255	; 0xff
 8002a14:	851a      	strh	r2, [r3, #40]	; 0x28
      I2C_TransferConfig(hi2c, DevAddress, (uint8_t)hi2c->XferSize, I2C_RELOAD_MODE,
 8002a16:	68fb      	ldr	r3, [r7, #12]
 8002a18:	8d1b      	ldrh	r3, [r3, #40]	; 0x28
 8002a1a:	b2da      	uxtb	r2, r3
 8002a1c:	8979      	ldrh	r1, [r7, #10]
 8002a1e:	4b52      	ldr	r3, [pc, #328]	; (8002b68 <HAL_I2C_Master_Receive+0x1e4>)
 8002a20:	9300      	str	r3, [sp, #0]
 8002a22:	f04f 7380 	mov.w	r3, #16777216	; 0x1000000
 8002a26:	68f8      	ldr	r0, [r7, #12]
 8002a28:	f000 fadc 	bl	8002fe4 <I2C_TransferConfig>
 8002a2c:	e06d      	b.n	8002b0a <HAL_I2C_Master_Receive+0x186>
                         I2C_GENERATE_START_READ);
    }
    else
    {
      hi2c->XferSize = hi2c->XferCount;
 8002a2e:	68fb      	ldr	r3, [r7, #12]
 8002a30:	8d5b      	ldrh	r3, [r3, #42]	; 0x2a
 8002a32:	b29a      	uxth	r2, r3
 8002a34:	68fb      	ldr	r3, [r7, #12]
 8002a36:	851a      	strh	r2, [r3, #40]	; 0x28
      I2C_TransferConfig(hi2c, DevAddress, (uint8_t)hi2c->XferSize, I2C_AUTOEND_MODE,
 8002a38:	68fb      	ldr	r3, [r7, #12]
 8002a3a:	8d1b      	ldrh	r3, [r3, #40]	; 0x28
 8002a3c:	b2da      	uxtb	r2, r3
 8002a3e:	8979      	ldrh	r1, [r7, #10]
 8002a40:	4b49      	ldr	r3, [pc, #292]	; (8002b68 <HAL_I2C_Master_Receive+0x1e4>)
 8002a42:	9300      	str	r3, [sp, #0]
 8002a44:	f04f 7300 	mov.w	r3, #33554432	; 0x2000000
 8002a48:	68f8      	ldr	r0, [r7, #12]
 8002a4a:	f000 facb 	bl	8002fe4 <I2C_TransferConfig>
                         I2C_GENERATE_START_READ);
    }

    while (hi2c->XferCount > 0U)
 8002a4e:	e05c      	b.n	8002b0a <HAL_I2C_Master_Receive+0x186>
    {
      /* Wait until RXNE flag is set */
      if (I2C_WaitOnRXNEFlagUntilTimeout(hi2c, Timeout, tickstart) != HAL_OK)
 8002a50:	697a      	ldr	r2, [r7, #20]
 8002a52:	6a39      	ldr	r1, [r7, #32]
 8002a54:	68f8      	ldr	r0, [r7, #12]
 8002a56:	f000 f96b 	bl	8002d30 <I2C_WaitOnRXNEFlagUntilTimeout>
 8002a5a:	4603      	mov	r3, r0
 8002a5c:	2b00      	cmp	r3, #0
 8002a5e:	d001      	beq.n	8002a64 <HAL_I2C_Master_Receive+0xe0>
      {
        return HAL_ERROR;
 8002a60:	2301      	movs	r3, #1
 8002a62:	e07c      	b.n	8002b5e <HAL_I2C_Master_Receive+0x1da>
      }

      /* Read data from RXDR */
      *hi2c->pBuffPtr = (uint8_t)hi2c->Instance->RXDR;
 8002a64:	68fb      	ldr	r3, [r7, #12]
 8002a66:	681b      	ldr	r3, [r3, #0]
 8002a68:	6a5a      	ldr	r2, [r3, #36]	; 0x24
 8002a6a:	68fb      	ldr	r3, [r7, #12]
 8002a6c:	6a5b      	ldr	r3, [r3, #36]	; 0x24
 8002a6e:	b2d2      	uxtb	r2, r2
 8002a70:	701a      	strb	r2, [r3, #0]

      /* Increment Buffer pointer */
      hi2c->pBuffPtr++;
 8002a72:	68fb      	ldr	r3, [r7, #12]
 8002a74:	6a5b      	ldr	r3, [r3, #36]	; 0x24
 8002a76:	1c5a      	adds	r2, r3, #1
 8002a78:	68fb      	ldr	r3, [r7, #12]
 8002a7a:	625a      	str	r2, [r3, #36]	; 0x24

      hi2c->XferSize--;
 8002a7c:	68fb      	ldr	r3, [r7, #12]
 8002a7e:	8d1b      	ldrh	r3, [r3, #40]	; 0x28
 8002a80:	3b01      	subs	r3, #1
 8002a82:	b29a      	uxth	r2, r3
 8002a84:	68fb      	ldr	r3, [r7, #12]
 8002a86:	851a      	strh	r2, [r3, #40]	; 0x28
      hi2c->XferCount--;
 8002a88:	68fb      	ldr	r3, [r7, #12]
 8002a8a:	8d5b      	ldrh	r3, [r3, #42]	; 0x2a
 8002a8c:	b29b      	uxth	r3, r3
 8002a8e:	3b01      	subs	r3, #1
 8002a90:	b29a      	uxth	r2, r3
 8002a92:	68fb      	ldr	r3, [r7, #12]
 8002a94:	855a      	strh	r2, [r3, #42]	; 0x2a

      if ((hi2c->XferCount != 0U) && (hi2c->XferSize == 0U))
 8002a96:	68fb      	ldr	r3, [r7, #12]
 8002a98:	8d5b      	ldrh	r3, [r3, #42]	; 0x2a
 8002a9a:	b29b      	uxth	r3, r3
 8002a9c:	2b00      	cmp	r3, #0
 8002a9e:	d034      	beq.n	8002b0a <HAL_I2C_Master_Receive+0x186>
 8002aa0:	68fb      	ldr	r3, [r7, #12]
 8002aa2:	8d1b      	ldrh	r3, [r3, #40]	; 0x28
 8002aa4:	2b00      	cmp	r3, #0
 8002aa6:	d130      	bne.n	8002b0a <HAL_I2C_Master_Receive+0x186>
      {
        /* Wait until TCR flag is set */
        if (I2C_WaitOnFlagUntilTimeout(hi2c, I2C_FLAG_TCR, RESET, Timeout, tickstart) != HAL_OK)
 8002aa8:	697b      	ldr	r3, [r7, #20]
 8002aaa:	9300      	str	r3, [sp, #0]
 8002aac:	6a3b      	ldr	r3, [r7, #32]
 8002aae:	2200      	movs	r2, #0
 8002ab0:	2180      	movs	r1, #128	; 0x80
 8002ab2:	68f8      	ldr	r0, [r7, #12]
 8002ab4:	f000 f880 	bl	8002bb8 <I2C_WaitOnFlagUntilTimeout>
 8002ab8:	4603      	mov	r3, r0
 8002aba:	2b00      	cmp	r3, #0
 8002abc:	d001      	beq.n	8002ac2 <HAL_I2C_Master_Receive+0x13e>
        {
          return HAL_ERROR;
 8002abe:	2301      	movs	r3, #1
 8002ac0:	e04d      	b.n	8002b5e <HAL_I2C_Master_Receive+0x1da>
        }

        if (hi2c->XferCount > MAX_NBYTE_SIZE)
 8002ac2:	68fb      	ldr	r3, [r7, #12]
 8002ac4:	8d5b      	ldrh	r3, [r3, #42]	; 0x2a
 8002ac6:	b29b      	uxth	r3, r3
 8002ac8:	2bff      	cmp	r3, #255	; 0xff
 8002aca:	d90e      	bls.n	8002aea <HAL_I2C_Master_Receive+0x166>
        {
          hi2c->XferSize = MAX_NBYTE_SIZE;
 8002acc:	68fb      	ldr	r3, [r7, #12]
 8002ace:	22ff      	movs	r2, #255	; 0xff
 8002ad0:	851a      	strh	r2, [r3, #40]	; 0x28
          I2C_TransferConfig(hi2c, DevAddress, (uint8_t)hi2c->XferSize, I2C_RELOAD_MODE,
 8002ad2:	68fb      	ldr	r3, [r7, #12]
 8002ad4:	8d1b      	ldrh	r3, [r3, #40]	; 0x28
 8002ad6:	b2da      	uxtb	r2, r3
 8002ad8:	8979      	ldrh	r1, [r7, #10]
 8002ada:	2300      	movs	r3, #0
 8002adc:	9300      	str	r3, [sp, #0]
 8002ade:	f04f 7380 	mov.w	r3, #16777216	; 0x1000000
 8002ae2:	68f8      	ldr	r0, [r7, #12]
 8002ae4:	f000 fa7e 	bl	8002fe4 <I2C_TransferConfig>
 8002ae8:	e00f      	b.n	8002b0a <HAL_I2C_Master_Receive+0x186>
                             I2C_NO_STARTSTOP);
        }
        else
        {
          hi2c->XferSize = hi2c->XferCount;
 8002aea:	68fb      	ldr	r3, [r7, #12]
 8002aec:	8d5b      	ldrh	r3, [r3, #42]	; 0x2a
 8002aee:	b29a      	uxth	r2, r3
 8002af0:	68fb      	ldr	r3, [r7, #12]
 8002af2:	851a      	strh	r2, [r3, #40]	; 0x28
          I2C_TransferConfig(hi2c, DevAddress, (uint8_t)hi2c->XferSize, I2C_AUTOEND_MODE,
 8002af4:	68fb      	ldr	r3, [r7, #12]
 8002af6:	8d1b      	ldrh	r3, [r3, #40]	; 0x28
 8002af8:	b2da      	uxtb	r2, r3
 8002afa:	8979      	ldrh	r1, [r7, #10]
 8002afc:	2300      	movs	r3, #0
 8002afe:	9300      	str	r3, [sp, #0]
 8002b00:	f04f 7300 	mov.w	r3, #33554432	; 0x2000000
 8002b04:	68f8      	ldr	r0, [r7, #12]
 8002b06:	f000 fa6d 	bl	8002fe4 <I2C_TransferConfig>
    while (hi2c->XferCount > 0U)
 8002b0a:	68fb      	ldr	r3, [r7, #12]
 8002b0c:	8d5b      	ldrh	r3, [r3, #42]	; 0x2a
 8002b0e:	b29b      	uxth	r3, r3
 8002b10:	2b00      	cmp	r3, #0
 8002b12:	d19d      	bne.n	8002a50 <HAL_I2C_Master_Receive+0xcc>
      }
    }

    /* No need to Check TC flag, with AUTOEND mode the stop is automatically generated */
    /* Wait until STOPF flag is set */
    if (I2C_WaitOnSTOPFlagUntilTimeout(hi2c, Timeout, tickstart) != HAL_OK)
 8002b14:	697a      	ldr	r2, [r7, #20]
 8002b16:	6a39      	ldr	r1, [r7, #32]
 8002b18:	68f8      	ldr	r0, [r7, #12]
 8002b1a:	f000 f8cd 	bl	8002cb8 <I2C_WaitOnSTOPFlagUntilTimeout>
 8002b1e:	4603      	mov	r3, r0
 8002b20:	2b00      	cmp	r3, #0
 8002b22:	d001      	beq.n	8002b28 <HAL_I2C_Master_Receive+0x1a4>
    {
      return HAL_ERROR;
 8002b24:	2301      	movs	r3, #1
 8002b26:	e01a      	b.n	8002b5e <HAL_I2C_Master_Receive+0x1da>
    }

    /* Clear STOP Flag */
    __HAL_I2C_CLEAR_FLAG(hi2c, I2C_FLAG_STOPF);
 8002b28:	68fb      	ldr	r3, [r7, #12]
 8002b2a:	681b      	ldr	r3, [r3, #0]
 8002b2c:	2220      	movs	r2, #32
 8002b2e:	61da      	str	r2, [r3, #28]

    /* Clear Configuration Register 2 */
    I2C_RESET_CR2(hi2c);
 8002b30:	68fb      	ldr	r3, [r7, #12]
 8002b32:	681b      	ldr	r3, [r3, #0]
 8002b34:	6859      	ldr	r1, [r3, #4]
 8002b36:	68fb      	ldr	r3, [r7, #12]
 8002b38:	681a      	ldr	r2, [r3, #0]
 8002b3a:	4b0c      	ldr	r3, [pc, #48]	; (8002b6c <HAL_I2C_Master_Receive+0x1e8>)
 8002b3c:	400b      	ands	r3, r1
 8002b3e:	6053      	str	r3, [r2, #4]

    hi2c->State = HAL_I2C_STATE_READY;
 8002b40:	68fb      	ldr	r3, [r7, #12]
 8002b42:	2220      	movs	r2, #32
 8002b44:	f883 2041 	strb.w	r2, [r3, #65]	; 0x41
    hi2c->Mode  = HAL_I2C_MODE_NONE;
 8002b48:	68fb      	ldr	r3, [r7, #12]
 8002b4a:	2200      	movs	r2, #0
 8002b4c:	f883 2042 	strb.w	r2, [r3, #66]	; 0x42

    /* Process Unlocked */
    __HAL_UNLOCK(hi2c);
 8002b50:	68fb      	ldr	r3, [r7, #12]
 8002b52:	2200      	movs	r2, #0
 8002b54:	f883 2040 	strb.w	r2, [r3, #64]	; 0x40

    return HAL_OK;
 8002b58:	2300      	movs	r3, #0
 8002b5a:	e000      	b.n	8002b5e <HAL_I2C_Master_Receive+0x1da>
  }
  else
  {
    return HAL_BUSY;
 8002b5c:	2302      	movs	r3, #2
  }
}
 8002b5e:	4618      	mov	r0, r3
 8002b60:	3718      	adds	r7, #24
 8002b62:	46bd      	mov	sp, r7
 8002b64:	bd80      	pop	{r7, pc}
 8002b66:	bf00      	nop
 8002b68:	80002400 	.word	0x80002400
 8002b6c:	fe00e800 	.word	0xfe00e800

08002b70 <I2C_Flush_TXDR>:
  * @brief  I2C Tx data register flush process.
  * @param  hi2c I2C handle.
  * @retval None
  */
static void I2C_Flush_TXDR(I2C_HandleTypeDef *hi2c)
{
 8002b70:	b480      	push	{r7}
 8002b72:	b083      	sub	sp, #12
 8002b74:	af00      	add	r7, sp, #0
 8002b76:	6078      	str	r0, [r7, #4]
  /* If a pending TXIS flag is set */
  /* Write a dummy data in TXDR to clear it */
  if (__HAL_I2C_GET_FLAG(hi2c, I2C_FLAG_TXIS) != RESET)
 8002b78:	687b      	ldr	r3, [r7, #4]
 8002b7a:	681b      	ldr	r3, [r3, #0]
 8002b7c:	699b      	ldr	r3, [r3, #24]
 8002b7e:	f003 0302 	and.w	r3, r3, #2
 8002b82:	2b02      	cmp	r3, #2
 8002b84:	d103      	bne.n	8002b8e <I2C_Flush_TXDR+0x1e>
  {
    hi2c->Instance->TXDR = 0x00U;
 8002b86:	687b      	ldr	r3, [r7, #4]
 8002b88:	681b      	ldr	r3, [r3, #0]
 8002b8a:	2200      	movs	r2, #0
 8002b8c:	629a      	str	r2, [r3, #40]	; 0x28
  }

  /* Flush TX register if not empty */
  if (__HAL_I2C_GET_FLAG(hi2c, I2C_FLAG_TXE) == RESET)
 8002b8e:	687b      	ldr	r3, [r7, #4]
 8002b90:	681b      	ldr	r3, [r3, #0]
 8002b92:	699b      	ldr	r3, [r3, #24]
 8002b94:	f003 0301 	and.w	r3, r3, #1
 8002b98:	2b01      	cmp	r3, #1
 8002b9a:	d007      	beq.n	8002bac <I2C_Flush_TXDR+0x3c>
  {
    __HAL_I2C_CLEAR_FLAG(hi2c, I2C_FLAG_TXE);
 8002b9c:	687b      	ldr	r3, [r7, #4]
 8002b9e:	681b      	ldr	r3, [r3, #0]
 8002ba0:	699a      	ldr	r2, [r3, #24]
 8002ba2:	687b      	ldr	r3, [r7, #4]
 8002ba4:	681b      	ldr	r3, [r3, #0]
 8002ba6:	f042 0201 	orr.w	r2, r2, #1
 8002baa:	619a      	str	r2, [r3, #24]
  }
}
 8002bac:	bf00      	nop
 8002bae:	370c      	adds	r7, #12
 8002bb0:	46bd      	mov	sp, r7
 8002bb2:	f85d 7b04 	ldr.w	r7, [sp], #4
 8002bb6:	4770      	bx	lr

08002bb8 <I2C_WaitOnFlagUntilTimeout>:
  * @param  Tickstart Tick start value
  * @retval HAL status
  */
static HAL_StatusTypeDef I2C_WaitOnFlagUntilTimeout(I2C_HandleTypeDef *hi2c, uint32_t Flag, FlagStatus Status,
                                                    uint32_t Timeout, uint32_t Tickstart)
{
 8002bb8:	b580      	push	{r7, lr}
 8002bba:	b084      	sub	sp, #16
 8002bbc:	af00      	add	r7, sp, #0
 8002bbe:	60f8      	str	r0, [r7, #12]
 8002bc0:	60b9      	str	r1, [r7, #8]
 8002bc2:	603b      	str	r3, [r7, #0]
 8002bc4:	4613      	mov	r3, r2
 8002bc6:	71fb      	strb	r3, [r7, #7]
  while (__HAL_I2C_GET_FLAG(hi2c, Flag) == Status)
 8002bc8:	e022      	b.n	8002c10 <I2C_WaitOnFlagUntilTimeout+0x58>
  {
    /* Check for the Timeout */
    if (Timeout != HAL_MAX_DELAY)
 8002bca:	683b      	ldr	r3, [r7, #0]
 8002bcc:	f1b3 3fff 	cmp.w	r3, #4294967295
 8002bd0:	d01e      	beq.n	8002c10 <I2C_WaitOnFlagUntilTimeout+0x58>
    {
      if (((HAL_GetTick() - Tickstart) > Timeout) || (Timeout == 0U))
 8002bd2:	f7ff fa49 	bl	8002068 <HAL_GetTick>
 8002bd6:	4602      	mov	r2, r0
 8002bd8:	69bb      	ldr	r3, [r7, #24]
 8002bda:	1ad3      	subs	r3, r2, r3
 8002bdc:	683a      	ldr	r2, [r7, #0]
 8002bde:	429a      	cmp	r2, r3
 8002be0:	d302      	bcc.n	8002be8 <I2C_WaitOnFlagUntilTimeout+0x30>
 8002be2:	683b      	ldr	r3, [r7, #0]
 8002be4:	2b00      	cmp	r3, #0
 8002be6:	d113      	bne.n	8002c10 <I2C_WaitOnFlagUntilTimeout+0x58>
      {
        hi2c->ErrorCode |= HAL_I2C_ERROR_TIMEOUT;
 8002be8:	68fb      	ldr	r3, [r7, #12]
 8002bea:	6c5b      	ldr	r3, [r3, #68]	; 0x44
 8002bec:	f043 0220 	orr.w	r2, r3, #32
 8002bf0:	68fb      	ldr	r3, [r7, #12]
 8002bf2:	645a      	str	r2, [r3, #68]	; 0x44
        hi2c->State = HAL_I2C_STATE_READY;
 8002bf4:	68fb      	ldr	r3, [r7, #12]
 8002bf6:	2220      	movs	r2, #32
 8002bf8:	f883 2041 	strb.w	r2, [r3, #65]	; 0x41
        hi2c->Mode = HAL_I2C_MODE_NONE;
 8002bfc:	68fb      	ldr	r3, [r7, #12]
 8002bfe:	2200      	movs	r2, #0
 8002c00:	f883 2042 	strb.w	r2, [r3, #66]	; 0x42

        /* Process Unlocked */
        __HAL_UNLOCK(hi2c);
 8002c04:	68fb      	ldr	r3, [r7, #12]
 8002c06:	2200      	movs	r2, #0
 8002c08:	f883 2040 	strb.w	r2, [r3, #64]	; 0x40
        return HAL_ERROR;
 8002c0c:	2301      	movs	r3, #1
 8002c0e:	e00f      	b.n	8002c30 <I2C_WaitOnFlagUntilTimeout+0x78>
  while (__HAL_I2C_GET_FLAG(hi2c, Flag) == Status)
 8002c10:	68fb      	ldr	r3, [r7, #12]
 8002c12:	681b      	ldr	r3, [r3, #0]
 8002c14:	699a      	ldr	r2, [r3, #24]
 8002c16:	68bb      	ldr	r3, [r7, #8]
 8002c18:	4013      	ands	r3, r2
 8002c1a:	68ba      	ldr	r2, [r7, #8]
 8002c1c:	429a      	cmp	r2, r3
 8002c1e:	bf0c      	ite	eq
 8002c20:	2301      	moveq	r3, #1
 8002c22:	2300      	movne	r3, #0
 8002c24:	b2db      	uxtb	r3, r3
 8002c26:	461a      	mov	r2, r3
 8002c28:	79fb      	ldrb	r3, [r7, #7]
 8002c2a:	429a      	cmp	r2, r3
 8002c2c:	d0cd      	beq.n	8002bca <I2C_WaitOnFlagUntilTimeout+0x12>
      }
    }
  }
  return HAL_OK;
 8002c2e:	2300      	movs	r3, #0
}
 8002c30:	4618      	mov	r0, r3
 8002c32:	3710      	adds	r7, #16
 8002c34:	46bd      	mov	sp, r7
 8002c36:	bd80      	pop	{r7, pc}

08002c38 <I2C_WaitOnTXISFlagUntilTimeout>:
  * @param  Tickstart Tick start value
  * @retval HAL status
  */
static HAL_StatusTypeDef I2C_WaitOnTXISFlagUntilTimeout(I2C_HandleTypeDef *hi2c, uint32_t Timeout,
                                                        uint32_t Tickstart)
{
 8002c38:	b580      	push	{r7, lr}
 8002c3a:	b084      	sub	sp, #16
 8002c3c:	af00      	add	r7, sp, #0
 8002c3e:	60f8      	str	r0, [r7, #12]
 8002c40:	60b9      	str	r1, [r7, #8]
 8002c42:	607a      	str	r2, [r7, #4]
  while (__HAL_I2C_GET_FLAG(hi2c, I2C_FLAG_TXIS) == RESET)
 8002c44:	e02c      	b.n	8002ca0 <I2C_WaitOnTXISFlagUntilTimeout+0x68>
  {
    /* Check if an error is detected */
    if (I2C_IsErrorOccurred(hi2c, Timeout, Tickstart) != HAL_OK)
 8002c46:	687a      	ldr	r2, [r7, #4]
 8002c48:	68b9      	ldr	r1, [r7, #8]
 8002c4a:	68f8      	ldr	r0, [r7, #12]
 8002c4c:	f000 f8ea 	bl	8002e24 <I2C_IsErrorOccurred>
 8002c50:	4603      	mov	r3, r0
 8002c52:	2b00      	cmp	r3, #0
 8002c54:	d001      	beq.n	8002c5a <I2C_WaitOnTXISFlagUntilTimeout+0x22>
    {
      return HAL_ERROR;
 8002c56:	2301      	movs	r3, #1
 8002c58:	e02a      	b.n	8002cb0 <I2C_WaitOnTXISFlagUntilTimeout+0x78>
    }

    /* Check for the Timeout */
    if (Timeout != HAL_MAX_DELAY)
 8002c5a:	68bb      	ldr	r3, [r7, #8]
 8002c5c:	f1b3 3fff 	cmp.w	r3, #4294967295
 8002c60:	d01e      	beq.n	8002ca0 <I2C_WaitOnTXISFlagUntilTimeout+0x68>
    {
      if (((HAL_GetTick() - Tickstart) > Timeout) || (Timeout == 0U))
 8002c62:	f7ff fa01 	bl	8002068 <HAL_GetTick>
 8002c66:	4602      	mov	r2, r0
 8002c68:	687b      	ldr	r3, [r7, #4]
 8002c6a:	1ad3      	subs	r3, r2, r3
 8002c6c:	68ba      	ldr	r2, [r7, #8]
 8002c6e:	429a      	cmp	r2, r3
 8002c70:	d302      	bcc.n	8002c78 <I2C_WaitOnTXISFlagUntilTimeout+0x40>
 8002c72:	68bb      	ldr	r3, [r7, #8]
 8002c74:	2b00      	cmp	r3, #0
 8002c76:	d113      	bne.n	8002ca0 <I2C_WaitOnTXISFlagUntilTimeout+0x68>
      {
        hi2c->ErrorCode |= HAL_I2C_ERROR_TIMEOUT;
 8002c78:	68fb      	ldr	r3, [r7, #12]
 8002c7a:	6c5b      	ldr	r3, [r3, #68]	; 0x44
 8002c7c:	f043 0220 	orr.w	r2, r3, #32
 8002c80:	68fb      	ldr	r3, [r7, #12]
 8002c82:	645a      	str	r2, [r3, #68]	; 0x44
        hi2c->State = HAL_I2C_STATE_READY;
 8002c84:	68fb      	ldr	r3, [r7, #12]
 8002c86:	2220      	movs	r2, #32
 8002c88:	f883 2041 	strb.w	r2, [r3, #65]	; 0x41
        hi2c->Mode = HAL_I2C_MODE_NONE;
 8002c8c:	68fb      	ldr	r3, [r7, #12]
 8002c8e:	2200      	movs	r2, #0
 8002c90:	f883 2042 	strb.w	r2, [r3, #66]	; 0x42

        /* Process Unlocked */
        __HAL_UNLOCK(hi2c);
 8002c94:	68fb      	ldr	r3, [r7, #12]
 8002c96:	2200      	movs	r2, #0
 8002c98:	f883 2040 	strb.w	r2, [r3, #64]	; 0x40

        return HAL_ERROR;
 8002c9c:	2301      	movs	r3, #1
 8002c9e:	e007      	b.n	8002cb0 <I2C_WaitOnTXISFlagUntilTimeout+0x78>
  while (__HAL_I2C_GET_FLAG(hi2c, I2C_FLAG_TXIS) == RESET)
 8002ca0:	68fb      	ldr	r3, [r7, #12]
 8002ca2:	681b      	ldr	r3, [r3, #0]
 8002ca4:	699b      	ldr	r3, [r3, #24]
 8002ca6:	f003 0302 	and.w	r3, r3, #2
 8002caa:	2b02      	cmp	r3, #2
 8002cac:	d1cb      	bne.n	8002c46 <I2C_WaitOnTXISFlagUntilTimeout+0xe>
      }
    }
  }
  return HAL_OK;
 8002cae:	2300      	movs	r3, #0
}
 8002cb0:	4618      	mov	r0, r3
 8002cb2:	3710      	adds	r7, #16
 8002cb4:	46bd      	mov	sp, r7
 8002cb6:	bd80      	pop	{r7, pc}

08002cb8 <I2C_WaitOnSTOPFlagUntilTimeout>:
  * @param  Tickstart Tick start value
  * @retval HAL status
  */
static HAL_StatusTypeDef I2C_WaitOnSTOPFlagUntilTimeout(I2C_HandleTypeDef *hi2c, uint32_t Timeout,
                                                        uint32_t Tickstart)
{
 8002cb8:	b580      	push	{r7, lr}
 8002cba:	b084      	sub	sp, #16
 8002cbc:	af00      	add	r7, sp, #0
 8002cbe:	60f8      	str	r0, [r7, #12]
 8002cc0:	60b9      	str	r1, [r7, #8]
 8002cc2:	607a      	str	r2, [r7, #4]
  while (__HAL_I2C_GET_FLAG(hi2c, I2C_FLAG_STOPF) == RESET)
 8002cc4:	e028      	b.n	8002d18 <I2C_WaitOnSTOPFlagUntilTimeout+0x60>
  {
    /* Check if an error is detected */
    if (I2C_IsErrorOccurred(hi2c, Timeout, Tickstart) != HAL_OK)
 8002cc6:	687a      	ldr	r2, [r7, #4]
 8002cc8:	68b9      	ldr	r1, [r7, #8]
 8002cca:	68f8      	ldr	r0, [r7, #12]
 8002ccc:	f000 f8aa 	bl	8002e24 <I2C_IsErrorOccurred>
 8002cd0:	4603      	mov	r3, r0
 8002cd2:	2b00      	cmp	r3, #0
 8002cd4:	d001      	beq.n	8002cda <I2C_WaitOnSTOPFlagUntilTimeout+0x22>
    {
      return HAL_ERROR;
 8002cd6:	2301      	movs	r3, #1
 8002cd8:	e026      	b.n	8002d28 <I2C_WaitOnSTOPFlagUntilTimeout+0x70>
    }

    /* Check for the Timeout */
    if (((HAL_GetTick() - Tickstart) > Timeout) || (Timeout == 0U))
 8002cda:	f7ff f9c5 	bl	8002068 <HAL_GetTick>
 8002cde:	4602      	mov	r2, r0
 8002ce0:	687b      	ldr	r3, [r7, #4]
 8002ce2:	1ad3      	subs	r3, r2, r3
 8002ce4:	68ba      	ldr	r2, [r7, #8]
 8002ce6:	429a      	cmp	r2, r3
 8002ce8:	d302      	bcc.n	8002cf0 <I2C_WaitOnSTOPFlagUntilTimeout+0x38>
 8002cea:	68bb      	ldr	r3, [r7, #8]
 8002cec:	2b00      	cmp	r3, #0
 8002cee:	d113      	bne.n	8002d18 <I2C_WaitOnSTOPFlagUntilTimeout+0x60>
    {
      hi2c->ErrorCode |= HAL_I2C_ERROR_TIMEOUT;
 8002cf0:	68fb      	ldr	r3, [r7, #12]
 8002cf2:	6c5b      	ldr	r3, [r3, #68]	; 0x44
 8002cf4:	f043 0220 	orr.w	r2, r3, #32
 8002cf8:	68fb      	ldr	r3, [r7, #12]
 8002cfa:	645a      	str	r2, [r3, #68]	; 0x44
      hi2c->State = HAL_I2C_STATE_READY;
 8002cfc:	68fb      	ldr	r3, [r7, #12]
 8002cfe:	2220      	movs	r2, #32
 8002d00:	f883 2041 	strb.w	r2, [r3, #65]	; 0x41
      hi2c->Mode = HAL_I2C_MODE_NONE;
 8002d04:	68fb      	ldr	r3, [r7, #12]
 8002d06:	2200      	movs	r2, #0
 8002d08:	f883 2042 	strb.w	r2, [r3, #66]	; 0x42

      /* Process Unlocked */
      __HAL_UNLOCK(hi2c);
 8002d0c:	68fb      	ldr	r3, [r7, #12]
 8002d0e:	2200      	movs	r2, #0
 8002d10:	f883 2040 	strb.w	r2, [r3, #64]	; 0x40

      return HAL_ERROR;
 8002d14:	2301      	movs	r3, #1
 8002d16:	e007      	b.n	8002d28 <I2C_WaitOnSTOPFlagUntilTimeout+0x70>
  while (__HAL_I2C_GET_FLAG(hi2c, I2C_FLAG_STOPF) == RESET)
 8002d18:	68fb      	ldr	r3, [r7, #12]
 8002d1a:	681b      	ldr	r3, [r3, #0]
 8002d1c:	699b      	ldr	r3, [r3, #24]
 8002d1e:	f003 0320 	and.w	r3, r3, #32
 8002d22:	2b20      	cmp	r3, #32
 8002d24:	d1cf      	bne.n	8002cc6 <I2C_WaitOnSTOPFlagUntilTimeout+0xe>
    }
  }
  return HAL_OK;
 8002d26:	2300      	movs	r3, #0
}
 8002d28:	4618      	mov	r0, r3
 8002d2a:	3710      	adds	r7, #16
 8002d2c:	46bd      	mov	sp, r7
 8002d2e:	bd80      	pop	{r7, pc}

08002d30 <I2C_WaitOnRXNEFlagUntilTimeout>:
  * @param  Tickstart Tick start value
  * @retval HAL status
  */
static HAL_StatusTypeDef I2C_WaitOnRXNEFlagUntilTimeout(I2C_HandleTypeDef *hi2c, uint32_t Timeout,
                                                        uint32_t Tickstart)
{
 8002d30:	b580      	push	{r7, lr}
 8002d32:	b084      	sub	sp, #16
 8002d34:	af00      	add	r7, sp, #0
 8002d36:	60f8      	str	r0, [r7, #12]
 8002d38:	60b9      	str	r1, [r7, #8]
 8002d3a:	607a      	str	r2, [r7, #4]
  while (__HAL_I2C_GET_FLAG(hi2c, I2C_FLAG_RXNE) == RESET)
 8002d3c:	e064      	b.n	8002e08 <I2C_WaitOnRXNEFlagUntilTimeout+0xd8>
  {
    /* Check if an error is detected */
    if (I2C_IsErrorOccurred(hi2c, Timeout, Tickstart) != HAL_OK)
 8002d3e:	687a      	ldr	r2, [r7, #4]
 8002d40:	68b9      	ldr	r1, [r7, #8]
 8002d42:	68f8      	ldr	r0, [r7, #12]
 8002d44:	f000 f86e 	bl	8002e24 <I2C_IsErrorOccurred>
 8002d48:	4603      	mov	r3, r0
 8002d4a:	2b00      	cmp	r3, #0
 8002d4c:	d001      	beq.n	8002d52 <I2C_WaitOnRXNEFlagUntilTimeout+0x22>
    {
      return HAL_ERROR;
 8002d4e:	2301      	movs	r3, #1
 8002d50:	e062      	b.n	8002e18 <I2C_WaitOnRXNEFlagUntilTimeout+0xe8>
    }

    /* Check if a STOPF is detected */
    if (__HAL_I2C_GET_FLAG(hi2c, I2C_FLAG_STOPF) == SET)
 8002d52:	68fb      	ldr	r3, [r7, #12]
 8002d54:	681b      	ldr	r3, [r3, #0]
 8002d56:	699b      	ldr	r3, [r3, #24]
 8002d58:	f003 0320 	and.w	r3, r3, #32
 8002d5c:	2b20      	cmp	r3, #32
 8002d5e:	d138      	bne.n	8002dd2 <I2C_WaitOnRXNEFlagUntilTimeout+0xa2>
    {
      /* Check if an RXNE is pending */
      /* Store Last receive data if any */
      if ((__HAL_I2C_GET_FLAG(hi2c, I2C_FLAG_RXNE) == SET) && (hi2c->XferSize > 0U))
 8002d60:	68fb      	ldr	r3, [r7, #12]
 8002d62:	681b      	ldr	r3, [r3, #0]
 8002d64:	699b      	ldr	r3, [r3, #24]
 8002d66:	f003 0304 	and.w	r3, r3, #4
 8002d6a:	2b04      	cmp	r3, #4
 8002d6c:	d105      	bne.n	8002d7a <I2C_WaitOnRXNEFlagUntilTimeout+0x4a>
 8002d6e:	68fb      	ldr	r3, [r7, #12]
 8002d70:	8d1b      	ldrh	r3, [r3, #40]	; 0x28
 8002d72:	2b00      	cmp	r3, #0
 8002d74:	d001      	beq.n	8002d7a <I2C_WaitOnRXNEFlagUntilTimeout+0x4a>
      {
        /* Return HAL_OK */
        /* The Reading of data from RXDR will be done in caller function */
        return HAL_OK;
 8002d76:	2300      	movs	r3, #0
 8002d78:	e04e      	b.n	8002e18 <I2C_WaitOnRXNEFlagUntilTimeout+0xe8>
      }
      else
      {
        if (__HAL_I2C_GET_FLAG(hi2c, I2C_FLAG_AF) == SET)
 8002d7a:	68fb      	ldr	r3, [r7, #12]
 8002d7c:	681b      	ldr	r3, [r3, #0]
 8002d7e:	699b      	ldr	r3, [r3, #24]
 8002d80:	f003 0310 	and.w	r3, r3, #16
 8002d84:	2b10      	cmp	r3, #16
 8002d86:	d107      	bne.n	8002d98 <I2C_WaitOnRXNEFlagUntilTimeout+0x68>
        {
          __HAL_I2C_CLEAR_FLAG(hi2c, I2C_FLAG_AF);
 8002d88:	68fb      	ldr	r3, [r7, #12]
 8002d8a:	681b      	ldr	r3, [r3, #0]
 8002d8c:	2210      	movs	r2, #16
 8002d8e:	61da      	str	r2, [r3, #28]
          hi2c->ErrorCode = HAL_I2C_ERROR_AF;
 8002d90:	68fb      	ldr	r3, [r7, #12]
 8002d92:	2204      	movs	r2, #4
 8002d94:	645a      	str	r2, [r3, #68]	; 0x44
 8002d96:	e002      	b.n	8002d9e <I2C_WaitOnRXNEFlagUntilTimeout+0x6e>
        }
        else
        {
          hi2c->ErrorCode = HAL_I2C_ERROR_NONE;
 8002d98:	68fb      	ldr	r3, [r7, #12]
 8002d9a:	2200      	movs	r2, #0
 8002d9c:	645a      	str	r2, [r3, #68]	; 0x44
        }

        /* Clear STOP Flag */
        __HAL_I2C_CLEAR_FLAG(hi2c, I2C_FLAG_STOPF);
 8002d9e:	68fb      	ldr	r3, [r7, #12]
 8002da0:	681b      	ldr	r3, [r3, #0]
 8002da2:	2220      	movs	r2, #32
 8002da4:	61da      	str	r2, [r3, #28]

        /* Clear Configuration Register 2 */
        I2C_RESET_CR2(hi2c);
 8002da6:	68fb      	ldr	r3, [r7, #12]
 8002da8:	681b      	ldr	r3, [r3, #0]
 8002daa:	6859      	ldr	r1, [r3, #4]
 8002dac:	68fb      	ldr	r3, [r7, #12]
 8002dae:	681a      	ldr	r2, [r3, #0]
 8002db0:	4b1b      	ldr	r3, [pc, #108]	; (8002e20 <I2C_WaitOnRXNEFlagUntilTimeout+0xf0>)
 8002db2:	400b      	ands	r3, r1
 8002db4:	6053      	str	r3, [r2, #4]

        hi2c->State = HAL_I2C_STATE_READY;
 8002db6:	68fb      	ldr	r3, [r7, #12]
 8002db8:	2220      	movs	r2, #32
 8002dba:	f883 2041 	strb.w	r2, [r3, #65]	; 0x41
        hi2c->Mode = HAL_I2C_MODE_NONE;
 8002dbe:	68fb      	ldr	r3, [r7, #12]
 8002dc0:	2200      	movs	r2, #0
 8002dc2:	f883 2042 	strb.w	r2, [r3, #66]	; 0x42

        /* Process Unlocked */
        __HAL_UNLOCK(hi2c);
 8002dc6:	68fb      	ldr	r3, [r7, #12]
 8002dc8:	2200      	movs	r2, #0
 8002dca:	f883 2040 	strb.w	r2, [r3, #64]	; 0x40

        return HAL_ERROR;
 8002dce:	2301      	movs	r3, #1
 8002dd0:	e022      	b.n	8002e18 <I2C_WaitOnRXNEFlagUntilTimeout+0xe8>
      }
    }

    /* Check for the Timeout */
    if (((HAL_GetTick() - Tickstart) > Timeout) || (Timeout == 0U))
 8002dd2:	f7ff f949 	bl	8002068 <HAL_GetTick>
 8002dd6:	4602      	mov	r2, r0
 8002dd8:	687b      	ldr	r3, [r7, #4]
 8002dda:	1ad3      	subs	r3, r2, r3
 8002ddc:	68ba      	ldr	r2, [r7, #8]
 8002dde:	429a      	cmp	r2, r3
 8002de0:	d302      	bcc.n	8002de8 <I2C_WaitOnRXNEFlagUntilTimeout+0xb8>
 8002de2:	68bb      	ldr	r3, [r7, #8]
 8002de4:	2b00      	cmp	r3, #0
 8002de6:	d10f      	bne.n	8002e08 <I2C_WaitOnRXNEFlagUntilTimeout+0xd8>
    {
      hi2c->ErrorCode |= HAL_I2C_ERROR_TIMEOUT;
 8002de8:	68fb      	ldr	r3, [r7, #12]
 8002dea:	6c5b      	ldr	r3, [r3, #68]	; 0x44
 8002dec:	f043 0220 	orr.w	r2, r3, #32
 8002df0:	68fb      	ldr	r3, [r7, #12]
 8002df2:	645a      	str	r2, [r3, #68]	; 0x44
      hi2c->State = HAL_I2C_STATE_READY;
 8002df4:	68fb      	ldr	r3, [r7, #12]
 8002df6:	2220      	movs	r2, #32
 8002df8:	f883 2041 	strb.w	r2, [r3, #65]	; 0x41

      /* Process Unlocked */
      __HAL_UNLOCK(hi2c);
 8002dfc:	68fb      	ldr	r3, [r7, #12]
 8002dfe:	2200      	movs	r2, #0
 8002e00:	f883 2040 	strb.w	r2, [r3, #64]	; 0x40

      return HAL_ERROR;
 8002e04:	2301      	movs	r3, #1
 8002e06:	e007      	b.n	8002e18 <I2C_WaitOnRXNEFlagUntilTimeout+0xe8>
  while (__HAL_I2C_GET_FLAG(hi2c, I2C_FLAG_RXNE) == RESET)
 8002e08:	68fb      	ldr	r3, [r7, #12]
 8002e0a:	681b      	ldr	r3, [r3, #0]
 8002e0c:	699b      	ldr	r3, [r3, #24]
 8002e0e:	f003 0304 	and.w	r3, r3, #4
 8002e12:	2b04      	cmp	r3, #4
 8002e14:	d193      	bne.n	8002d3e <I2C_WaitOnRXNEFlagUntilTimeout+0xe>
    }
  }
  return HAL_OK;
 8002e16:	2300      	movs	r3, #0
}
 8002e18:	4618      	mov	r0, r3
 8002e1a:	3710      	adds	r7, #16
 8002e1c:	46bd      	mov	sp, r7
 8002e1e:	bd80      	pop	{r7, pc}
 8002e20:	fe00e800 	.word	0xfe00e800

08002e24 <I2C_IsErrorOccurred>:
  * @param  Timeout Timeout duration
  * @param  Tickstart Tick start value
  * @retval HAL status
  */
static HAL_StatusTypeDef I2C_IsErrorOccurred(I2C_HandleTypeDef *hi2c, uint32_t Timeout, uint32_t Tickstart)
{
 8002e24:	b580      	push	{r7, lr}
 8002e26:	b08a      	sub	sp, #40	; 0x28
 8002e28:	af00      	add	r7, sp, #0
 8002e2a:	60f8      	str	r0, [r7, #12]
 8002e2c:	60b9      	str	r1, [r7, #8]
 8002e2e:	607a      	str	r2, [r7, #4]
  HAL_StatusTypeDef status = HAL_OK;
 8002e30:	2300      	movs	r3, #0
 8002e32:	f887 3027 	strb.w	r3, [r7, #39]	; 0x27
  uint32_t itflag   = hi2c->Instance->ISR;
 8002e36:	68fb      	ldr	r3, [r7, #12]
 8002e38:	681b      	ldr	r3, [r3, #0]
 8002e3a:	699b      	ldr	r3, [r3, #24]
 8002e3c:	61bb      	str	r3, [r7, #24]
  uint32_t error_code = 0;
 8002e3e:	2300      	movs	r3, #0
 8002e40:	623b      	str	r3, [r7, #32]
  uint32_t tickstart = Tickstart;
 8002e42:	687b      	ldr	r3, [r7, #4]
 8002e44:	61fb      	str	r3, [r7, #28]
  uint32_t tmp1;
  HAL_I2C_ModeTypeDef tmp2;

  if (HAL_IS_BIT_SET(itflag, I2C_FLAG_AF))
 8002e46:	69bb      	ldr	r3, [r7, #24]
 8002e48:	f003 0310 	and.w	r3, r3, #16
 8002e4c:	2b00      	cmp	r3, #0
 8002e4e:	d068      	beq.n	8002f22 <I2C_IsErrorOccurred+0xfe>
  {
    /* Clear NACKF Flag */
    __HAL_I2C_CLEAR_FLAG(hi2c, I2C_FLAG_AF);
 8002e50:	68fb      	ldr	r3, [r7, #12]
 8002e52:	681b      	ldr	r3, [r3, #0]
 8002e54:	2210      	movs	r2, #16
 8002e56:	61da      	str	r2, [r3, #28]

    /* Wait until STOP Flag is set or timeout occurred */
    /* AutoEnd should be initiate after AF */
    while ((__HAL_I2C_GET_FLAG(hi2c, I2C_FLAG_STOPF) == RESET) && (status == HAL_OK))
 8002e58:	e049      	b.n	8002eee <I2C_IsErrorOccurred+0xca>
    {
      /* Check for the Timeout */
      if (Timeout != HAL_MAX_DELAY)
 8002e5a:	68bb      	ldr	r3, [r7, #8]
 8002e5c:	f1b3 3fff 	cmp.w	r3, #4294967295
 8002e60:	d045      	beq.n	8002eee <I2C_IsErrorOccurred+0xca>
      {
        if (((HAL_GetTick() - tickstart) > Timeout) || (Timeout == 0U))
 8002e62:	f7ff f901 	bl	8002068 <HAL_GetTick>
 8002e66:	4602      	mov	r2, r0
 8002e68:	69fb      	ldr	r3, [r7, #28]
 8002e6a:	1ad3      	subs	r3, r2, r3
 8002e6c:	68ba      	ldr	r2, [r7, #8]
 8002e6e:	429a      	cmp	r2, r3
 8002e70:	d302      	bcc.n	8002e78 <I2C_IsErrorOccurred+0x54>
 8002e72:	68bb      	ldr	r3, [r7, #8]
 8002e74:	2b00      	cmp	r3, #0
 8002e76:	d13a      	bne.n	8002eee <I2C_IsErrorOccurred+0xca>
        {
          tmp1 = (uint32_t)(hi2c->Instance->CR2 & I2C_CR2_STOP);
 8002e78:	68fb      	ldr	r3, [r7, #12]
 8002e7a:	681b      	ldr	r3, [r3, #0]
 8002e7c:	685b      	ldr	r3, [r3, #4]
 8002e7e:	f403 4380 	and.w	r3, r3, #16384	; 0x4000
 8002e82:	617b      	str	r3, [r7, #20]
          tmp2 = hi2c->Mode;
 8002e84:	68fb      	ldr	r3, [r7, #12]
 8002e86:	f893 3042 	ldrb.w	r3, [r3, #66]	; 0x42
 8002e8a:	74fb      	strb	r3, [r7, #19]

          /* In case of I2C still busy, try to regenerate a STOP manually */
          if ((__HAL_I2C_GET_FLAG(hi2c, I2C_FLAG_BUSY) != RESET) && \
 8002e8c:	68fb      	ldr	r3, [r7, #12]
 8002e8e:	681b      	ldr	r3, [r3, #0]
 8002e90:	699b      	ldr	r3, [r3, #24]
 8002e92:	f403 4300 	and.w	r3, r3, #32768	; 0x8000
 8002e96:	f5b3 4f00 	cmp.w	r3, #32768	; 0x8000
 8002e9a:	d121      	bne.n	8002ee0 <I2C_IsErrorOccurred+0xbc>
 8002e9c:	697b      	ldr	r3, [r7, #20]
 8002e9e:	f5b3 4f80 	cmp.w	r3, #16384	; 0x4000
 8002ea2:	d01d      	beq.n	8002ee0 <I2C_IsErrorOccurred+0xbc>
              (tmp1 != I2C_CR2_STOP) && \
 8002ea4:	7cfb      	ldrb	r3, [r7, #19]
 8002ea6:	2b20      	cmp	r3, #32
 8002ea8:	d01a      	beq.n	8002ee0 <I2C_IsErrorOccurred+0xbc>
              (tmp2 != HAL_I2C_MODE_SLAVE))
          {
            /* Generate Stop */
            hi2c->Instance->CR2 |= I2C_CR2_STOP;
 8002eaa:	68fb      	ldr	r3, [r7, #12]
 8002eac:	681b      	ldr	r3, [r3, #0]
 8002eae:	685a      	ldr	r2, [r3, #4]
 8002eb0:	68fb      	ldr	r3, [r7, #12]
 8002eb2:	681b      	ldr	r3, [r3, #0]
 8002eb4:	f442 4280 	orr.w	r2, r2, #16384	; 0x4000
 8002eb8:	605a      	str	r2, [r3, #4]

            /* Update Tick with new reference */
            tickstart = HAL_GetTick();
 8002eba:	f7ff f8d5 	bl	8002068 <HAL_GetTick>
 8002ebe:	61f8      	str	r0, [r7, #28]
          }

          while (__HAL_I2C_GET_FLAG(hi2c, I2C_FLAG_STOPF) == RESET)
 8002ec0:	e00e      	b.n	8002ee0 <I2C_IsErrorOccurred+0xbc>
          {
            /* Check for the Timeout */
            if ((HAL_GetTick() - tickstart) > I2C_TIMEOUT_STOPF)
 8002ec2:	f7ff f8d1 	bl	8002068 <HAL_GetTick>
 8002ec6:	4602      	mov	r2, r0
 8002ec8:	69fb      	ldr	r3, [r7, #28]
 8002eca:	1ad3      	subs	r3, r2, r3
 8002ecc:	2b19      	cmp	r3, #25
 8002ece:	d907      	bls.n	8002ee0 <I2C_IsErrorOccurred+0xbc>
            {
              error_code |=HAL_I2C_ERROR_TIMEOUT;
 8002ed0:	6a3b      	ldr	r3, [r7, #32]
 8002ed2:	f043 0320 	orr.w	r3, r3, #32
 8002ed6:	623b      	str	r3, [r7, #32]

              status = HAL_ERROR;
 8002ed8:	2301      	movs	r3, #1
 8002eda:	f887 3027 	strb.w	r3, [r7, #39]	; 0x27

              break;
 8002ede:	e006      	b.n	8002eee <I2C_IsErrorOccurred+0xca>
          while (__HAL_I2C_GET_FLAG(hi2c, I2C_FLAG_STOPF) == RESET)
 8002ee0:	68fb      	ldr	r3, [r7, #12]
 8002ee2:	681b      	ldr	r3, [r3, #0]
 8002ee4:	699b      	ldr	r3, [r3, #24]
 8002ee6:	f003 0320 	and.w	r3, r3, #32
 8002eea:	2b20      	cmp	r3, #32
 8002eec:	d1e9      	bne.n	8002ec2 <I2C_IsErrorOccurred+0x9e>
    while ((__HAL_I2C_GET_FLAG(hi2c, I2C_FLAG_STOPF) == RESET) && (status == HAL_OK))
 8002eee:	68fb      	ldr	r3, [r7, #12]
 8002ef0:	681b      	ldr	r3, [r3, #0]
 8002ef2:	699b      	ldr	r3, [r3, #24]
 8002ef4:	f003 0320 	and.w	r3, r3, #32
 8002ef8:	2b20      	cmp	r3, #32
 8002efa:	d003      	beq.n	8002f04 <I2C_IsErrorOccurred+0xe0>
 8002efc:	f897 3027 	ldrb.w	r3, [r7, #39]	; 0x27
 8002f00:	2b00      	cmp	r3, #0
 8002f02:	d0aa      	beq.n	8002e5a <I2C_IsErrorOccurred+0x36>
        }
      }
    }

    /* In case STOP Flag is detected, clear it */
    if (status == HAL_OK)
 8002f04:	f897 3027 	ldrb.w	r3, [r7, #39]	; 0x27
 8002f08:	2b00      	cmp	r3, #0
 8002f0a:	d103      	bne.n	8002f14 <I2C_IsErrorOccurred+0xf0>
    {
      /* Clear STOP Flag */
      __HAL_I2C_CLEAR_FLAG(hi2c, I2C_FLAG_STOPF);
 8002f0c:	68fb      	ldr	r3, [r7, #12]
 8002f0e:	681b      	ldr	r3, [r3, #0]
 8002f10:	2220      	movs	r2, #32
 8002f12:	61da      	str	r2, [r3, #28]
    }

    error_code |= HAL_I2C_ERROR_AF;
 8002f14:	6a3b      	ldr	r3, [r7, #32]
 8002f16:	f043 0304 	orr.w	r3, r3, #4
 8002f1a:	623b      	str	r3, [r7, #32]

    status = HAL_ERROR;
 8002f1c:	2301      	movs	r3, #1
 8002f1e:	f887 3027 	strb.w	r3, [r7, #39]	; 0x27
  }

  /* Refresh Content of Status register */
  itflag = hi2c->Instance->ISR;
 8002f22:	68fb      	ldr	r3, [r7, #12]
 8002f24:	681b      	ldr	r3, [r3, #0]
 8002f26:	699b      	ldr	r3, [r3, #24]
 8002f28:	61bb      	str	r3, [r7, #24]

  /* Then verify if an additional errors occurs */
  /* Check if a Bus error occurred */
  if (HAL_IS_BIT_SET(itflag, I2C_FLAG_BERR))
 8002f2a:	69bb      	ldr	r3, [r7, #24]
 8002f2c:	f403 7380 	and.w	r3, r3, #256	; 0x100
 8002f30:	2b00      	cmp	r3, #0
 8002f32:	d00b      	beq.n	8002f4c <I2C_IsErrorOccurred+0x128>
  {
    error_code |= HAL_I2C_ERROR_BERR;
 8002f34:	6a3b      	ldr	r3, [r7, #32]
 8002f36:	f043 0301 	orr.w	r3, r3, #1
 8002f3a:	623b      	str	r3, [r7, #32]

    /* Clear BERR flag */
    __HAL_I2C_CLEAR_FLAG(hi2c, I2C_FLAG_BERR);
 8002f3c:	68fb      	ldr	r3, [r7, #12]
 8002f3e:	681b      	ldr	r3, [r3, #0]
 8002f40:	f44f 7280 	mov.w	r2, #256	; 0x100
 8002f44:	61da      	str	r2, [r3, #28]

    status = HAL_ERROR;
 8002f46:	2301      	movs	r3, #1
 8002f48:	f887 3027 	strb.w	r3, [r7, #39]	; 0x27
  }

  /* Check if an Over-Run/Under-Run error occurred */
  if (HAL_IS_BIT_SET(itflag, I2C_FLAG_OVR))
 8002f4c:	69bb      	ldr	r3, [r7, #24]
 8002f4e:	f403 6380 	and.w	r3, r3, #1024	; 0x400
 8002f52:	2b00      	cmp	r3, #0
 8002f54:	d00b      	beq.n	8002f6e <I2C_IsErrorOccurred+0x14a>
  {
    error_code |= HAL_I2C_ERROR_OVR;
 8002f56:	6a3b      	ldr	r3, [r7, #32]
 8002f58:	f043 0308 	orr.w	r3, r3, #8
 8002f5c:	623b      	str	r3, [r7, #32]

    /* Clear OVR flag */
    __HAL_I2C_CLEAR_FLAG(hi2c, I2C_FLAG_OVR);
 8002f5e:	68fb      	ldr	r3, [r7, #12]
 8002f60:	681b      	ldr	r3, [r3, #0]
 8002f62:	f44f 6280 	mov.w	r2, #1024	; 0x400
 8002f66:	61da      	str	r2, [r3, #28]

    status = HAL_ERROR;
 8002f68:	2301      	movs	r3, #1
 8002f6a:	f887 3027 	strb.w	r3, [r7, #39]	; 0x27
  }

  /* Check if an Arbitration Loss error occurred */
  if (HAL_IS_BIT_SET(itflag, I2C_FLAG_ARLO))
 8002f6e:	69bb      	ldr	r3, [r7, #24]
 8002f70:	f403 7300 	and.w	r3, r3, #512	; 0x200
 8002f74:	2b00      	cmp	r3, #0
 8002f76:	d00b      	beq.n	8002f90 <I2C_IsErrorOccurred+0x16c>
  {
    error_code |= HAL_I2C_ERROR_ARLO;
 8002f78:	6a3b      	ldr	r3, [r7, #32]
 8002f7a:	f043 0302 	orr.w	r3, r3, #2
 8002f7e:	623b      	str	r3, [r7, #32]

    /* Clear ARLO flag */
    __HAL_I2C_CLEAR_FLAG(hi2c, I2C_FLAG_ARLO);
 8002f80:	68fb      	ldr	r3, [r7, #12]
 8002f82:	681b      	ldr	r3, [r3, #0]
 8002f84:	f44f 7200 	mov.w	r2, #512	; 0x200
 8002f88:	61da      	str	r2, [r3, #28]

    status = HAL_ERROR;
 8002f8a:	2301      	movs	r3, #1
 8002f8c:	f887 3027 	strb.w	r3, [r7, #39]	; 0x27
  }

  if (status != HAL_OK)
 8002f90:	f897 3027 	ldrb.w	r3, [r7, #39]	; 0x27
 8002f94:	2b00      	cmp	r3, #0
 8002f96:	d01c      	beq.n	8002fd2 <I2C_IsErrorOccurred+0x1ae>
  {
    /* Flush TX register */
    I2C_Flush_TXDR(hi2c);
 8002f98:	68f8      	ldr	r0, [r7, #12]
 8002f9a:	f7ff fde9 	bl	8002b70 <I2C_Flush_TXDR>

    /* Clear Configuration Register 2 */
    I2C_RESET_CR2(hi2c);
 8002f9e:	68fb      	ldr	r3, [r7, #12]
 8002fa0:	681b      	ldr	r3, [r3, #0]
 8002fa2:	6859      	ldr	r1, [r3, #4]
 8002fa4:	68fb      	ldr	r3, [r7, #12]
 8002fa6:	681a      	ldr	r2, [r3, #0]
 8002fa8:	4b0d      	ldr	r3, [pc, #52]	; (8002fe0 <I2C_IsErrorOccurred+0x1bc>)
 8002faa:	400b      	ands	r3, r1
 8002fac:	6053      	str	r3, [r2, #4]

    hi2c->ErrorCode |= error_code;
 8002fae:	68fb      	ldr	r3, [r7, #12]
 8002fb0:	6c5a      	ldr	r2, [r3, #68]	; 0x44
 8002fb2:	6a3b      	ldr	r3, [r7, #32]
 8002fb4:	431a      	orrs	r2, r3
 8002fb6:	68fb      	ldr	r3, [r7, #12]
 8002fb8:	645a      	str	r2, [r3, #68]	; 0x44
    hi2c->State = HAL_I2C_STATE_READY;
 8002fba:	68fb      	ldr	r3, [r7, #12]
 8002fbc:	2220      	movs	r2, #32
 8002fbe:	f883 2041 	strb.w	r2, [r3, #65]	; 0x41
    hi2c->Mode = HAL_I2C_MODE_NONE;
 8002fc2:	68fb      	ldr	r3, [r7, #12]
 8002fc4:	2200      	movs	r2, #0
 8002fc6:	f883 2042 	strb.w	r2, [r3, #66]	; 0x42

    /* Process Unlocked */
    __HAL_UNLOCK(hi2c);
 8002fca:	68fb      	ldr	r3, [r7, #12]
 8002fcc:	2200      	movs	r2, #0
 8002fce:	f883 2040 	strb.w	r2, [r3, #64]	; 0x40
  }

  return status;
 8002fd2:	f897 3027 	ldrb.w	r3, [r7, #39]	; 0x27
}
 8002fd6:	4618      	mov	r0, r3
 8002fd8:	3728      	adds	r7, #40	; 0x28
 8002fda:	46bd      	mov	sp, r7
 8002fdc:	bd80      	pop	{r7, pc}
 8002fde:	bf00      	nop
 8002fe0:	fe00e800 	.word	0xfe00e800

08002fe4 <I2C_TransferConfig>:
  *     @arg @ref I2C_GENERATE_START_WRITE Generate Restart for write request.
  * @retval None
  */
static void I2C_TransferConfig(I2C_HandleTypeDef *hi2c, uint16_t DevAddress, uint8_t Size, uint32_t Mode,
                               uint32_t Request)
{
 8002fe4:	b480      	push	{r7}
 8002fe6:	b087      	sub	sp, #28
 8002fe8:	af00      	add	r7, sp, #0
 8002fea:	60f8      	str	r0, [r7, #12]
 8002fec:	607b      	str	r3, [r7, #4]
 8002fee:	460b      	mov	r3, r1
 8002ff0:	817b      	strh	r3, [r7, #10]
 8002ff2:	4613      	mov	r3, r2
 8002ff4:	727b      	strb	r3, [r7, #9]
  assert_param(IS_I2C_ALL_INSTANCE(hi2c->Instance));
  assert_param(IS_TRANSFER_MODE(Mode));
  assert_param(IS_TRANSFER_REQUEST(Request));

  /* Declaration of tmp to prevent undefined behavior of volatile usage */
  uint32_t tmp = ((uint32_t)(((uint32_t)DevAddress & I2C_CR2_SADD) | \
 8002ff6:	897b      	ldrh	r3, [r7, #10]
 8002ff8:	f3c3 0209 	ubfx	r2, r3, #0, #10
                             (((uint32_t)Size << I2C_CR2_NBYTES_Pos) & I2C_CR2_NBYTES) | \
 8002ffc:	7a7b      	ldrb	r3, [r7, #9]
 8002ffe:	041b      	lsls	r3, r3, #16
 8003000:	f403 037f 	and.w	r3, r3, #16711680	; 0xff0000
  uint32_t tmp = ((uint32_t)(((uint32_t)DevAddress & I2C_CR2_SADD) | \
 8003004:	431a      	orrs	r2, r3
                             (((uint32_t)Size << I2C_CR2_NBYTES_Pos) & I2C_CR2_NBYTES) | \
 8003006:	687b      	ldr	r3, [r7, #4]
 8003008:	431a      	orrs	r2, r3
  uint32_t tmp = ((uint32_t)(((uint32_t)DevAddress & I2C_CR2_SADD) | \
 800300a:	6a3b      	ldr	r3, [r7, #32]
 800300c:	4313      	orrs	r3, r2
 800300e:	f023 4300 	bic.w	r3, r3, #2147483648	; 0x80000000
 8003012:	617b      	str	r3, [r7, #20]
                             (uint32_t)Mode | (uint32_t)Request) & (~0x80000000U));

  /* update CR2 register */
  MODIFY_REG(hi2c->Instance->CR2, \
 8003014:	68fb      	ldr	r3, [r7, #12]
 8003016:	681b      	ldr	r3, [r3, #0]
 8003018:	685a      	ldr	r2, [r3, #4]
 800301a:	6a3b      	ldr	r3, [r7, #32]
 800301c:	0d5b      	lsrs	r3, r3, #21
 800301e:	f403 6180 	and.w	r1, r3, #1024	; 0x400
 8003022:	4b08      	ldr	r3, [pc, #32]	; (8003044 <I2C_TransferConfig+0x60>)
 8003024:	430b      	orrs	r3, r1
 8003026:	43db      	mvns	r3, r3
 8003028:	ea02 0103 	and.w	r1, r2, r3
 800302c:	68fb      	ldr	r3, [r7, #12]
 800302e:	681b      	ldr	r3, [r3, #0]
 8003030:	697a      	ldr	r2, [r7, #20]
 8003032:	430a      	orrs	r2, r1
 8003034:	605a      	str	r2, [r3, #4]
             ((I2C_CR2_SADD | I2C_CR2_NBYTES | I2C_CR2_RELOAD | I2C_CR2_AUTOEND | \
               (I2C_CR2_RD_WRN & (uint32_t)(Request >> (31U - I2C_CR2_RD_WRN_Pos))) | \
               I2C_CR2_START | I2C_CR2_STOP)), tmp);
}
 8003036:	bf00      	nop
 8003038:	371c      	adds	r7, #28
 800303a:	46bd      	mov	sp, r7
 800303c:	f85d 7b04 	ldr.w	r7, [sp], #4
 8003040:	4770      	bx	lr
 8003042:	bf00      	nop
 8003044:	03ff63ff 	.word	0x03ff63ff

08003048 <HAL_I2CEx_ConfigAnalogFilter>:
  *                the configuration information for the specified I2Cx peripheral.
  * @param  AnalogFilter New state of the Analog filter.
  * @retval HAL status
  */
HAL_StatusTypeDef HAL_I2CEx_ConfigAnalogFilter(I2C_HandleTypeDef *hi2c, uint32_t AnalogFilter)
{
 8003048:	b480      	push	{r7}
 800304a:	b083      	sub	sp, #12
 800304c:	af00      	add	r7, sp, #0
 800304e:	6078      	str	r0, [r7, #4]
 8003050:	6039      	str	r1, [r7, #0]
  /* Check the parameters */
  assert_param(IS_I2C_ALL_INSTANCE(hi2c->Instance));
  assert_param(IS_I2C_ANALOG_FILTER(AnalogFilter));

  if (hi2c->State == HAL_I2C_STATE_READY)
 8003052:	687b      	ldr	r3, [r7, #4]
 8003054:	f893 3041 	ldrb.w	r3, [r3, #65]	; 0x41
 8003058:	b2db      	uxtb	r3, r3
 800305a:	2b20      	cmp	r3, #32
 800305c:	d138      	bne.n	80030d0 <HAL_I2CEx_ConfigAnalogFilter+0x88>
  {
    /* Process Locked */
    __HAL_LOCK(hi2c);
 800305e:	687b      	ldr	r3, [r7, #4]
 8003060:	f893 3040 	ldrb.w	r3, [r3, #64]	; 0x40
 8003064:	2b01      	cmp	r3, #1
 8003066:	d101      	bne.n	800306c <HAL_I2CEx_ConfigAnalogFilter+0x24>
 8003068:	2302      	movs	r3, #2
 800306a:	e032      	b.n	80030d2 <HAL_I2CEx_ConfigAnalogFilter+0x8a>
 800306c:	687b      	ldr	r3, [r7, #4]
 800306e:	2201      	movs	r2, #1
 8003070:	f883 2040 	strb.w	r2, [r3, #64]	; 0x40

    hi2c->State = HAL_I2C_STATE_BUSY;
 8003074:	687b      	ldr	r3, [r7, #4]
 8003076:	2224      	movs	r2, #36	; 0x24
 8003078:	f883 2041 	strb.w	r2, [r3, #65]	; 0x41

    /* Disable the selected I2C peripheral */
    __HAL_I2C_DISABLE(hi2c);
 800307c:	687b      	ldr	r3, [r7, #4]
 800307e:	681b      	ldr	r3, [r3, #0]
 8003080:	681a      	ldr	r2, [r3, #0]
 8003082:	687b      	ldr	r3, [r7, #4]
 8003084:	681b      	ldr	r3, [r3, #0]
 8003086:	f022 0201 	bic.w	r2, r2, #1
 800308a:	601a      	str	r2, [r3, #0]

    /* Reset I2Cx ANOFF bit */
    hi2c->Instance->CR1 &= ~(I2C_CR1_ANFOFF);
 800308c:	687b      	ldr	r3, [r7, #4]
 800308e:	681b      	ldr	r3, [r3, #0]
 8003090:	681a      	ldr	r2, [r3, #0]
 8003092:	687b      	ldr	r3, [r7, #4]
 8003094:	681b      	ldr	r3, [r3, #0]
 8003096:	f422 5280 	bic.w	r2, r2, #4096	; 0x1000
 800309a:	601a      	str	r2, [r3, #0]

    /* Set analog filter bit*/
    hi2c->Instance->CR1 |= AnalogFilter;
 800309c:	687b      	ldr	r3, [r7, #4]
 800309e:	681b      	ldr	r3, [r3, #0]
 80030a0:	6819      	ldr	r1, [r3, #0]
 80030a2:	687b      	ldr	r3, [r7, #4]
 80030a4:	681b      	ldr	r3, [r3, #0]
 80030a6:	683a      	ldr	r2, [r7, #0]
 80030a8:	430a      	orrs	r2, r1
 80030aa:	601a      	str	r2, [r3, #0]

    __HAL_I2C_ENABLE(hi2c);
 80030ac:	687b      	ldr	r3, [r7, #4]
 80030ae:	681b      	ldr	r3, [r3, #0]
 80030b0:	681a      	ldr	r2, [r3, #0]
 80030b2:	687b      	ldr	r3, [r7, #4]
 80030b4:	681b      	ldr	r3, [r3, #0]
 80030b6:	f042 0201 	orr.w	r2, r2, #1
 80030ba:	601a      	str	r2, [r3, #0]

    hi2c->State = HAL_I2C_STATE_READY;
 80030bc:	687b      	ldr	r3, [r7, #4]
 80030be:	2220      	movs	r2, #32
 80030c0:	f883 2041 	strb.w	r2, [r3, #65]	; 0x41

    /* Process Unlocked */
    __HAL_UNLOCK(hi2c);
 80030c4:	687b      	ldr	r3, [r7, #4]
 80030c6:	2200      	movs	r2, #0
 80030c8:	f883 2040 	strb.w	r2, [r3, #64]	; 0x40

    return HAL_OK;
 80030cc:	2300      	movs	r3, #0
 80030ce:	e000      	b.n	80030d2 <HAL_I2CEx_ConfigAnalogFilter+0x8a>
  }
  else
  {
    return HAL_BUSY;
 80030d0:	2302      	movs	r3, #2
  }
}
 80030d2:	4618      	mov	r0, r3
 80030d4:	370c      	adds	r7, #12
 80030d6:	46bd      	mov	sp, r7
 80030d8:	f85d 7b04 	ldr.w	r7, [sp], #4
 80030dc:	4770      	bx	lr

080030de <HAL_I2CEx_ConfigDigitalFilter>:
  *                the configuration information for the specified I2Cx peripheral.
  * @param  DigitalFilter Coefficient of digital noise filter between Min_Data=0x00 and Max_Data=0x0F.
  * @retval HAL status
  */
HAL_StatusTypeDef HAL_I2CEx_ConfigDigitalFilter(I2C_HandleTypeDef *hi2c, uint32_t DigitalFilter)
{
 80030de:	b480      	push	{r7}
 80030e0:	b085      	sub	sp, #20
 80030e2:	af00      	add	r7, sp, #0
 80030e4:	6078      	str	r0, [r7, #4]
 80030e6:	6039      	str	r1, [r7, #0]

  /* Check the parameters */
  assert_param(IS_I2C_ALL_INSTANCE(hi2c->Instance));
  assert_param(IS_I2C_DIGITAL_FILTER(DigitalFilter));

  if (hi2c->State == HAL_I2C_STATE_READY)
 80030e8:	687b      	ldr	r3, [r7, #4]
 80030ea:	f893 3041 	ldrb.w	r3, [r3, #65]	; 0x41
 80030ee:	b2db      	uxtb	r3, r3
 80030f0:	2b20      	cmp	r3, #32
 80030f2:	d139      	bne.n	8003168 <HAL_I2CEx_ConfigDigitalFilter+0x8a>
  {
    /* Process Locked */
    __HAL_LOCK(hi2c);
 80030f4:	687b      	ldr	r3, [r7, #4]
 80030f6:	f893 3040 	ldrb.w	r3, [r3, #64]	; 0x40
 80030fa:	2b01      	cmp	r3, #1
 80030fc:	d101      	bne.n	8003102 <HAL_I2CEx_ConfigDigitalFilter+0x24>
 80030fe:	2302      	movs	r3, #2
 8003100:	e033      	b.n	800316a <HAL_I2CEx_ConfigDigitalFilter+0x8c>
 8003102:	687b      	ldr	r3, [r7, #4]
 8003104:	2201      	movs	r2, #1
 8003106:	f883 2040 	strb.w	r2, [r3, #64]	; 0x40

    hi2c->State = HAL_I2C_STATE_BUSY;
 800310a:	687b      	ldr	r3, [r7, #4]
 800310c:	2224      	movs	r2, #36	; 0x24
 800310e:	f883 2041 	strb.w	r2, [r3, #65]	; 0x41

    /* Disable the selected I2C peripheral */
    __HAL_I2C_DISABLE(hi2c);
 8003112:	687b      	ldr	r3, [r7, #4]
 8003114:	681b      	ldr	r3, [r3, #0]
 8003116:	681a      	ldr	r2, [r3, #0]
 8003118:	687b      	ldr	r3, [r7, #4]
 800311a:	681b      	ldr	r3, [r3, #0]
 800311c:	f022 0201 	bic.w	r2, r2, #1
 8003120:	601a      	str	r2, [r3, #0]

    /* Get the old register value */
    tmpreg = hi2c->Instance->CR1;
 8003122:	687b      	ldr	r3, [r7, #4]
 8003124:	681b      	ldr	r3, [r3, #0]
 8003126:	681b      	ldr	r3, [r3, #0]
 8003128:	60fb      	str	r3, [r7, #12]

    /* Reset I2Cx DNF bits [11:8] */
    tmpreg &= ~(I2C_CR1_DNF);
 800312a:	68fb      	ldr	r3, [r7, #12]
 800312c:	f423 6370 	bic.w	r3, r3, #3840	; 0xf00
 8003130:	60fb      	str	r3, [r7, #12]

    /* Set I2Cx DNF coefficient */
    tmpreg |= DigitalFilter << 8U;
 8003132:	683b      	ldr	r3, [r7, #0]
 8003134:	021b      	lsls	r3, r3, #8
 8003136:	68fa      	ldr	r2, [r7, #12]
 8003138:	4313      	orrs	r3, r2
 800313a:	60fb      	str	r3, [r7, #12]

    /* Store the new register value */
    hi2c->Instance->CR1 = tmpreg;
 800313c:	687b      	ldr	r3, [r7, #4]
 800313e:	681b      	ldr	r3, [r3, #0]
 8003140:	68fa      	ldr	r2, [r7, #12]
 8003142:	601a      	str	r2, [r3, #0]

    __HAL_I2C_ENABLE(hi2c);
 8003144:	687b      	ldr	r3, [r7, #4]
 8003146:	681b      	ldr	r3, [r3, #0]
 8003148:	681a      	ldr	r2, [r3, #0]
 800314a:	687b      	ldr	r3, [r7, #4]
 800314c:	681b      	ldr	r3, [r3, #0]
 800314e:	f042 0201 	orr.w	r2, r2, #1
 8003152:	601a      	str	r2, [r3, #0]

    hi2c->State = HAL_I2C_STATE_READY;
 8003154:	687b      	ldr	r3, [r7, #4]
 8003156:	2220      	movs	r2, #32
 8003158:	f883 2041 	strb.w	r2, [r3, #65]	; 0x41

    /* Process Unlocked */
    __HAL_UNLOCK(hi2c);
 800315c:	687b      	ldr	r3, [r7, #4]
 800315e:	2200      	movs	r2, #0
 8003160:	f883 2040 	strb.w	r2, [r3, #64]	; 0x40

    return HAL_OK;
 8003164:	2300      	movs	r3, #0
 8003166:	e000      	b.n	800316a <HAL_I2CEx_ConfigDigitalFilter+0x8c>
  }
  else
  {
    return HAL_BUSY;
 8003168:	2302      	movs	r3, #2
  }
}
 800316a:	4618      	mov	r0, r3
 800316c:	3714      	adds	r7, #20
 800316e:	46bd      	mov	sp, r7
 8003170:	f85d 7b04 	ldr.w	r7, [sp], #4
 8003174:	4770      	bx	lr
	...

08003178 <HAL_PWREx_EnableOverDrive>:
  *         During the Over-drive switch activation, no peripheral clocks should be enabled.   
  *         The peripheral clocks must be enabled once the Over-drive mode is activated.   
  * @retval HAL status
  */
HAL_StatusTypeDef HAL_PWREx_EnableOverDrive(void)
{
 8003178:	b580      	push	{r7, lr}
 800317a:	b082      	sub	sp, #8
 800317c:	af00      	add	r7, sp, #0
  uint32_t tickstart = 0;
 800317e:	2300      	movs	r3, #0
 8003180:	607b      	str	r3, [r7, #4]

  __HAL_RCC_PWR_CLK_ENABLE();
 8003182:	4b23      	ldr	r3, [pc, #140]	; (8003210 <HAL_PWREx_EnableOverDrive+0x98>)
 8003184:	6c1b      	ldr	r3, [r3, #64]	; 0x40
 8003186:	4a22      	ldr	r2, [pc, #136]	; (8003210 <HAL_PWREx_EnableOverDrive+0x98>)
 8003188:	f043 5380 	orr.w	r3, r3, #268435456	; 0x10000000
 800318c:	6413      	str	r3, [r2, #64]	; 0x40
 800318e:	4b20      	ldr	r3, [pc, #128]	; (8003210 <HAL_PWREx_EnableOverDrive+0x98>)
 8003190:	6c1b      	ldr	r3, [r3, #64]	; 0x40
 8003192:	f003 5380 	and.w	r3, r3, #268435456	; 0x10000000
 8003196:	603b      	str	r3, [r7, #0]
 8003198:	683b      	ldr	r3, [r7, #0]
  
  /* Enable the Over-drive to extend the clock frequency to 216 MHz */
  __HAL_PWR_OVERDRIVE_ENABLE();
 800319a:	4b1e      	ldr	r3, [pc, #120]	; (8003214 <HAL_PWREx_EnableOverDrive+0x9c>)
 800319c:	681b      	ldr	r3, [r3, #0]
 800319e:	4a1d      	ldr	r2, [pc, #116]	; (8003214 <HAL_PWREx_EnableOverDrive+0x9c>)
 80031a0:	f443 3380 	orr.w	r3, r3, #65536	; 0x10000
 80031a4:	6013      	str	r3, [r2, #0]

  /* Get tick */
  tickstart = HAL_GetTick();
 80031a6:	f7fe ff5f 	bl	8002068 <HAL_GetTick>
 80031aa:	6078      	str	r0, [r7, #4]

  while(!__HAL_PWR_GET_FLAG(PWR_FLAG_ODRDY))
 80031ac:	e009      	b.n	80031c2 <HAL_PWREx_EnableOverDrive+0x4a>
  {
    if((HAL_GetTick() - tickstart ) > PWR_OVERDRIVE_TIMEOUT_VALUE)
 80031ae:	f7fe ff5b 	bl	8002068 <HAL_GetTick>
 80031b2:	4602      	mov	r2, r0
 80031b4:	687b      	ldr	r3, [r7, #4]
 80031b6:	1ad3      	subs	r3, r2, r3
 80031b8:	f5b3 7f7a 	cmp.w	r3, #1000	; 0x3e8
 80031bc:	d901      	bls.n	80031c2 <HAL_PWREx_EnableOverDrive+0x4a>
    {
      return HAL_TIMEOUT;
 80031be:	2303      	movs	r3, #3
 80031c0:	e022      	b.n	8003208 <HAL_PWREx_EnableOverDrive+0x90>
  while(!__HAL_PWR_GET_FLAG(PWR_FLAG_ODRDY))
 80031c2:	4b14      	ldr	r3, [pc, #80]	; (8003214 <HAL_PWREx_EnableOverDrive+0x9c>)
 80031c4:	685b      	ldr	r3, [r3, #4]
 80031c6:	f403 3380 	and.w	r3, r3, #65536	; 0x10000
 80031ca:	f5b3 3f80 	cmp.w	r3, #65536	; 0x10000
 80031ce:	d1ee      	bne.n	80031ae <HAL_PWREx_EnableOverDrive+0x36>
    }
  }
  
  /* Enable the Over-drive switch */
  __HAL_PWR_OVERDRIVESWITCHING_ENABLE();
 80031d0:	4b10      	ldr	r3, [pc, #64]	; (8003214 <HAL_PWREx_EnableOverDrive+0x9c>)
 80031d2:	681b      	ldr	r3, [r3, #0]
 80031d4:	4a0f      	ldr	r2, [pc, #60]	; (8003214 <HAL_PWREx_EnableOverDrive+0x9c>)
 80031d6:	f443 3300 	orr.w	r3, r3, #131072	; 0x20000
 80031da:	6013      	str	r3, [r2, #0]

  /* Get tick */
  tickstart = HAL_GetTick();
 80031dc:	f7fe ff44 	bl	8002068 <HAL_GetTick>
 80031e0:	6078      	str	r0, [r7, #4]

  while(!__HAL_PWR_GET_FLAG(PWR_FLAG_ODSWRDY))
 80031e2:	e009      	b.n	80031f8 <HAL_PWREx_EnableOverDrive+0x80>
  {
    if((HAL_GetTick() - tickstart ) > PWR_OVERDRIVE_TIMEOUT_VALUE)
 80031e4:	f7fe ff40 	bl	8002068 <HAL_GetTick>
 80031e8:	4602      	mov	r2, r0
 80031ea:	687b      	ldr	r3, [r7, #4]
 80031ec:	1ad3      	subs	r3, r2, r3
 80031ee:	f5b3 7f7a 	cmp.w	r3, #1000	; 0x3e8
 80031f2:	d901      	bls.n	80031f8 <HAL_PWREx_EnableOverDrive+0x80>
    {
      return HAL_TIMEOUT;
 80031f4:	2303      	movs	r3, #3
 80031f6:	e007      	b.n	8003208 <HAL_PWREx_EnableOverDrive+0x90>
  while(!__HAL_PWR_GET_FLAG(PWR_FLAG_ODSWRDY))
 80031f8:	4b06      	ldr	r3, [pc, #24]	; (8003214 <HAL_PWREx_EnableOverDrive+0x9c>)
 80031fa:	685b      	ldr	r3, [r3, #4]
 80031fc:	f403 3300 	and.w	r3, r3, #131072	; 0x20000
 8003200:	f5b3 3f00 	cmp.w	r3, #131072	; 0x20000
 8003204:	d1ee      	bne.n	80031e4 <HAL_PWREx_EnableOverDrive+0x6c>
    }
  } 
  return HAL_OK;
 8003206:	2300      	movs	r3, #0
}
 8003208:	4618      	mov	r0, r3
 800320a:	3708      	adds	r7, #8
 800320c:	46bd      	mov	sp, r7
 800320e:	bd80      	pop	{r7, pc}
 8003210:	40023800 	.word	0x40023800
 8003214:	40007000 	.word	0x40007000

08003218 <HAL_RCC_OscConfig>:
  *         supported by this function. User should request a transition to HSE Off
  *         first and then HSE On or HSE Bypass.
  * @retval HAL status
  */
HAL_StatusTypeDef HAL_RCC_OscConfig(RCC_OscInitTypeDef  *RCC_OscInitStruct)
{
 8003218:	b580      	push	{r7, lr}
 800321a:	b086      	sub	sp, #24
 800321c:	af00      	add	r7, sp, #0
 800321e:	6078      	str	r0, [r7, #4]
  uint32_t tickstart;
  uint32_t pll_config;
  FlagStatus pwrclkchanged = RESET;
 8003220:	2300      	movs	r3, #0
 8003222:	75fb      	strb	r3, [r7, #23]

  /* Check Null pointer */
  if (RCC_OscInitStruct == NULL)
 8003224:	687b      	ldr	r3, [r7, #4]
 8003226:	2b00      	cmp	r3, #0
 8003228:	d101      	bne.n	800322e <HAL_RCC_OscConfig+0x16>
  {
    return HAL_ERROR;
 800322a:	2301      	movs	r3, #1
 800322c:	e29b      	b.n	8003766 <HAL_RCC_OscConfig+0x54e>

  /* Check the parameters */
  assert_param(IS_RCC_OSCILLATORTYPE(RCC_OscInitStruct->OscillatorType));

  /*------------------------------- HSE Configuration ------------------------*/
  if (((RCC_OscInitStruct->OscillatorType) & RCC_OSCILLATORTYPE_HSE) == RCC_OSCILLATORTYPE_HSE)
 800322e:	687b      	ldr	r3, [r7, #4]
 8003230:	681b      	ldr	r3, [r3, #0]
 8003232:	f003 0301 	and.w	r3, r3, #1
 8003236:	2b00      	cmp	r3, #0
 8003238:	f000 8087 	beq.w	800334a <HAL_RCC_OscConfig+0x132>
  {
    /* Check the parameters */
    assert_param(IS_RCC_HSE(RCC_OscInitStruct->HSEState));
    /* When the HSE is used as system clock or clock source for PLL, It can not be disabled */
    if ((__HAL_RCC_GET_SYSCLK_SOURCE() == RCC_SYSCLKSOURCE_STATUS_HSE)
 800323c:	4b96      	ldr	r3, [pc, #600]	; (8003498 <HAL_RCC_OscConfig+0x280>)
 800323e:	689b      	ldr	r3, [r3, #8]
 8003240:	f003 030c 	and.w	r3, r3, #12
 8003244:	2b04      	cmp	r3, #4
 8003246:	d00c      	beq.n	8003262 <HAL_RCC_OscConfig+0x4a>
        || ((__HAL_RCC_GET_SYSCLK_SOURCE() == RCC_SYSCLKSOURCE_STATUS_PLLCLK) && ((RCC->PLLCFGR & RCC_PLLCFGR_PLLSRC) == RCC_PLLCFGR_PLLSRC_HSE)))
 8003248:	4b93      	ldr	r3, [pc, #588]	; (8003498 <HAL_RCC_OscConfig+0x280>)
 800324a:	689b      	ldr	r3, [r3, #8]
 800324c:	f003 030c 	and.w	r3, r3, #12
 8003250:	2b08      	cmp	r3, #8
 8003252:	d112      	bne.n	800327a <HAL_RCC_OscConfig+0x62>
 8003254:	4b90      	ldr	r3, [pc, #576]	; (8003498 <HAL_RCC_OscConfig+0x280>)
 8003256:	685b      	ldr	r3, [r3, #4]
 8003258:	f403 0380 	and.w	r3, r3, #4194304	; 0x400000
 800325c:	f5b3 0f80 	cmp.w	r3, #4194304	; 0x400000
 8003260:	d10b      	bne.n	800327a <HAL_RCC_OscConfig+0x62>
    {
      if ((__HAL_RCC_GET_FLAG(RCC_FLAG_HSERDY) != RESET) && (RCC_OscInitStruct->HSEState == RCC_HSE_OFF))
 8003262:	4b8d      	ldr	r3, [pc, #564]	; (8003498 <HAL_RCC_OscConfig+0x280>)
 8003264:	681b      	ldr	r3, [r3, #0]
 8003266:	f403 3300 	and.w	r3, r3, #131072	; 0x20000
 800326a:	2b00      	cmp	r3, #0
 800326c:	d06c      	beq.n	8003348 <HAL_RCC_OscConfig+0x130>
 800326e:	687b      	ldr	r3, [r7, #4]
 8003270:	685b      	ldr	r3, [r3, #4]
 8003272:	2b00      	cmp	r3, #0
 8003274:	d168      	bne.n	8003348 <HAL_RCC_OscConfig+0x130>
      {
        return HAL_ERROR;
 8003276:	2301      	movs	r3, #1
 8003278:	e275      	b.n	8003766 <HAL_RCC_OscConfig+0x54e>
      }
    }
    else
    {
      /* Set the new HSE configuration ---------------------------------------*/
      __HAL_RCC_HSE_CONFIG(RCC_OscInitStruct->HSEState);
 800327a:	687b      	ldr	r3, [r7, #4]
 800327c:	685b      	ldr	r3, [r3, #4]
 800327e:	f5b3 3f80 	cmp.w	r3, #65536	; 0x10000
 8003282:	d106      	bne.n	8003292 <HAL_RCC_OscConfig+0x7a>
 8003284:	4b84      	ldr	r3, [pc, #528]	; (8003498 <HAL_RCC_OscConfig+0x280>)
 8003286:	681b      	ldr	r3, [r3, #0]
 8003288:	4a83      	ldr	r2, [pc, #524]	; (8003498 <HAL_RCC_OscConfig+0x280>)
 800328a:	f443 3380 	orr.w	r3, r3, #65536	; 0x10000
 800328e:	6013      	str	r3, [r2, #0]
 8003290:	e02e      	b.n	80032f0 <HAL_RCC_OscConfig+0xd8>
 8003292:	687b      	ldr	r3, [r7, #4]
 8003294:	685b      	ldr	r3, [r3, #4]
 8003296:	2b00      	cmp	r3, #0
 8003298:	d10c      	bne.n	80032b4 <HAL_RCC_OscConfig+0x9c>
 800329a:	4b7f      	ldr	r3, [pc, #508]	; (8003498 <HAL_RCC_OscConfig+0x280>)
 800329c:	681b      	ldr	r3, [r3, #0]
 800329e:	4a7e      	ldr	r2, [pc, #504]	; (8003498 <HAL_RCC_OscConfig+0x280>)
 80032a0:	f423 3380 	bic.w	r3, r3, #65536	; 0x10000
 80032a4:	6013      	str	r3, [r2, #0]
 80032a6:	4b7c      	ldr	r3, [pc, #496]	; (8003498 <HAL_RCC_OscConfig+0x280>)
 80032a8:	681b      	ldr	r3, [r3, #0]
 80032aa:	4a7b      	ldr	r2, [pc, #492]	; (8003498 <HAL_RCC_OscConfig+0x280>)
 80032ac:	f423 2380 	bic.w	r3, r3, #262144	; 0x40000
 80032b0:	6013      	str	r3, [r2, #0]
 80032b2:	e01d      	b.n	80032f0 <HAL_RCC_OscConfig+0xd8>
 80032b4:	687b      	ldr	r3, [r7, #4]
 80032b6:	685b      	ldr	r3, [r3, #4]
 80032b8:	f5b3 2fa0 	cmp.w	r3, #327680	; 0x50000
 80032bc:	d10c      	bne.n	80032d8 <HAL_RCC_OscConfig+0xc0>
 80032be:	4b76      	ldr	r3, [pc, #472]	; (8003498 <HAL_RCC_OscConfig+0x280>)
 80032c0:	681b      	ldr	r3, [r3, #0]
 80032c2:	4a75      	ldr	r2, [pc, #468]	; (8003498 <HAL_RCC_OscConfig+0x280>)
 80032c4:	f443 2380 	orr.w	r3, r3, #262144	; 0x40000
 80032c8:	6013      	str	r3, [r2, #0]
 80032ca:	4b73      	ldr	r3, [pc, #460]	; (8003498 <HAL_RCC_OscConfig+0x280>)
 80032cc:	681b      	ldr	r3, [r3, #0]
 80032ce:	4a72      	ldr	r2, [pc, #456]	; (8003498 <HAL_RCC_OscConfig+0x280>)
 80032d0:	f443 3380 	orr.w	r3, r3, #65536	; 0x10000
 80032d4:	6013      	str	r3, [r2, #0]
 80032d6:	e00b      	b.n	80032f0 <HAL_RCC_OscConfig+0xd8>
 80032d8:	4b6f      	ldr	r3, [pc, #444]	; (8003498 <HAL_RCC_OscConfig+0x280>)
 80032da:	681b      	ldr	r3, [r3, #0]
 80032dc:	4a6e      	ldr	r2, [pc, #440]	; (8003498 <HAL_RCC_OscConfig+0x280>)
 80032de:	f423 3380 	bic.w	r3, r3, #65536	; 0x10000
 80032e2:	6013      	str	r3, [r2, #0]
 80032e4:	4b6c      	ldr	r3, [pc, #432]	; (8003498 <HAL_RCC_OscConfig+0x280>)
 80032e6:	681b      	ldr	r3, [r3, #0]
 80032e8:	4a6b      	ldr	r2, [pc, #428]	; (8003498 <HAL_RCC_OscConfig+0x280>)
 80032ea:	f423 2380 	bic.w	r3, r3, #262144	; 0x40000
 80032ee:	6013      	str	r3, [r2, #0]

      /* Check the HSE State */
      if (RCC_OscInitStruct->HSEState != RCC_HSE_OFF)
 80032f0:	687b      	ldr	r3, [r7, #4]
 80032f2:	685b      	ldr	r3, [r3, #4]
 80032f4:	2b00      	cmp	r3, #0
 80032f6:	d013      	beq.n	8003320 <HAL_RCC_OscConfig+0x108>
      {
        /* Get Start Tick*/
        tickstart = HAL_GetTick();
 80032f8:	f7fe feb6 	bl	8002068 <HAL_GetTick>
 80032fc:	6138      	str	r0, [r7, #16]

        /* Wait till HSE is ready */
        while (__HAL_RCC_GET_FLAG(RCC_FLAG_HSERDY) == RESET)
 80032fe:	e008      	b.n	8003312 <HAL_RCC_OscConfig+0xfa>
        {
          if ((HAL_GetTick() - tickstart) > HSE_TIMEOUT_VALUE)
 8003300:	f7fe feb2 	bl	8002068 <HAL_GetTick>
 8003304:	4602      	mov	r2, r0
 8003306:	693b      	ldr	r3, [r7, #16]
 8003308:	1ad3      	subs	r3, r2, r3
 800330a:	2b64      	cmp	r3, #100	; 0x64
 800330c:	d901      	bls.n	8003312 <HAL_RCC_OscConfig+0xfa>
          {
            return HAL_TIMEOUT;
 800330e:	2303      	movs	r3, #3
 8003310:	e229      	b.n	8003766 <HAL_RCC_OscConfig+0x54e>
        while (__HAL_RCC_GET_FLAG(RCC_FLAG_HSERDY) == RESET)
 8003312:	4b61      	ldr	r3, [pc, #388]	; (8003498 <HAL_RCC_OscConfig+0x280>)
 8003314:	681b      	ldr	r3, [r3, #0]
 8003316:	f403 3300 	and.w	r3, r3, #131072	; 0x20000
 800331a:	2b00      	cmp	r3, #0
 800331c:	d0f0      	beq.n	8003300 <HAL_RCC_OscConfig+0xe8>
 800331e:	e014      	b.n	800334a <HAL_RCC_OscConfig+0x132>
        }
      }
      else
      {
        /* Get Start Tick*/
        tickstart = HAL_GetTick();
 8003320:	f7fe fea2 	bl	8002068 <HAL_GetTick>
 8003324:	6138      	str	r0, [r7, #16]

        /* Wait till HSE is bypassed or disabled */
        while (__HAL_RCC_GET_FLAG(RCC_FLAG_HSERDY) != RESET)
 8003326:	e008      	b.n	800333a <HAL_RCC_OscConfig+0x122>
        {
          if ((HAL_GetTick() - tickstart) > HSE_TIMEOUT_VALUE)
 8003328:	f7fe fe9e 	bl	8002068 <HAL_GetTick>
 800332c:	4602      	mov	r2, r0
 800332e:	693b      	ldr	r3, [r7, #16]
 8003330:	1ad3      	subs	r3, r2, r3
 8003332:	2b64      	cmp	r3, #100	; 0x64
 8003334:	d901      	bls.n	800333a <HAL_RCC_OscConfig+0x122>
          {
            return HAL_TIMEOUT;
 8003336:	2303      	movs	r3, #3
 8003338:	e215      	b.n	8003766 <HAL_RCC_OscConfig+0x54e>
        while (__HAL_RCC_GET_FLAG(RCC_FLAG_HSERDY) != RESET)
 800333a:	4b57      	ldr	r3, [pc, #348]	; (8003498 <HAL_RCC_OscConfig+0x280>)
 800333c:	681b      	ldr	r3, [r3, #0]
 800333e:	f403 3300 	and.w	r3, r3, #131072	; 0x20000
 8003342:	2b00      	cmp	r3, #0
 8003344:	d1f0      	bne.n	8003328 <HAL_RCC_OscConfig+0x110>
 8003346:	e000      	b.n	800334a <HAL_RCC_OscConfig+0x132>
      if ((__HAL_RCC_GET_FLAG(RCC_FLAG_HSERDY) != RESET) && (RCC_OscInitStruct->HSEState == RCC_HSE_OFF))
 8003348:	bf00      	nop
        }
      }
    }
  }
  /*----------------------------- HSI Configuration --------------------------*/
  if (((RCC_OscInitStruct->OscillatorType) & RCC_OSCILLATORTYPE_HSI) == RCC_OSCILLATORTYPE_HSI)
 800334a:	687b      	ldr	r3, [r7, #4]
 800334c:	681b      	ldr	r3, [r3, #0]
 800334e:	f003 0302 	and.w	r3, r3, #2
 8003352:	2b00      	cmp	r3, #0
 8003354:	d069      	beq.n	800342a <HAL_RCC_OscConfig+0x212>
    /* Check the parameters */
    assert_param(IS_RCC_HSI(RCC_OscInitStruct->HSIState));
    assert_param(IS_RCC_CALIBRATION_VALUE(RCC_OscInitStruct->HSICalibrationValue));

    /* Check if HSI is used as system clock or as PLL source when PLL is selected as system clock */
    if ((__HAL_RCC_GET_SYSCLK_SOURCE() == RCC_SYSCLKSOURCE_STATUS_HSI)
 8003356:	4b50      	ldr	r3, [pc, #320]	; (8003498 <HAL_RCC_OscConfig+0x280>)
 8003358:	689b      	ldr	r3, [r3, #8]
 800335a:	f003 030c 	and.w	r3, r3, #12
 800335e:	2b00      	cmp	r3, #0
 8003360:	d00b      	beq.n	800337a <HAL_RCC_OscConfig+0x162>
        || ((__HAL_RCC_GET_SYSCLK_SOURCE() == RCC_SYSCLKSOURCE_STATUS_PLLCLK) && ((RCC->PLLCFGR & RCC_PLLCFGR_PLLSRC) == RCC_PLLCFGR_PLLSRC_HSI)))
 8003362:	4b4d      	ldr	r3, [pc, #308]	; (8003498 <HAL_RCC_OscConfig+0x280>)
 8003364:	689b      	ldr	r3, [r3, #8]
 8003366:	f003 030c 	and.w	r3, r3, #12
 800336a:	2b08      	cmp	r3, #8
 800336c:	d11c      	bne.n	80033a8 <HAL_RCC_OscConfig+0x190>
 800336e:	4b4a      	ldr	r3, [pc, #296]	; (8003498 <HAL_RCC_OscConfig+0x280>)
 8003370:	685b      	ldr	r3, [r3, #4]
 8003372:	f403 0380 	and.w	r3, r3, #4194304	; 0x400000
 8003376:	2b00      	cmp	r3, #0
 8003378:	d116      	bne.n	80033a8 <HAL_RCC_OscConfig+0x190>
    {
      /* When HSI is used as system clock it will not disabled */
      if ((__HAL_RCC_GET_FLAG(RCC_FLAG_HSIRDY) != RESET) && (RCC_OscInitStruct->HSIState != RCC_HSI_ON))
 800337a:	4b47      	ldr	r3, [pc, #284]	; (8003498 <HAL_RCC_OscConfig+0x280>)
 800337c:	681b      	ldr	r3, [r3, #0]
 800337e:	f003 0302 	and.w	r3, r3, #2
 8003382:	2b00      	cmp	r3, #0
 8003384:	d005      	beq.n	8003392 <HAL_RCC_OscConfig+0x17a>
 8003386:	687b      	ldr	r3, [r7, #4]
 8003388:	68db      	ldr	r3, [r3, #12]
 800338a:	2b01      	cmp	r3, #1
 800338c:	d001      	beq.n	8003392 <HAL_RCC_OscConfig+0x17a>
      {
        return HAL_ERROR;
 800338e:	2301      	movs	r3, #1
 8003390:	e1e9      	b.n	8003766 <HAL_RCC_OscConfig+0x54e>
      }
      /* Otherwise, just the calibration is allowed */
      else
      {
        /* Adjusts the Internal High Speed oscillator (HSI) calibration value.*/
        __HAL_RCC_HSI_CALIBRATIONVALUE_ADJUST(RCC_OscInitStruct->HSICalibrationValue);
 8003392:	4b41      	ldr	r3, [pc, #260]	; (8003498 <HAL_RCC_OscConfig+0x280>)
 8003394:	681b      	ldr	r3, [r3, #0]
 8003396:	f023 02f8 	bic.w	r2, r3, #248	; 0xf8
 800339a:	687b      	ldr	r3, [r7, #4]
 800339c:	691b      	ldr	r3, [r3, #16]
 800339e:	00db      	lsls	r3, r3, #3
 80033a0:	493d      	ldr	r1, [pc, #244]	; (8003498 <HAL_RCC_OscConfig+0x280>)
 80033a2:	4313      	orrs	r3, r2
 80033a4:	600b      	str	r3, [r1, #0]
      if ((__HAL_RCC_GET_FLAG(RCC_FLAG_HSIRDY) != RESET) && (RCC_OscInitStruct->HSIState != RCC_HSI_ON))
 80033a6:	e040      	b.n	800342a <HAL_RCC_OscConfig+0x212>
      }
    }
    else
    {
      /* Check the HSI State */
      if ((RCC_OscInitStruct->HSIState) != RCC_HSI_OFF)
 80033a8:	687b      	ldr	r3, [r7, #4]
 80033aa:	68db      	ldr	r3, [r3, #12]
 80033ac:	2b00      	cmp	r3, #0
 80033ae:	d023      	beq.n	80033f8 <HAL_RCC_OscConfig+0x1e0>
      {
        /* Enable the Internal High Speed oscillator (HSI). */
        __HAL_RCC_HSI_ENABLE();
 80033b0:	4b39      	ldr	r3, [pc, #228]	; (8003498 <HAL_RCC_OscConfig+0x280>)
 80033b2:	681b      	ldr	r3, [r3, #0]
 80033b4:	4a38      	ldr	r2, [pc, #224]	; (8003498 <HAL_RCC_OscConfig+0x280>)
 80033b6:	f043 0301 	orr.w	r3, r3, #1
 80033ba:	6013      	str	r3, [r2, #0]

        /* Get Start Tick*/
        tickstart = HAL_GetTick();
 80033bc:	f7fe fe54 	bl	8002068 <HAL_GetTick>
 80033c0:	6138      	str	r0, [r7, #16]

        /* Wait till HSI is ready */
        while (__HAL_RCC_GET_FLAG(RCC_FLAG_HSIRDY) == RESET)
 80033c2:	e008      	b.n	80033d6 <HAL_RCC_OscConfig+0x1be>
        {
          if ((HAL_GetTick() - tickstart) > HSI_TIMEOUT_VALUE)
 80033c4:	f7fe fe50 	bl	8002068 <HAL_GetTick>
 80033c8:	4602      	mov	r2, r0
 80033ca:	693b      	ldr	r3, [r7, #16]
 80033cc:	1ad3      	subs	r3, r2, r3
 80033ce:	2b02      	cmp	r3, #2
 80033d0:	d901      	bls.n	80033d6 <HAL_RCC_OscConfig+0x1be>
          {
            return HAL_TIMEOUT;
 80033d2:	2303      	movs	r3, #3
 80033d4:	e1c7      	b.n	8003766 <HAL_RCC_OscConfig+0x54e>
        while (__HAL_RCC_GET_FLAG(RCC_FLAG_HSIRDY) == RESET)
 80033d6:	4b30      	ldr	r3, [pc, #192]	; (8003498 <HAL_RCC_OscConfig+0x280>)
 80033d8:	681b      	ldr	r3, [r3, #0]
 80033da:	f003 0302 	and.w	r3, r3, #2
 80033de:	2b00      	cmp	r3, #0
 80033e0:	d0f0      	beq.n	80033c4 <HAL_RCC_OscConfig+0x1ac>
          }
        }

        /* Adjusts the Internal High Speed oscillator (HSI) calibration value.*/
        __HAL_RCC_HSI_CALIBRATIONVALUE_ADJUST(RCC_OscInitStruct->HSICalibrationValue);
 80033e2:	4b2d      	ldr	r3, [pc, #180]	; (8003498 <HAL_RCC_OscConfig+0x280>)
 80033e4:	681b      	ldr	r3, [r3, #0]
 80033e6:	f023 02f8 	bic.w	r2, r3, #248	; 0xf8
 80033ea:	687b      	ldr	r3, [r7, #4]
 80033ec:	691b      	ldr	r3, [r3, #16]
 80033ee:	00db      	lsls	r3, r3, #3
 80033f0:	4929      	ldr	r1, [pc, #164]	; (8003498 <HAL_RCC_OscConfig+0x280>)
 80033f2:	4313      	orrs	r3, r2
 80033f4:	600b      	str	r3, [r1, #0]
 80033f6:	e018      	b.n	800342a <HAL_RCC_OscConfig+0x212>
      }
      else
      {
        /* Disable the Internal High Speed oscillator (HSI). */
        __HAL_RCC_HSI_DISABLE();
 80033f8:	4b27      	ldr	r3, [pc, #156]	; (8003498 <HAL_RCC_OscConfig+0x280>)
 80033fa:	681b      	ldr	r3, [r3, #0]
 80033fc:	4a26      	ldr	r2, [pc, #152]	; (8003498 <HAL_RCC_OscConfig+0x280>)
 80033fe:	f023 0301 	bic.w	r3, r3, #1
 8003402:	6013      	str	r3, [r2, #0]

        /* Get Start Tick*/
        tickstart = HAL_GetTick();
 8003404:	f7fe fe30 	bl	8002068 <HAL_GetTick>
 8003408:	6138      	str	r0, [r7, #16]

        /* Wait till HSI is ready */
        while (__HAL_RCC_GET_FLAG(RCC_FLAG_HSIRDY) != RESET)
 800340a:	e008      	b.n	800341e <HAL_RCC_OscConfig+0x206>
        {
          if ((HAL_GetTick() - tickstart) > HSI_TIMEOUT_VALUE)
 800340c:	f7fe fe2c 	bl	8002068 <HAL_GetTick>
 8003410:	4602      	mov	r2, r0
 8003412:	693b      	ldr	r3, [r7, #16]
 8003414:	1ad3      	subs	r3, r2, r3
 8003416:	2b02      	cmp	r3, #2
 8003418:	d901      	bls.n	800341e <HAL_RCC_OscConfig+0x206>
          {
            return HAL_TIMEOUT;
 800341a:	2303      	movs	r3, #3
 800341c:	e1a3      	b.n	8003766 <HAL_RCC_OscConfig+0x54e>
        while (__HAL_RCC_GET_FLAG(RCC_FLAG_HSIRDY) != RESET)
 800341e:	4b1e      	ldr	r3, [pc, #120]	; (8003498 <HAL_RCC_OscConfig+0x280>)
 8003420:	681b      	ldr	r3, [r3, #0]
 8003422:	f003 0302 	and.w	r3, r3, #2
 8003426:	2b00      	cmp	r3, #0
 8003428:	d1f0      	bne.n	800340c <HAL_RCC_OscConfig+0x1f4>
        }
      }
    }
  }
  /*------------------------------ LSI Configuration -------------------------*/
  if (((RCC_OscInitStruct->OscillatorType) & RCC_OSCILLATORTYPE_LSI) == RCC_OSCILLATORTYPE_LSI)
 800342a:	687b      	ldr	r3, [r7, #4]
 800342c:	681b      	ldr	r3, [r3, #0]
 800342e:	f003 0308 	and.w	r3, r3, #8
 8003432:	2b00      	cmp	r3, #0
 8003434:	d038      	beq.n	80034a8 <HAL_RCC_OscConfig+0x290>
  {
    /* Check the parameters */
    assert_param(IS_RCC_LSI(RCC_OscInitStruct->LSIState));

    /* Check the LSI State */
    if ((RCC_OscInitStruct->LSIState) != RCC_LSI_OFF)
 8003436:	687b      	ldr	r3, [r7, #4]
 8003438:	695b      	ldr	r3, [r3, #20]
 800343a:	2b00      	cmp	r3, #0
 800343c:	d019      	beq.n	8003472 <HAL_RCC_OscConfig+0x25a>
    {
      /* Enable the Internal Low Speed oscillator (LSI). */
      __HAL_RCC_LSI_ENABLE();
 800343e:	4b16      	ldr	r3, [pc, #88]	; (8003498 <HAL_RCC_OscConfig+0x280>)
 8003440:	6f5b      	ldr	r3, [r3, #116]	; 0x74
 8003442:	4a15      	ldr	r2, [pc, #84]	; (8003498 <HAL_RCC_OscConfig+0x280>)
 8003444:	f043 0301 	orr.w	r3, r3, #1
 8003448:	6753      	str	r3, [r2, #116]	; 0x74

      /* Get Start Tick*/
      tickstart = HAL_GetTick();
 800344a:	f7fe fe0d 	bl	8002068 <HAL_GetTick>
 800344e:	6138      	str	r0, [r7, #16]

      /* Wait till LSI is ready */
      while (__HAL_RCC_GET_FLAG(RCC_FLAG_LSIRDY) == RESET)
 8003450:	e008      	b.n	8003464 <HAL_RCC_OscConfig+0x24c>
      {
        if ((HAL_GetTick() - tickstart) > LSI_TIMEOUT_VALUE)
 8003452:	f7fe fe09 	bl	8002068 <HAL_GetTick>
 8003456:	4602      	mov	r2, r0
 8003458:	693b      	ldr	r3, [r7, #16]
 800345a:	1ad3      	subs	r3, r2, r3
 800345c:	2b02      	cmp	r3, #2
 800345e:	d901      	bls.n	8003464 <HAL_RCC_OscConfig+0x24c>
        {
          return HAL_TIMEOUT;
 8003460:	2303      	movs	r3, #3
 8003462:	e180      	b.n	8003766 <HAL_RCC_OscConfig+0x54e>
      while (__HAL_RCC_GET_FLAG(RCC_FLAG_LSIRDY) == RESET)
 8003464:	4b0c      	ldr	r3, [pc, #48]	; (8003498 <HAL_RCC_OscConfig+0x280>)
 8003466:	6f5b      	ldr	r3, [r3, #116]	; 0x74
 8003468:	f003 0302 	and.w	r3, r3, #2
 800346c:	2b00      	cmp	r3, #0
 800346e:	d0f0      	beq.n	8003452 <HAL_RCC_OscConfig+0x23a>
 8003470:	e01a      	b.n	80034a8 <HAL_RCC_OscConfig+0x290>
      }
    }
    else
    {
      /* Disable the Internal Low Speed oscillator (LSI). */
      __HAL_RCC_LSI_DISABLE();
 8003472:	4b09      	ldr	r3, [pc, #36]	; (8003498 <HAL_RCC_OscConfig+0x280>)
 8003474:	6f5b      	ldr	r3, [r3, #116]	; 0x74
 8003476:	4a08      	ldr	r2, [pc, #32]	; (8003498 <HAL_RCC_OscConfig+0x280>)
 8003478:	f023 0301 	bic.w	r3, r3, #1
 800347c:	6753      	str	r3, [r2, #116]	; 0x74

      /* Get Start Tick*/
      tickstart = HAL_GetTick();
 800347e:	f7fe fdf3 	bl	8002068 <HAL_GetTick>
 8003482:	6138      	str	r0, [r7, #16]

      /* Wait till LSI is ready */
      while (__HAL_RCC_GET_FLAG(RCC_FLAG_LSIRDY) != RESET)
 8003484:	e00a      	b.n	800349c <HAL_RCC_OscConfig+0x284>
      {
        if ((HAL_GetTick() - tickstart) > LSI_TIMEOUT_VALUE)
 8003486:	f7fe fdef 	bl	8002068 <HAL_GetTick>
 800348a:	4602      	mov	r2, r0
 800348c:	693b      	ldr	r3, [r7, #16]
 800348e:	1ad3      	subs	r3, r2, r3
 8003490:	2b02      	cmp	r3, #2
 8003492:	d903      	bls.n	800349c <HAL_RCC_OscConfig+0x284>
        {
          return HAL_TIMEOUT;
 8003494:	2303      	movs	r3, #3
 8003496:	e166      	b.n	8003766 <HAL_RCC_OscConfig+0x54e>
 8003498:	40023800 	.word	0x40023800
      while (__HAL_RCC_GET_FLAG(RCC_FLAG_LSIRDY) != RESET)
 800349c:	4b92      	ldr	r3, [pc, #584]	; (80036e8 <HAL_RCC_OscConfig+0x4d0>)
 800349e:	6f5b      	ldr	r3, [r3, #116]	; 0x74
 80034a0:	f003 0302 	and.w	r3, r3, #2
 80034a4:	2b00      	cmp	r3, #0
 80034a6:	d1ee      	bne.n	8003486 <HAL_RCC_OscConfig+0x26e>
        }
      }
    }
  }
  /*------------------------------ LSE Configuration -------------------------*/
  if (((RCC_OscInitStruct->OscillatorType) & RCC_OSCILLATORTYPE_LSE) == RCC_OSCILLATORTYPE_LSE)
 80034a8:	687b      	ldr	r3, [r7, #4]
 80034aa:	681b      	ldr	r3, [r3, #0]
 80034ac:	f003 0304 	and.w	r3, r3, #4
 80034b0:	2b00      	cmp	r3, #0
 80034b2:	f000 80a4 	beq.w	80035fe <HAL_RCC_OscConfig+0x3e6>
    /* Check the parameters */
    assert_param(IS_RCC_LSE(RCC_OscInitStruct->LSEState));

    /* Update LSE configuration in Backup Domain control register    */
    /* Requires to enable write access to Backup Domain of necessary */
    if (__HAL_RCC_PWR_IS_CLK_DISABLED())
 80034b6:	4b8c      	ldr	r3, [pc, #560]	; (80036e8 <HAL_RCC_OscConfig+0x4d0>)
 80034b8:	6c1b      	ldr	r3, [r3, #64]	; 0x40
 80034ba:	f003 5380 	and.w	r3, r3, #268435456	; 0x10000000
 80034be:	2b00      	cmp	r3, #0
 80034c0:	d10d      	bne.n	80034de <HAL_RCC_OscConfig+0x2c6>
    {
      /* Enable Power Clock*/
      __HAL_RCC_PWR_CLK_ENABLE();
 80034c2:	4b89      	ldr	r3, [pc, #548]	; (80036e8 <HAL_RCC_OscConfig+0x4d0>)
 80034c4:	6c1b      	ldr	r3, [r3, #64]	; 0x40
 80034c6:	4a88      	ldr	r2, [pc, #544]	; (80036e8 <HAL_RCC_OscConfig+0x4d0>)
 80034c8:	f043 5380 	orr.w	r3, r3, #268435456	; 0x10000000
 80034cc:	6413      	str	r3, [r2, #64]	; 0x40
 80034ce:	4b86      	ldr	r3, [pc, #536]	; (80036e8 <HAL_RCC_OscConfig+0x4d0>)
 80034d0:	6c1b      	ldr	r3, [r3, #64]	; 0x40
 80034d2:	f003 5380 	and.w	r3, r3, #268435456	; 0x10000000
 80034d6:	60bb      	str	r3, [r7, #8]
 80034d8:	68bb      	ldr	r3, [r7, #8]
      pwrclkchanged = SET;
 80034da:	2301      	movs	r3, #1
 80034dc:	75fb      	strb	r3, [r7, #23]
    }

    if (HAL_IS_BIT_CLR(PWR->CR1, PWR_CR1_DBP))
 80034de:	4b83      	ldr	r3, [pc, #524]	; (80036ec <HAL_RCC_OscConfig+0x4d4>)
 80034e0:	681b      	ldr	r3, [r3, #0]
 80034e2:	f403 7380 	and.w	r3, r3, #256	; 0x100
 80034e6:	2b00      	cmp	r3, #0
 80034e8:	d118      	bne.n	800351c <HAL_RCC_OscConfig+0x304>
    {
      /* Enable write access to Backup domain */
      PWR->CR1 |= PWR_CR1_DBP;
 80034ea:	4b80      	ldr	r3, [pc, #512]	; (80036ec <HAL_RCC_OscConfig+0x4d4>)
 80034ec:	681b      	ldr	r3, [r3, #0]
 80034ee:	4a7f      	ldr	r2, [pc, #508]	; (80036ec <HAL_RCC_OscConfig+0x4d4>)
 80034f0:	f443 7380 	orr.w	r3, r3, #256	; 0x100
 80034f4:	6013      	str	r3, [r2, #0]

      /* Wait for Backup domain Write protection disable */
      tickstart = HAL_GetTick();
 80034f6:	f7fe fdb7 	bl	8002068 <HAL_GetTick>
 80034fa:	6138      	str	r0, [r7, #16]

      while (HAL_IS_BIT_CLR(PWR->CR1, PWR_CR1_DBP))
 80034fc:	e008      	b.n	8003510 <HAL_RCC_OscConfig+0x2f8>
      {
        if ((HAL_GetTick() - tickstart) > RCC_DBP_TIMEOUT_VALUE)
 80034fe:	f7fe fdb3 	bl	8002068 <HAL_GetTick>
 8003502:	4602      	mov	r2, r0
 8003504:	693b      	ldr	r3, [r7, #16]
 8003506:	1ad3      	subs	r3, r2, r3
 8003508:	2b64      	cmp	r3, #100	; 0x64
 800350a:	d901      	bls.n	8003510 <HAL_RCC_OscConfig+0x2f8>
        {
          return HAL_TIMEOUT;
 800350c:	2303      	movs	r3, #3
 800350e:	e12a      	b.n	8003766 <HAL_RCC_OscConfig+0x54e>
      while (HAL_IS_BIT_CLR(PWR->CR1, PWR_CR1_DBP))
 8003510:	4b76      	ldr	r3, [pc, #472]	; (80036ec <HAL_RCC_OscConfig+0x4d4>)
 8003512:	681b      	ldr	r3, [r3, #0]
 8003514:	f403 7380 	and.w	r3, r3, #256	; 0x100
 8003518:	2b00      	cmp	r3, #0
 800351a:	d0f0      	beq.n	80034fe <HAL_RCC_OscConfig+0x2e6>
        }
      }
    }

    /* Set the new LSE configuration -----------------------------------------*/
    __HAL_RCC_LSE_CONFIG(RCC_OscInitStruct->LSEState);
 800351c:	687b      	ldr	r3, [r7, #4]
 800351e:	689b      	ldr	r3, [r3, #8]
 8003520:	2b01      	cmp	r3, #1
 8003522:	d106      	bne.n	8003532 <HAL_RCC_OscConfig+0x31a>
 8003524:	4b70      	ldr	r3, [pc, #448]	; (80036e8 <HAL_RCC_OscConfig+0x4d0>)
 8003526:	6f1b      	ldr	r3, [r3, #112]	; 0x70
 8003528:	4a6f      	ldr	r2, [pc, #444]	; (80036e8 <HAL_RCC_OscConfig+0x4d0>)
 800352a:	f043 0301 	orr.w	r3, r3, #1
 800352e:	6713      	str	r3, [r2, #112]	; 0x70
 8003530:	e02d      	b.n	800358e <HAL_RCC_OscConfig+0x376>
 8003532:	687b      	ldr	r3, [r7, #4]
 8003534:	689b      	ldr	r3, [r3, #8]
 8003536:	2b00      	cmp	r3, #0
 8003538:	d10c      	bne.n	8003554 <HAL_RCC_OscConfig+0x33c>
 800353a:	4b6b      	ldr	r3, [pc, #428]	; (80036e8 <HAL_RCC_OscConfig+0x4d0>)
 800353c:	6f1b      	ldr	r3, [r3, #112]	; 0x70
 800353e:	4a6a      	ldr	r2, [pc, #424]	; (80036e8 <HAL_RCC_OscConfig+0x4d0>)
 8003540:	f023 0301 	bic.w	r3, r3, #1
 8003544:	6713      	str	r3, [r2, #112]	; 0x70
 8003546:	4b68      	ldr	r3, [pc, #416]	; (80036e8 <HAL_RCC_OscConfig+0x4d0>)
 8003548:	6f1b      	ldr	r3, [r3, #112]	; 0x70
 800354a:	4a67      	ldr	r2, [pc, #412]	; (80036e8 <HAL_RCC_OscConfig+0x4d0>)
 800354c:	f023 0304 	bic.w	r3, r3, #4
 8003550:	6713      	str	r3, [r2, #112]	; 0x70
 8003552:	e01c      	b.n	800358e <HAL_RCC_OscConfig+0x376>
 8003554:	687b      	ldr	r3, [r7, #4]
 8003556:	689b      	ldr	r3, [r3, #8]
 8003558:	2b05      	cmp	r3, #5
 800355a:	d10c      	bne.n	8003576 <HAL_RCC_OscConfig+0x35e>
 800355c:	4b62      	ldr	r3, [pc, #392]	; (80036e8 <HAL_RCC_OscConfig+0x4d0>)
 800355e:	6f1b      	ldr	r3, [r3, #112]	; 0x70
 8003560:	4a61      	ldr	r2, [pc, #388]	; (80036e8 <HAL_RCC_OscConfig+0x4d0>)
 8003562:	f043 0304 	orr.w	r3, r3, #4
 8003566:	6713      	str	r3, [r2, #112]	; 0x70
 8003568:	4b5f      	ldr	r3, [pc, #380]	; (80036e8 <HAL_RCC_OscConfig+0x4d0>)
 800356a:	6f1b      	ldr	r3, [r3, #112]	; 0x70
 800356c:	4a5e      	ldr	r2, [pc, #376]	; (80036e8 <HAL_RCC_OscConfig+0x4d0>)
 800356e:	f043 0301 	orr.w	r3, r3, #1
 8003572:	6713      	str	r3, [r2, #112]	; 0x70
 8003574:	e00b      	b.n	800358e <HAL_RCC_OscConfig+0x376>
 8003576:	4b5c      	ldr	r3, [pc, #368]	; (80036e8 <HAL_RCC_OscConfig+0x4d0>)
 8003578:	6f1b      	ldr	r3, [r3, #112]	; 0x70
 800357a:	4a5b      	ldr	r2, [pc, #364]	; (80036e8 <HAL_RCC_OscConfig+0x4d0>)
 800357c:	f023 0301 	bic.w	r3, r3, #1
 8003580:	6713      	str	r3, [r2, #112]	; 0x70
 8003582:	4b59      	ldr	r3, [pc, #356]	; (80036e8 <HAL_RCC_OscConfig+0x4d0>)
 8003584:	6f1b      	ldr	r3, [r3, #112]	; 0x70
 8003586:	4a58      	ldr	r2, [pc, #352]	; (80036e8 <HAL_RCC_OscConfig+0x4d0>)
 8003588:	f023 0304 	bic.w	r3, r3, #4
 800358c:	6713      	str	r3, [r2, #112]	; 0x70
    /* Check the LSE State */
    if ((RCC_OscInitStruct->LSEState) != RCC_LSE_OFF)
 800358e:	687b      	ldr	r3, [r7, #4]
 8003590:	689b      	ldr	r3, [r3, #8]
 8003592:	2b00      	cmp	r3, #0
 8003594:	d015      	beq.n	80035c2 <HAL_RCC_OscConfig+0x3aa>
    {
      /* Get Start Tick*/
      tickstart = HAL_GetTick();
 8003596:	f7fe fd67 	bl	8002068 <HAL_GetTick>
 800359a:	6138      	str	r0, [r7, #16]

      /* Wait till LSE is ready */
      while (__HAL_RCC_GET_FLAG(RCC_FLAG_LSERDY) == RESET)
 800359c:	e00a      	b.n	80035b4 <HAL_RCC_OscConfig+0x39c>
      {
        if ((HAL_GetTick() - tickstart) > RCC_LSE_TIMEOUT_VALUE)
 800359e:	f7fe fd63 	bl	8002068 <HAL_GetTick>
 80035a2:	4602      	mov	r2, r0
 80035a4:	693b      	ldr	r3, [r7, #16]
 80035a6:	1ad3      	subs	r3, r2, r3
 80035a8:	f241 3288 	movw	r2, #5000	; 0x1388
 80035ac:	4293      	cmp	r3, r2
 80035ae:	d901      	bls.n	80035b4 <HAL_RCC_OscConfig+0x39c>
        {
          return HAL_TIMEOUT;
 80035b0:	2303      	movs	r3, #3
 80035b2:	e0d8      	b.n	8003766 <HAL_RCC_OscConfig+0x54e>
      while (__HAL_RCC_GET_FLAG(RCC_FLAG_LSERDY) == RESET)
 80035b4:	4b4c      	ldr	r3, [pc, #304]	; (80036e8 <HAL_RCC_OscConfig+0x4d0>)
 80035b6:	6f1b      	ldr	r3, [r3, #112]	; 0x70
 80035b8:	f003 0302 	and.w	r3, r3, #2
 80035bc:	2b00      	cmp	r3, #0
 80035be:	d0ee      	beq.n	800359e <HAL_RCC_OscConfig+0x386>
 80035c0:	e014      	b.n	80035ec <HAL_RCC_OscConfig+0x3d4>
      }
    }
    else
    {
      /* Get Start Tick*/
      tickstart = HAL_GetTick();
 80035c2:	f7fe fd51 	bl	8002068 <HAL_GetTick>
 80035c6:	6138      	str	r0, [r7, #16]

      /* Wait till LSE is ready */
      while (__HAL_RCC_GET_FLAG(RCC_FLAG_LSERDY) != RESET)
 80035c8:	e00a      	b.n	80035e0 <HAL_RCC_OscConfig+0x3c8>
      {
        if ((HAL_GetTick() - tickstart) > RCC_LSE_TIMEOUT_VALUE)
 80035ca:	f7fe fd4d 	bl	8002068 <HAL_GetTick>
 80035ce:	4602      	mov	r2, r0
 80035d0:	693b      	ldr	r3, [r7, #16]
 80035d2:	1ad3      	subs	r3, r2, r3
 80035d4:	f241 3288 	movw	r2, #5000	; 0x1388
 80035d8:	4293      	cmp	r3, r2
 80035da:	d901      	bls.n	80035e0 <HAL_RCC_OscConfig+0x3c8>
        {
          return HAL_TIMEOUT;
 80035dc:	2303      	movs	r3, #3
 80035de:	e0c2      	b.n	8003766 <HAL_RCC_OscConfig+0x54e>
      while (__HAL_RCC_GET_FLAG(RCC_FLAG_LSERDY) != RESET)
 80035e0:	4b41      	ldr	r3, [pc, #260]	; (80036e8 <HAL_RCC_OscConfig+0x4d0>)
 80035e2:	6f1b      	ldr	r3, [r3, #112]	; 0x70
 80035e4:	f003 0302 	and.w	r3, r3, #2
 80035e8:	2b00      	cmp	r3, #0
 80035ea:	d1ee      	bne.n	80035ca <HAL_RCC_OscConfig+0x3b2>
        }
      }
    }

    /* Restore clock configuration if changed */
    if (pwrclkchanged == SET)
 80035ec:	7dfb      	ldrb	r3, [r7, #23]
 80035ee:	2b01      	cmp	r3, #1
 80035f0:	d105      	bne.n	80035fe <HAL_RCC_OscConfig+0x3e6>
    {
      __HAL_RCC_PWR_CLK_DISABLE();
 80035f2:	4b3d      	ldr	r3, [pc, #244]	; (80036e8 <HAL_RCC_OscConfig+0x4d0>)
 80035f4:	6c1b      	ldr	r3, [r3, #64]	; 0x40
 80035f6:	4a3c      	ldr	r2, [pc, #240]	; (80036e8 <HAL_RCC_OscConfig+0x4d0>)
 80035f8:	f023 5380 	bic.w	r3, r3, #268435456	; 0x10000000
 80035fc:	6413      	str	r3, [r2, #64]	; 0x40
    }
  }
  /*-------------------------------- PLL Configuration -----------------------*/
  /* Check the parameters */
  assert_param(IS_RCC_PLL(RCC_OscInitStruct->PLL.PLLState));
  if ((RCC_OscInitStruct->PLL.PLLState) != RCC_PLL_NONE)
 80035fe:	687b      	ldr	r3, [r7, #4]
 8003600:	699b      	ldr	r3, [r3, #24]
 8003602:	2b00      	cmp	r3, #0
 8003604:	f000 80ae 	beq.w	8003764 <HAL_RCC_OscConfig+0x54c>
  {
    /* Check if the PLL is used as system clock or not */
    if (__HAL_RCC_GET_SYSCLK_SOURCE() != RCC_SYSCLKSOURCE_STATUS_PLLCLK)
 8003608:	4b37      	ldr	r3, [pc, #220]	; (80036e8 <HAL_RCC_OscConfig+0x4d0>)
 800360a:	689b      	ldr	r3, [r3, #8]
 800360c:	f003 030c 	and.w	r3, r3, #12
 8003610:	2b08      	cmp	r3, #8
 8003612:	d06d      	beq.n	80036f0 <HAL_RCC_OscConfig+0x4d8>
    {
      if ((RCC_OscInitStruct->PLL.PLLState) == RCC_PLL_ON)
 8003614:	687b      	ldr	r3, [r7, #4]
 8003616:	699b      	ldr	r3, [r3, #24]
 8003618:	2b02      	cmp	r3, #2
 800361a:	d14b      	bne.n	80036b4 <HAL_RCC_OscConfig+0x49c>
#if defined (RCC_PLLCFGR_PLLR)
        assert_param(IS_RCC_PLLR_VALUE(RCC_OscInitStruct->PLL.PLLR));
#endif

        /* Disable the main PLL. */
        __HAL_RCC_PLL_DISABLE();
 800361c:	4b32      	ldr	r3, [pc, #200]	; (80036e8 <HAL_RCC_OscConfig+0x4d0>)
 800361e:	681b      	ldr	r3, [r3, #0]
 8003620:	4a31      	ldr	r2, [pc, #196]	; (80036e8 <HAL_RCC_OscConfig+0x4d0>)
 8003622:	f023 7380 	bic.w	r3, r3, #16777216	; 0x1000000
 8003626:	6013      	str	r3, [r2, #0]

        /* Get Start Tick*/
        tickstart = HAL_GetTick();
 8003628:	f7fe fd1e 	bl	8002068 <HAL_GetTick>
 800362c:	6138      	str	r0, [r7, #16]

        /* Wait till PLL is ready */
        while (__HAL_RCC_GET_FLAG(RCC_FLAG_PLLRDY) != RESET)
 800362e:	e008      	b.n	8003642 <HAL_RCC_OscConfig+0x42a>
        {
          if ((HAL_GetTick() - tickstart) > PLL_TIMEOUT_VALUE)
 8003630:	f7fe fd1a 	bl	8002068 <HAL_GetTick>
 8003634:	4602      	mov	r2, r0
 8003636:	693b      	ldr	r3, [r7, #16]
 8003638:	1ad3      	subs	r3, r2, r3
 800363a:	2b02      	cmp	r3, #2
 800363c:	d901      	bls.n	8003642 <HAL_RCC_OscConfig+0x42a>
          {
            return HAL_TIMEOUT;
 800363e:	2303      	movs	r3, #3
 8003640:	e091      	b.n	8003766 <HAL_RCC_OscConfig+0x54e>
        while (__HAL_RCC_GET_FLAG(RCC_FLAG_PLLRDY) != RESET)
 8003642:	4b29      	ldr	r3, [pc, #164]	; (80036e8 <HAL_RCC_OscConfig+0x4d0>)
 8003644:	681b      	ldr	r3, [r3, #0]
 8003646:	f003 7300 	and.w	r3, r3, #33554432	; 0x2000000
 800364a:	2b00      	cmp	r3, #0
 800364c:	d1f0      	bne.n	8003630 <HAL_RCC_OscConfig+0x418>
          }
        }

        /* Configure the main PLL clock source, multiplication and division factors. */
#if defined (RCC_PLLCFGR_PLLR)
        __HAL_RCC_PLL_CONFIG(RCC_OscInitStruct->PLL.PLLSource,
 800364e:	687b      	ldr	r3, [r7, #4]
 8003650:	69da      	ldr	r2, [r3, #28]
 8003652:	687b      	ldr	r3, [r7, #4]
 8003654:	6a1b      	ldr	r3, [r3, #32]
 8003656:	431a      	orrs	r2, r3
 8003658:	687b      	ldr	r3, [r7, #4]
 800365a:	6a5b      	ldr	r3, [r3, #36]	; 0x24
 800365c:	019b      	lsls	r3, r3, #6
 800365e:	431a      	orrs	r2, r3
 8003660:	687b      	ldr	r3, [r7, #4]
 8003662:	6a9b      	ldr	r3, [r3, #40]	; 0x28
 8003664:	085b      	lsrs	r3, r3, #1
 8003666:	3b01      	subs	r3, #1
 8003668:	041b      	lsls	r3, r3, #16
 800366a:	431a      	orrs	r2, r3
 800366c:	687b      	ldr	r3, [r7, #4]
 800366e:	6adb      	ldr	r3, [r3, #44]	; 0x2c
 8003670:	061b      	lsls	r3, r3, #24
 8003672:	431a      	orrs	r2, r3
 8003674:	687b      	ldr	r3, [r7, #4]
 8003676:	6b1b      	ldr	r3, [r3, #48]	; 0x30
 8003678:	071b      	lsls	r3, r3, #28
 800367a:	491b      	ldr	r1, [pc, #108]	; (80036e8 <HAL_RCC_OscConfig+0x4d0>)
 800367c:	4313      	orrs	r3, r2
 800367e:	604b      	str	r3, [r1, #4]
                             RCC_OscInitStruct->PLL.PLLP,
                             RCC_OscInitStruct->PLL.PLLQ);
#endif

        /* Enable the main PLL. */
        __HAL_RCC_PLL_ENABLE();
 8003680:	4b19      	ldr	r3, [pc, #100]	; (80036e8 <HAL_RCC_OscConfig+0x4d0>)
 8003682:	681b      	ldr	r3, [r3, #0]
 8003684:	4a18      	ldr	r2, [pc, #96]	; (80036e8 <HAL_RCC_OscConfig+0x4d0>)
 8003686:	f043 7380 	orr.w	r3, r3, #16777216	; 0x1000000
 800368a:	6013      	str	r3, [r2, #0]

        /* Get Start Tick*/
        tickstart = HAL_GetTick();
 800368c:	f7fe fcec 	bl	8002068 <HAL_GetTick>
 8003690:	6138      	str	r0, [r7, #16]

        /* Wait till PLL is ready */
        while (__HAL_RCC_GET_FLAG(RCC_FLAG_PLLRDY) == RESET)
 8003692:	e008      	b.n	80036a6 <HAL_RCC_OscConfig+0x48e>
        {
          if ((HAL_GetTick() - tickstart) > PLL_TIMEOUT_VALUE)
 8003694:	f7fe fce8 	bl	8002068 <HAL_GetTick>
 8003698:	4602      	mov	r2, r0
 800369a:	693b      	ldr	r3, [r7, #16]
 800369c:	1ad3      	subs	r3, r2, r3
 800369e:	2b02      	cmp	r3, #2
 80036a0:	d901      	bls.n	80036a6 <HAL_RCC_OscConfig+0x48e>
          {
            return HAL_TIMEOUT;
 80036a2:	2303      	movs	r3, #3
 80036a4:	e05f      	b.n	8003766 <HAL_RCC_OscConfig+0x54e>
        while (__HAL_RCC_GET_FLAG(RCC_FLAG_PLLRDY) == RESET)
 80036a6:	4b10      	ldr	r3, [pc, #64]	; (80036e8 <HAL_RCC_OscConfig+0x4d0>)
 80036a8:	681b      	ldr	r3, [r3, #0]
 80036aa:	f003 7300 	and.w	r3, r3, #33554432	; 0x2000000
 80036ae:	2b00      	cmp	r3, #0
 80036b0:	d0f0      	beq.n	8003694 <HAL_RCC_OscConfig+0x47c>
 80036b2:	e057      	b.n	8003764 <HAL_RCC_OscConfig+0x54c>
        }
      }
      else
      {
        /* Disable the main PLL. */
        __HAL_RCC_PLL_DISABLE();
 80036b4:	4b0c      	ldr	r3, [pc, #48]	; (80036e8 <HAL_RCC_OscConfig+0x4d0>)
 80036b6:	681b      	ldr	r3, [r3, #0]
 80036b8:	4a0b      	ldr	r2, [pc, #44]	; (80036e8 <HAL_RCC_OscConfig+0x4d0>)
 80036ba:	f023 7380 	bic.w	r3, r3, #16777216	; 0x1000000
 80036be:	6013      	str	r3, [r2, #0]

        /* Get Start Tick*/
        tickstart = HAL_GetTick();
 80036c0:	f7fe fcd2 	bl	8002068 <HAL_GetTick>
 80036c4:	6138      	str	r0, [r7, #16]

        /* Wait till PLL is ready */
        while (__HAL_RCC_GET_FLAG(RCC_FLAG_PLLRDY) != RESET)
 80036c6:	e008      	b.n	80036da <HAL_RCC_OscConfig+0x4c2>
        {
          if ((HAL_GetTick() - tickstart) > PLL_TIMEOUT_VALUE)
 80036c8:	f7fe fcce 	bl	8002068 <HAL_GetTick>
 80036cc:	4602      	mov	r2, r0
 80036ce:	693b      	ldr	r3, [r7, #16]
 80036d0:	1ad3      	subs	r3, r2, r3
 80036d2:	2b02      	cmp	r3, #2
 80036d4:	d901      	bls.n	80036da <HAL_RCC_OscConfig+0x4c2>
          {
            return HAL_TIMEOUT;
 80036d6:	2303      	movs	r3, #3
 80036d8:	e045      	b.n	8003766 <HAL_RCC_OscConfig+0x54e>
        while (__HAL_RCC_GET_FLAG(RCC_FLAG_PLLRDY) != RESET)
 80036da:	4b03      	ldr	r3, [pc, #12]	; (80036e8 <HAL_RCC_OscConfig+0x4d0>)
 80036dc:	681b      	ldr	r3, [r3, #0]
 80036de:	f003 7300 	and.w	r3, r3, #33554432	; 0x2000000
 80036e2:	2b00      	cmp	r3, #0
 80036e4:	d1f0      	bne.n	80036c8 <HAL_RCC_OscConfig+0x4b0>
 80036e6:	e03d      	b.n	8003764 <HAL_RCC_OscConfig+0x54c>
 80036e8:	40023800 	.word	0x40023800
 80036ec:	40007000 	.word	0x40007000
      }
    }
    else
    {
      /* Do not return HAL_ERROR if request repeats the current configuration */
      pll_config = RCC->PLLCFGR;
 80036f0:	4b1f      	ldr	r3, [pc, #124]	; (8003770 <HAL_RCC_OscConfig+0x558>)
 80036f2:	685b      	ldr	r3, [r3, #4]
 80036f4:	60fb      	str	r3, [r7, #12]
#if defined (RCC_PLLCFGR_PLLR)
      if (((RCC_OscInitStruct->PLL.PLLState) == RCC_PLL_OFF) ||
 80036f6:	687b      	ldr	r3, [r7, #4]
 80036f8:	699b      	ldr	r3, [r3, #24]
 80036fa:	2b01      	cmp	r3, #1
 80036fc:	d030      	beq.n	8003760 <HAL_RCC_OscConfig+0x548>
          (READ_BIT(pll_config, RCC_PLLCFGR_PLLSRC) != RCC_OscInitStruct->PLL.PLLSource) ||
 80036fe:	68fb      	ldr	r3, [r7, #12]
 8003700:	f403 0280 	and.w	r2, r3, #4194304	; 0x400000
 8003704:	687b      	ldr	r3, [r7, #4]
 8003706:	69db      	ldr	r3, [r3, #28]
      if (((RCC_OscInitStruct->PLL.PLLState) == RCC_PLL_OFF) ||
 8003708:	429a      	cmp	r2, r3
 800370a:	d129      	bne.n	8003760 <HAL_RCC_OscConfig+0x548>
          (READ_BIT(pll_config, RCC_PLLCFGR_PLLM) != RCC_OscInitStruct->PLL.PLLM) ||
 800370c:	68fb      	ldr	r3, [r7, #12]
 800370e:	f003 023f 	and.w	r2, r3, #63	; 0x3f
 8003712:	687b      	ldr	r3, [r7, #4]
 8003714:	6a1b      	ldr	r3, [r3, #32]
          (READ_BIT(pll_config, RCC_PLLCFGR_PLLSRC) != RCC_OscInitStruct->PLL.PLLSource) ||
 8003716:	429a      	cmp	r2, r3
 8003718:	d122      	bne.n	8003760 <HAL_RCC_OscConfig+0x548>
          (READ_BIT(pll_config, RCC_PLLCFGR_PLLN) != (RCC_OscInitStruct->PLL.PLLN << RCC_PLLCFGR_PLLN_Pos)) ||
 800371a:	68fa      	ldr	r2, [r7, #12]
 800371c:	f647 73c0 	movw	r3, #32704	; 0x7fc0
 8003720:	4013      	ands	r3, r2
 8003722:	687a      	ldr	r2, [r7, #4]
 8003724:	6a52      	ldr	r2, [r2, #36]	; 0x24
 8003726:	0192      	lsls	r2, r2, #6
          (READ_BIT(pll_config, RCC_PLLCFGR_PLLM) != RCC_OscInitStruct->PLL.PLLM) ||
 8003728:	4293      	cmp	r3, r2
 800372a:	d119      	bne.n	8003760 <HAL_RCC_OscConfig+0x548>
          (READ_BIT(pll_config, RCC_PLLCFGR_PLLP) != ((((RCC_OscInitStruct->PLL.PLLP) >> 1U) - 1U) << RCC_PLLCFGR_PLLP_Pos)) ||
 800372c:	68fb      	ldr	r3, [r7, #12]
 800372e:	f403 3240 	and.w	r2, r3, #196608	; 0x30000
 8003732:	687b      	ldr	r3, [r7, #4]
 8003734:	6a9b      	ldr	r3, [r3, #40]	; 0x28
 8003736:	085b      	lsrs	r3, r3, #1
 8003738:	3b01      	subs	r3, #1
 800373a:	041b      	lsls	r3, r3, #16
          (READ_BIT(pll_config, RCC_PLLCFGR_PLLN) != (RCC_OscInitStruct->PLL.PLLN << RCC_PLLCFGR_PLLN_Pos)) ||
 800373c:	429a      	cmp	r2, r3
 800373e:	d10f      	bne.n	8003760 <HAL_RCC_OscConfig+0x548>
          (READ_BIT(pll_config, RCC_PLLCFGR_PLLQ) != (RCC_OscInitStruct->PLL.PLLQ << RCC_PLLCFGR_PLLQ_Pos)) ||
 8003740:	68fb      	ldr	r3, [r7, #12]
 8003742:	f003 6270 	and.w	r2, r3, #251658240	; 0xf000000
 8003746:	687b      	ldr	r3, [r7, #4]
 8003748:	6adb      	ldr	r3, [r3, #44]	; 0x2c
 800374a:	061b      	lsls	r3, r3, #24
          (READ_BIT(pll_config, RCC_PLLCFGR_PLLP) != ((((RCC_OscInitStruct->PLL.PLLP) >> 1U) - 1U) << RCC_PLLCFGR_PLLP_Pos)) ||
 800374c:	429a      	cmp	r2, r3
 800374e:	d107      	bne.n	8003760 <HAL_RCC_OscConfig+0x548>
          (READ_BIT(pll_config, RCC_PLLCFGR_PLLR) != (RCC_OscInitStruct->PLL.PLLR << RCC_PLLCFGR_PLLR_Pos)))
 8003750:	68fb      	ldr	r3, [r7, #12]
 8003752:	f003 42e0 	and.w	r2, r3, #1879048192	; 0x70000000
 8003756:	687b      	ldr	r3, [r7, #4]
 8003758:	6b1b      	ldr	r3, [r3, #48]	; 0x30
 800375a:	071b      	lsls	r3, r3, #28
          (READ_BIT(pll_config, RCC_PLLCFGR_PLLQ) != (RCC_OscInitStruct->PLL.PLLQ << RCC_PLLCFGR_PLLQ_Pos)) ||
 800375c:	429a      	cmp	r2, r3
 800375e:	d001      	beq.n	8003764 <HAL_RCC_OscConfig+0x54c>
          (READ_BIT(pll_config, RCC_PLLCFGR_PLLN) != (RCC_OscInitStruct->PLL.PLLN << RCC_PLLCFGR_PLLN_Pos)) ||
          (READ_BIT(pll_config, RCC_PLLCFGR_PLLP) != ((((RCC_OscInitStruct->PLL.PLLP) >> 1U) - 1U) << RCC_PLLCFGR_PLLP_Pos)) ||
          (READ_BIT(pll_config, RCC_PLLCFGR_PLLQ) != (RCC_OscInitStruct->PLL.PLLQ << RCC_PLLCFGR_PLLQ_Pos)))
#endif
      {
        return HAL_ERROR;
 8003760:	2301      	movs	r3, #1
 8003762:	e000      	b.n	8003766 <HAL_RCC_OscConfig+0x54e>
      }
    }
  }
  return HAL_OK;
 8003764:	2300      	movs	r3, #0
}
 8003766:	4618      	mov	r0, r3
 8003768:	3718      	adds	r7, #24
 800376a:	46bd      	mov	sp, r7
 800376c:	bd80      	pop	{r7, pc}
 800376e:	bf00      	nop
 8003770:	40023800 	.word	0x40023800

08003774 <HAL_RCC_ClockConfig>:
  *         HPRE[3:0] bits to ensure that HCLK not exceed the maximum allowed frequency
  *         (for more details refer to section above "Initialization/de-initialization functions")
  * @retval None
  */
HAL_StatusTypeDef HAL_RCC_ClockConfig(RCC_ClkInitTypeDef  *RCC_ClkInitStruct, uint32_t FLatency)
{
 8003774:	b580      	push	{r7, lr}
 8003776:	b084      	sub	sp, #16
 8003778:	af00      	add	r7, sp, #0
 800377a:	6078      	str	r0, [r7, #4]
 800377c:	6039      	str	r1, [r7, #0]
  uint32_t tickstart = 0;
 800377e:	2300      	movs	r3, #0
 8003780:	60fb      	str	r3, [r7, #12]

  /* Check Null pointer */
  if (RCC_ClkInitStruct == NULL)
 8003782:	687b      	ldr	r3, [r7, #4]
 8003784:	2b00      	cmp	r3, #0
 8003786:	d101      	bne.n	800378c <HAL_RCC_ClockConfig+0x18>
  {
    return HAL_ERROR;
 8003788:	2301      	movs	r3, #1
 800378a:	e0d0      	b.n	800392e <HAL_RCC_ClockConfig+0x1ba>
  /* To correctly read data from FLASH memory, the number of wait states (LATENCY)
     must be correctly programmed according to the frequency of the CPU clock
     (HCLK) and the supply voltage of the device. */

  /* Increasing the CPU frequency */
  if (FLatency > __HAL_FLASH_GET_LATENCY())
 800378c:	4b6a      	ldr	r3, [pc, #424]	; (8003938 <HAL_RCC_ClockConfig+0x1c4>)
 800378e:	681b      	ldr	r3, [r3, #0]
 8003790:	f003 030f 	and.w	r3, r3, #15
 8003794:	683a      	ldr	r2, [r7, #0]
 8003796:	429a      	cmp	r2, r3
 8003798:	d910      	bls.n	80037bc <HAL_RCC_ClockConfig+0x48>
  {
    /* Program the new number of wait states to the LATENCY bits in the FLASH_ACR register */
    __HAL_FLASH_SET_LATENCY(FLatency);
 800379a:	4b67      	ldr	r3, [pc, #412]	; (8003938 <HAL_RCC_ClockConfig+0x1c4>)
 800379c:	681b      	ldr	r3, [r3, #0]
 800379e:	f023 020f 	bic.w	r2, r3, #15
 80037a2:	4965      	ldr	r1, [pc, #404]	; (8003938 <HAL_RCC_ClockConfig+0x1c4>)
 80037a4:	683b      	ldr	r3, [r7, #0]
 80037a6:	4313      	orrs	r3, r2
 80037a8:	600b      	str	r3, [r1, #0]

    /* Check that the new number of wait states is taken into account to access the Flash
    memory by reading the FLASH_ACR register */
    if (__HAL_FLASH_GET_LATENCY() != FLatency)
 80037aa:	4b63      	ldr	r3, [pc, #396]	; (8003938 <HAL_RCC_ClockConfig+0x1c4>)
 80037ac:	681b      	ldr	r3, [r3, #0]
 80037ae:	f003 030f 	and.w	r3, r3, #15
 80037b2:	683a      	ldr	r2, [r7, #0]
 80037b4:	429a      	cmp	r2, r3
 80037b6:	d001      	beq.n	80037bc <HAL_RCC_ClockConfig+0x48>
    {
      return HAL_ERROR;
 80037b8:	2301      	movs	r3, #1
 80037ba:	e0b8      	b.n	800392e <HAL_RCC_ClockConfig+0x1ba>
    }
  }

  /*-------------------------- HCLK Configuration --------------------------*/
  if (((RCC_ClkInitStruct->ClockType) & RCC_CLOCKTYPE_HCLK) == RCC_CLOCKTYPE_HCLK)
 80037bc:	687b      	ldr	r3, [r7, #4]
 80037be:	681b      	ldr	r3, [r3, #0]
 80037c0:	f003 0302 	and.w	r3, r3, #2
 80037c4:	2b00      	cmp	r3, #0
 80037c6:	d020      	beq.n	800380a <HAL_RCC_ClockConfig+0x96>
  {
    /* Set the highest APBx dividers in order to ensure that we do not go through
       a non-spec phase whatever we decrease or increase HCLK. */
    if (((RCC_ClkInitStruct->ClockType) & RCC_CLOCKTYPE_PCLK1) == RCC_CLOCKTYPE_PCLK1)
 80037c8:	687b      	ldr	r3, [r7, #4]
 80037ca:	681b      	ldr	r3, [r3, #0]
 80037cc:	f003 0304 	and.w	r3, r3, #4
 80037d0:	2b00      	cmp	r3, #0
 80037d2:	d005      	beq.n	80037e0 <HAL_RCC_ClockConfig+0x6c>
    {
      MODIFY_REG(RCC->CFGR, RCC_CFGR_PPRE1, RCC_HCLK_DIV16);
 80037d4:	4b59      	ldr	r3, [pc, #356]	; (800393c <HAL_RCC_ClockConfig+0x1c8>)
 80037d6:	689b      	ldr	r3, [r3, #8]
 80037d8:	4a58      	ldr	r2, [pc, #352]	; (800393c <HAL_RCC_ClockConfig+0x1c8>)
 80037da:	f443 53e0 	orr.w	r3, r3, #7168	; 0x1c00
 80037de:	6093      	str	r3, [r2, #8]
    }

    if (((RCC_ClkInitStruct->ClockType) & RCC_CLOCKTYPE_PCLK2) == RCC_CLOCKTYPE_PCLK2)
 80037e0:	687b      	ldr	r3, [r7, #4]
 80037e2:	681b      	ldr	r3, [r3, #0]
 80037e4:	f003 0308 	and.w	r3, r3, #8
 80037e8:	2b00      	cmp	r3, #0
 80037ea:	d005      	beq.n	80037f8 <HAL_RCC_ClockConfig+0x84>
    {
      MODIFY_REG(RCC->CFGR, RCC_CFGR_PPRE2, (RCC_HCLK_DIV16 << 3));
 80037ec:	4b53      	ldr	r3, [pc, #332]	; (800393c <HAL_RCC_ClockConfig+0x1c8>)
 80037ee:	689b      	ldr	r3, [r3, #8]
 80037f0:	4a52      	ldr	r2, [pc, #328]	; (800393c <HAL_RCC_ClockConfig+0x1c8>)
 80037f2:	f443 4360 	orr.w	r3, r3, #57344	; 0xe000
 80037f6:	6093      	str	r3, [r2, #8]
    }

    /* Set the new HCLK clock divider */
    assert_param(IS_RCC_HCLK(RCC_ClkInitStruct->AHBCLKDivider));
    MODIFY_REG(RCC->CFGR, RCC_CFGR_HPRE, RCC_ClkInitStruct->AHBCLKDivider);
 80037f8:	4b50      	ldr	r3, [pc, #320]	; (800393c <HAL_RCC_ClockConfig+0x1c8>)
 80037fa:	689b      	ldr	r3, [r3, #8]
 80037fc:	f023 02f0 	bic.w	r2, r3, #240	; 0xf0
 8003800:	687b      	ldr	r3, [r7, #4]
 8003802:	689b      	ldr	r3, [r3, #8]
 8003804:	494d      	ldr	r1, [pc, #308]	; (800393c <HAL_RCC_ClockConfig+0x1c8>)
 8003806:	4313      	orrs	r3, r2
 8003808:	608b      	str	r3, [r1, #8]
  }

  /*------------------------- SYSCLK Configuration ---------------------------*/
  if (((RCC_ClkInitStruct->ClockType) & RCC_CLOCKTYPE_SYSCLK) == RCC_CLOCKTYPE_SYSCLK)
 800380a:	687b      	ldr	r3, [r7, #4]
 800380c:	681b      	ldr	r3, [r3, #0]
 800380e:	f003 0301 	and.w	r3, r3, #1
 8003812:	2b00      	cmp	r3, #0
 8003814:	d040      	beq.n	8003898 <HAL_RCC_ClockConfig+0x124>
  {
    assert_param(IS_RCC_SYSCLKSOURCE(RCC_ClkInitStruct->SYSCLKSource));

    /* HSE is selected as System Clock Source */
    if (RCC_ClkInitStruct->SYSCLKSource == RCC_SYSCLKSOURCE_HSE)
 8003816:	687b      	ldr	r3, [r7, #4]
 8003818:	685b      	ldr	r3, [r3, #4]
 800381a:	2b01      	cmp	r3, #1
 800381c:	d107      	bne.n	800382e <HAL_RCC_ClockConfig+0xba>
    {
      /* Check the HSE ready flag */
      if (__HAL_RCC_GET_FLAG(RCC_FLAG_HSERDY) == RESET)
 800381e:	4b47      	ldr	r3, [pc, #284]	; (800393c <HAL_RCC_ClockConfig+0x1c8>)
 8003820:	681b      	ldr	r3, [r3, #0]
 8003822:	f403 3300 	and.w	r3, r3, #131072	; 0x20000
 8003826:	2b00      	cmp	r3, #0
 8003828:	d115      	bne.n	8003856 <HAL_RCC_ClockConfig+0xe2>
      {
        return HAL_ERROR;
 800382a:	2301      	movs	r3, #1
 800382c:	e07f      	b.n	800392e <HAL_RCC_ClockConfig+0x1ba>
      }
    }
    /* PLL is selected as System Clock Source */
    else if (RCC_ClkInitStruct->SYSCLKSource == RCC_SYSCLKSOURCE_PLLCLK)
 800382e:	687b      	ldr	r3, [r7, #4]
 8003830:	685b      	ldr	r3, [r3, #4]
 8003832:	2b02      	cmp	r3, #2
 8003834:	d107      	bne.n	8003846 <HAL_RCC_ClockConfig+0xd2>
    {
      /* Check the PLL ready flag */
      if (__HAL_RCC_GET_FLAG(RCC_FLAG_PLLRDY) == RESET)
 8003836:	4b41      	ldr	r3, [pc, #260]	; (800393c <HAL_RCC_ClockConfig+0x1c8>)
 8003838:	681b      	ldr	r3, [r3, #0]
 800383a:	f003 7300 	and.w	r3, r3, #33554432	; 0x2000000
 800383e:	2b00      	cmp	r3, #0
 8003840:	d109      	bne.n	8003856 <HAL_RCC_ClockConfig+0xe2>
      {
        return HAL_ERROR;
 8003842:	2301      	movs	r3, #1
 8003844:	e073      	b.n	800392e <HAL_RCC_ClockConfig+0x1ba>
    }
    /* HSI is selected as System Clock Source */
    else
    {
      /* Check the HSI ready flag */
      if (__HAL_RCC_GET_FLAG(RCC_FLAG_HSIRDY) == RESET)
 8003846:	4b3d      	ldr	r3, [pc, #244]	; (800393c <HAL_RCC_ClockConfig+0x1c8>)
 8003848:	681b      	ldr	r3, [r3, #0]
 800384a:	f003 0302 	and.w	r3, r3, #2
 800384e:	2b00      	cmp	r3, #0
 8003850:	d101      	bne.n	8003856 <HAL_RCC_ClockConfig+0xe2>
      {
        return HAL_ERROR;
 8003852:	2301      	movs	r3, #1
 8003854:	e06b      	b.n	800392e <HAL_RCC_ClockConfig+0x1ba>
      }
    }

    __HAL_RCC_SYSCLK_CONFIG(RCC_ClkInitStruct->SYSCLKSource);
 8003856:	4b39      	ldr	r3, [pc, #228]	; (800393c <HAL_RCC_ClockConfig+0x1c8>)
 8003858:	689b      	ldr	r3, [r3, #8]
 800385a:	f023 0203 	bic.w	r2, r3, #3
 800385e:	687b      	ldr	r3, [r7, #4]
 8003860:	685b      	ldr	r3, [r3, #4]
 8003862:	4936      	ldr	r1, [pc, #216]	; (800393c <HAL_RCC_ClockConfig+0x1c8>)
 8003864:	4313      	orrs	r3, r2
 8003866:	608b      	str	r3, [r1, #8]

    /* Get Start Tick*/
    tickstart = HAL_GetTick();
 8003868:	f7fe fbfe 	bl	8002068 <HAL_GetTick>
 800386c:	60f8      	str	r0, [r7, #12]

    while (__HAL_RCC_GET_SYSCLK_SOURCE() != (RCC_ClkInitStruct->SYSCLKSource << RCC_CFGR_SWS_Pos))
 800386e:	e00a      	b.n	8003886 <HAL_RCC_ClockConfig+0x112>
    {
      if ((HAL_GetTick() - tickstart) > CLOCKSWITCH_TIMEOUT_VALUE)
 8003870:	f7fe fbfa 	bl	8002068 <HAL_GetTick>
 8003874:	4602      	mov	r2, r0
 8003876:	68fb      	ldr	r3, [r7, #12]
 8003878:	1ad3      	subs	r3, r2, r3
 800387a:	f241 3288 	movw	r2, #5000	; 0x1388
 800387e:	4293      	cmp	r3, r2
 8003880:	d901      	bls.n	8003886 <HAL_RCC_ClockConfig+0x112>
      {
        return HAL_TIMEOUT;
 8003882:	2303      	movs	r3, #3
 8003884:	e053      	b.n	800392e <HAL_RCC_ClockConfig+0x1ba>
    while (__HAL_RCC_GET_SYSCLK_SOURCE() != (RCC_ClkInitStruct->SYSCLKSource << RCC_CFGR_SWS_Pos))
 8003886:	4b2d      	ldr	r3, [pc, #180]	; (800393c <HAL_RCC_ClockConfig+0x1c8>)
 8003888:	689b      	ldr	r3, [r3, #8]
 800388a:	f003 020c 	and.w	r2, r3, #12
 800388e:	687b      	ldr	r3, [r7, #4]
 8003890:	685b      	ldr	r3, [r3, #4]
 8003892:	009b      	lsls	r3, r3, #2
 8003894:	429a      	cmp	r2, r3
 8003896:	d1eb      	bne.n	8003870 <HAL_RCC_ClockConfig+0xfc>
      }
    }
  }

  /* Decreasing the number of wait states because of lower CPU frequency */
  if (FLatency < __HAL_FLASH_GET_LATENCY())
 8003898:	4b27      	ldr	r3, [pc, #156]	; (8003938 <HAL_RCC_ClockConfig+0x1c4>)
 800389a:	681b      	ldr	r3, [r3, #0]
 800389c:	f003 030f 	and.w	r3, r3, #15
 80038a0:	683a      	ldr	r2, [r7, #0]
 80038a2:	429a      	cmp	r2, r3
 80038a4:	d210      	bcs.n	80038c8 <HAL_RCC_ClockConfig+0x154>
  {
    /* Program the new number of wait states to the LATENCY bits in the FLASH_ACR register */
    __HAL_FLASH_SET_LATENCY(FLatency);
 80038a6:	4b24      	ldr	r3, [pc, #144]	; (8003938 <HAL_RCC_ClockConfig+0x1c4>)
 80038a8:	681b      	ldr	r3, [r3, #0]
 80038aa:	f023 020f 	bic.w	r2, r3, #15
 80038ae:	4922      	ldr	r1, [pc, #136]	; (8003938 <HAL_RCC_ClockConfig+0x1c4>)
 80038b0:	683b      	ldr	r3, [r7, #0]
 80038b2:	4313      	orrs	r3, r2
 80038b4:	600b      	str	r3, [r1, #0]

    /* Check that the new number of wait states is taken into account to access the Flash
    memory by reading the FLASH_ACR register */
    if (__HAL_FLASH_GET_LATENCY() != FLatency)
 80038b6:	4b20      	ldr	r3, [pc, #128]	; (8003938 <HAL_RCC_ClockConfig+0x1c4>)
 80038b8:	681b      	ldr	r3, [r3, #0]
 80038ba:	f003 030f 	and.w	r3, r3, #15
 80038be:	683a      	ldr	r2, [r7, #0]
 80038c0:	429a      	cmp	r2, r3
 80038c2:	d001      	beq.n	80038c8 <HAL_RCC_ClockConfig+0x154>
    {
      return HAL_ERROR;
 80038c4:	2301      	movs	r3, #1
 80038c6:	e032      	b.n	800392e <HAL_RCC_ClockConfig+0x1ba>
    }
  }

  /*-------------------------- PCLK1 Configuration ---------------------------*/
  if (((RCC_ClkInitStruct->ClockType) & RCC_CLOCKTYPE_PCLK1) == RCC_CLOCKTYPE_PCLK1)
 80038c8:	687b      	ldr	r3, [r7, #4]
 80038ca:	681b      	ldr	r3, [r3, #0]
 80038cc:	f003 0304 	and.w	r3, r3, #4
 80038d0:	2b00      	cmp	r3, #0
 80038d2:	d008      	beq.n	80038e6 <HAL_RCC_ClockConfig+0x172>
  {
    assert_param(IS_RCC_PCLK(RCC_ClkInitStruct->APB1CLKDivider));
    MODIFY_REG(RCC->CFGR, RCC_CFGR_PPRE1, RCC_ClkInitStruct->APB1CLKDivider);
 80038d4:	4b19      	ldr	r3, [pc, #100]	; (800393c <HAL_RCC_ClockConfig+0x1c8>)
 80038d6:	689b      	ldr	r3, [r3, #8]
 80038d8:	f423 52e0 	bic.w	r2, r3, #7168	; 0x1c00
 80038dc:	687b      	ldr	r3, [r7, #4]
 80038de:	68db      	ldr	r3, [r3, #12]
 80038e0:	4916      	ldr	r1, [pc, #88]	; (800393c <HAL_RCC_ClockConfig+0x1c8>)
 80038e2:	4313      	orrs	r3, r2
 80038e4:	608b      	str	r3, [r1, #8]
  }

  /*-------------------------- PCLK2 Configuration ---------------------------*/
  if (((RCC_ClkInitStruct->ClockType) & RCC_CLOCKTYPE_PCLK2) == RCC_CLOCKTYPE_PCLK2)
 80038e6:	687b      	ldr	r3, [r7, #4]
 80038e8:	681b      	ldr	r3, [r3, #0]
 80038ea:	f003 0308 	and.w	r3, r3, #8
 80038ee:	2b00      	cmp	r3, #0
 80038f0:	d009      	beq.n	8003906 <HAL_RCC_ClockConfig+0x192>
  {
    assert_param(IS_RCC_PCLK(RCC_ClkInitStruct->APB2CLKDivider));
    MODIFY_REG(RCC->CFGR, RCC_CFGR_PPRE2, ((RCC_ClkInitStruct->APB2CLKDivider) << 3));
 80038f2:	4b12      	ldr	r3, [pc, #72]	; (800393c <HAL_RCC_ClockConfig+0x1c8>)
 80038f4:	689b      	ldr	r3, [r3, #8]
 80038f6:	f423 4260 	bic.w	r2, r3, #57344	; 0xe000
 80038fa:	687b      	ldr	r3, [r7, #4]
 80038fc:	691b      	ldr	r3, [r3, #16]
 80038fe:	00db      	lsls	r3, r3, #3
 8003900:	490e      	ldr	r1, [pc, #56]	; (800393c <HAL_RCC_ClockConfig+0x1c8>)
 8003902:	4313      	orrs	r3, r2
 8003904:	608b      	str	r3, [r1, #8]
  }

  /* Update the SystemCoreClock global variable */
  SystemCoreClock = HAL_RCC_GetSysClockFreq() >> AHBPrescTable[(RCC->CFGR & RCC_CFGR_HPRE) >> RCC_CFGR_HPRE_Pos];
 8003906:	f000 f821 	bl	800394c <HAL_RCC_GetSysClockFreq>
 800390a:	4602      	mov	r2, r0
 800390c:	4b0b      	ldr	r3, [pc, #44]	; (800393c <HAL_RCC_ClockConfig+0x1c8>)
 800390e:	689b      	ldr	r3, [r3, #8]
 8003910:	091b      	lsrs	r3, r3, #4
 8003912:	f003 030f 	and.w	r3, r3, #15
 8003916:	490a      	ldr	r1, [pc, #40]	; (8003940 <HAL_RCC_ClockConfig+0x1cc>)
 8003918:	5ccb      	ldrb	r3, [r1, r3]
 800391a:	fa22 f303 	lsr.w	r3, r2, r3
 800391e:	4a09      	ldr	r2, [pc, #36]	; (8003944 <HAL_RCC_ClockConfig+0x1d0>)
 8003920:	6013      	str	r3, [r2, #0]

  /* Configure the source of time base considering new system clocks settings*/
  HAL_InitTick(uwTickPrio);
 8003922:	4b09      	ldr	r3, [pc, #36]	; (8003948 <HAL_RCC_ClockConfig+0x1d4>)
 8003924:	681b      	ldr	r3, [r3, #0]
 8003926:	4618      	mov	r0, r3
 8003928:	f7fe fa88 	bl	8001e3c <HAL_InitTick>

  return HAL_OK;
 800392c:	2300      	movs	r3, #0
}
 800392e:	4618      	mov	r0, r3
 8003930:	3710      	adds	r7, #16
 8003932:	46bd      	mov	sp, r7
 8003934:	bd80      	pop	{r7, pc}
 8003936:	bf00      	nop
 8003938:	40023c00 	.word	0x40023c00
 800393c:	40023800 	.word	0x40023800
 8003940:	08008950 	.word	0x08008950
 8003944:	20000000 	.word	0x20000000
 8003948:	20000004 	.word	0x20000004

0800394c <HAL_RCC_GetSysClockFreq>:
  *
  *
  * @retval SYSCLK frequency
  */
uint32_t HAL_RCC_GetSysClockFreq(void)
{
 800394c:	e92d 4fb0 	stmdb	sp!, {r4, r5, r7, r8, r9, sl, fp, lr}
 8003950:	b094      	sub	sp, #80	; 0x50
 8003952:	af00      	add	r7, sp, #0
  uint32_t pllm = 0, pllvco = 0, pllp = 0;
 8003954:	2300      	movs	r3, #0
 8003956:	647b      	str	r3, [r7, #68]	; 0x44
 8003958:	2300      	movs	r3, #0
 800395a:	64fb      	str	r3, [r7, #76]	; 0x4c
 800395c:	2300      	movs	r3, #0
 800395e:	643b      	str	r3, [r7, #64]	; 0x40
  uint32_t sysclockfreq = 0;
 8003960:	2300      	movs	r3, #0
 8003962:	64bb      	str	r3, [r7, #72]	; 0x48

  /* Get SYSCLK source -------------------------------------------------------*/
  switch (RCC->CFGR & RCC_CFGR_SWS)
 8003964:	4b79      	ldr	r3, [pc, #484]	; (8003b4c <HAL_RCC_GetSysClockFreq+0x200>)
 8003966:	689b      	ldr	r3, [r3, #8]
 8003968:	f003 030c 	and.w	r3, r3, #12
 800396c:	2b08      	cmp	r3, #8
 800396e:	d00d      	beq.n	800398c <HAL_RCC_GetSysClockFreq+0x40>
 8003970:	2b08      	cmp	r3, #8
 8003972:	f200 80e1 	bhi.w	8003b38 <HAL_RCC_GetSysClockFreq+0x1ec>
 8003976:	2b00      	cmp	r3, #0
 8003978:	d002      	beq.n	8003980 <HAL_RCC_GetSysClockFreq+0x34>
 800397a:	2b04      	cmp	r3, #4
 800397c:	d003      	beq.n	8003986 <HAL_RCC_GetSysClockFreq+0x3a>
 800397e:	e0db      	b.n	8003b38 <HAL_RCC_GetSysClockFreq+0x1ec>
  {
    case RCC_SYSCLKSOURCE_STATUS_HSI:  /* HSI used as system clock source */
    {
      sysclockfreq = HSI_VALUE;
 8003980:	4b73      	ldr	r3, [pc, #460]	; (8003b50 <HAL_RCC_GetSysClockFreq+0x204>)
 8003982:	64bb      	str	r3, [r7, #72]	; 0x48
      break;
 8003984:	e0db      	b.n	8003b3e <HAL_RCC_GetSysClockFreq+0x1f2>
    }
    case RCC_SYSCLKSOURCE_STATUS_HSE:  /* HSE used as system clock  source */
    {
      sysclockfreq = HSE_VALUE;
 8003986:	4b73      	ldr	r3, [pc, #460]	; (8003b54 <HAL_RCC_GetSysClockFreq+0x208>)
 8003988:	64bb      	str	r3, [r7, #72]	; 0x48
      break;
 800398a:	e0d8      	b.n	8003b3e <HAL_RCC_GetSysClockFreq+0x1f2>
    }
    case RCC_SYSCLKSOURCE_STATUS_PLLCLK:  /* PLL used as system clock  source */
    {
      /* PLL_VCO = (HSE_VALUE or HSI_VALUE / PLLM) * PLLN
      SYSCLK = PLL_VCO / PLLP */
      pllm = RCC->PLLCFGR & RCC_PLLCFGR_PLLM;
 800398c:	4b6f      	ldr	r3, [pc, #444]	; (8003b4c <HAL_RCC_GetSysClockFreq+0x200>)
 800398e:	685b      	ldr	r3, [r3, #4]
 8003990:	f003 033f 	and.w	r3, r3, #63	; 0x3f
 8003994:	647b      	str	r3, [r7, #68]	; 0x44
      if (__HAL_RCC_GET_PLL_OSCSOURCE() != RCC_PLLCFGR_PLLSRC_HSI)
 8003996:	4b6d      	ldr	r3, [pc, #436]	; (8003b4c <HAL_RCC_GetSysClockFreq+0x200>)
 8003998:	685b      	ldr	r3, [r3, #4]
 800399a:	f403 0380 	and.w	r3, r3, #4194304	; 0x400000
 800399e:	2b00      	cmp	r3, #0
 80039a0:	d063      	beq.n	8003a6a <HAL_RCC_GetSysClockFreq+0x11e>
      {
        /* HSE used as PLL clock source */
        pllvco = (uint32_t)((((uint64_t) HSE_VALUE * ((uint64_t)((RCC->PLLCFGR & RCC_PLLCFGR_PLLN) >> RCC_PLLCFGR_PLLN_Pos)))) / (uint64_t)pllm);
 80039a2:	4b6a      	ldr	r3, [pc, #424]	; (8003b4c <HAL_RCC_GetSysClockFreq+0x200>)
 80039a4:	685b      	ldr	r3, [r3, #4]
 80039a6:	099b      	lsrs	r3, r3, #6
 80039a8:	2200      	movs	r2, #0
 80039aa:	63bb      	str	r3, [r7, #56]	; 0x38
 80039ac:	63fa      	str	r2, [r7, #60]	; 0x3c
 80039ae:	6bbb      	ldr	r3, [r7, #56]	; 0x38
 80039b0:	f3c3 0308 	ubfx	r3, r3, #0, #9
 80039b4:	633b      	str	r3, [r7, #48]	; 0x30
 80039b6:	2300      	movs	r3, #0
 80039b8:	637b      	str	r3, [r7, #52]	; 0x34
 80039ba:	e9d7 450c 	ldrd	r4, r5, [r7, #48]	; 0x30
 80039be:	4622      	mov	r2, r4
 80039c0:	462b      	mov	r3, r5
 80039c2:	f04f 0000 	mov.w	r0, #0
 80039c6:	f04f 0100 	mov.w	r1, #0
 80039ca:	0159      	lsls	r1, r3, #5
 80039cc:	ea41 61d2 	orr.w	r1, r1, r2, lsr #27
 80039d0:	0150      	lsls	r0, r2, #5
 80039d2:	4602      	mov	r2, r0
 80039d4:	460b      	mov	r3, r1
 80039d6:	4621      	mov	r1, r4
 80039d8:	1a51      	subs	r1, r2, r1
 80039da:	6139      	str	r1, [r7, #16]
 80039dc:	4629      	mov	r1, r5
 80039de:	eb63 0301 	sbc.w	r3, r3, r1
 80039e2:	617b      	str	r3, [r7, #20]
 80039e4:	f04f 0200 	mov.w	r2, #0
 80039e8:	f04f 0300 	mov.w	r3, #0
 80039ec:	e9d7 ab04 	ldrd	sl, fp, [r7, #16]
 80039f0:	4659      	mov	r1, fp
 80039f2:	018b      	lsls	r3, r1, #6
 80039f4:	4651      	mov	r1, sl
 80039f6:	ea43 6391 	orr.w	r3, r3, r1, lsr #26
 80039fa:	4651      	mov	r1, sl
 80039fc:	018a      	lsls	r2, r1, #6
 80039fe:	4651      	mov	r1, sl
 8003a00:	ebb2 0801 	subs.w	r8, r2, r1
 8003a04:	4659      	mov	r1, fp
 8003a06:	eb63 0901 	sbc.w	r9, r3, r1
 8003a0a:	f04f 0200 	mov.w	r2, #0
 8003a0e:	f04f 0300 	mov.w	r3, #0
 8003a12:	ea4f 03c9 	mov.w	r3, r9, lsl #3
 8003a16:	ea43 7358 	orr.w	r3, r3, r8, lsr #29
 8003a1a:	ea4f 02c8 	mov.w	r2, r8, lsl #3
 8003a1e:	4690      	mov	r8, r2
 8003a20:	4699      	mov	r9, r3
 8003a22:	4623      	mov	r3, r4
 8003a24:	eb18 0303 	adds.w	r3, r8, r3
 8003a28:	60bb      	str	r3, [r7, #8]
 8003a2a:	462b      	mov	r3, r5
 8003a2c:	eb49 0303 	adc.w	r3, r9, r3
 8003a30:	60fb      	str	r3, [r7, #12]
 8003a32:	f04f 0200 	mov.w	r2, #0
 8003a36:	f04f 0300 	mov.w	r3, #0
 8003a3a:	e9d7 4502 	ldrd	r4, r5, [r7, #8]
 8003a3e:	4629      	mov	r1, r5
 8003a40:	024b      	lsls	r3, r1, #9
 8003a42:	4621      	mov	r1, r4
 8003a44:	ea43 53d1 	orr.w	r3, r3, r1, lsr #23
 8003a48:	4621      	mov	r1, r4
 8003a4a:	024a      	lsls	r2, r1, #9
 8003a4c:	4610      	mov	r0, r2
 8003a4e:	4619      	mov	r1, r3
 8003a50:	6c7b      	ldr	r3, [r7, #68]	; 0x44
 8003a52:	2200      	movs	r2, #0
 8003a54:	62bb      	str	r3, [r7, #40]	; 0x28
 8003a56:	62fa      	str	r2, [r7, #44]	; 0x2c
 8003a58:	e9d7 230a 	ldrd	r2, r3, [r7, #40]	; 0x28
 8003a5c:	f7fc fbf0 	bl	8000240 <__aeabi_uldivmod>
 8003a60:	4602      	mov	r2, r0
 8003a62:	460b      	mov	r3, r1
 8003a64:	4613      	mov	r3, r2
 8003a66:	64fb      	str	r3, [r7, #76]	; 0x4c
 8003a68:	e058      	b.n	8003b1c <HAL_RCC_GetSysClockFreq+0x1d0>
      }
      else
      {
        /* HSI used as PLL clock source */
        pllvco = (uint32_t)((((uint64_t) HSI_VALUE * ((uint64_t)((RCC->PLLCFGR & RCC_PLLCFGR_PLLN) >> RCC_PLLCFGR_PLLN_Pos)))) / (uint64_t)pllm);
 8003a6a:	4b38      	ldr	r3, [pc, #224]	; (8003b4c <HAL_RCC_GetSysClockFreq+0x200>)
 8003a6c:	685b      	ldr	r3, [r3, #4]
 8003a6e:	099b      	lsrs	r3, r3, #6
 8003a70:	2200      	movs	r2, #0
 8003a72:	4618      	mov	r0, r3
 8003a74:	4611      	mov	r1, r2
 8003a76:	f3c0 0308 	ubfx	r3, r0, #0, #9
 8003a7a:	623b      	str	r3, [r7, #32]
 8003a7c:	2300      	movs	r3, #0
 8003a7e:	627b      	str	r3, [r7, #36]	; 0x24
 8003a80:	e9d7 8908 	ldrd	r8, r9, [r7, #32]
 8003a84:	4642      	mov	r2, r8
 8003a86:	464b      	mov	r3, r9
 8003a88:	f04f 0000 	mov.w	r0, #0
 8003a8c:	f04f 0100 	mov.w	r1, #0
 8003a90:	0159      	lsls	r1, r3, #5
 8003a92:	ea41 61d2 	orr.w	r1, r1, r2, lsr #27
 8003a96:	0150      	lsls	r0, r2, #5
 8003a98:	4602      	mov	r2, r0
 8003a9a:	460b      	mov	r3, r1
 8003a9c:	4641      	mov	r1, r8
 8003a9e:	ebb2 0a01 	subs.w	sl, r2, r1
 8003aa2:	4649      	mov	r1, r9
 8003aa4:	eb63 0b01 	sbc.w	fp, r3, r1
 8003aa8:	f04f 0200 	mov.w	r2, #0
 8003aac:	f04f 0300 	mov.w	r3, #0
 8003ab0:	ea4f 138b 	mov.w	r3, fp, lsl #6
 8003ab4:	ea43 639a 	orr.w	r3, r3, sl, lsr #26
 8003ab8:	ea4f 128a 	mov.w	r2, sl, lsl #6
 8003abc:	ebb2 040a 	subs.w	r4, r2, sl
 8003ac0:	eb63 050b 	sbc.w	r5, r3, fp
 8003ac4:	f04f 0200 	mov.w	r2, #0
 8003ac8:	f04f 0300 	mov.w	r3, #0
 8003acc:	00eb      	lsls	r3, r5, #3
 8003ace:	ea43 7354 	orr.w	r3, r3, r4, lsr #29
 8003ad2:	00e2      	lsls	r2, r4, #3
 8003ad4:	4614      	mov	r4, r2
 8003ad6:	461d      	mov	r5, r3
 8003ad8:	4643      	mov	r3, r8
 8003ada:	18e3      	adds	r3, r4, r3
 8003adc:	603b      	str	r3, [r7, #0]
 8003ade:	464b      	mov	r3, r9
 8003ae0:	eb45 0303 	adc.w	r3, r5, r3
 8003ae4:	607b      	str	r3, [r7, #4]
 8003ae6:	f04f 0200 	mov.w	r2, #0
 8003aea:	f04f 0300 	mov.w	r3, #0
 8003aee:	e9d7 4500 	ldrd	r4, r5, [r7]
 8003af2:	4629      	mov	r1, r5
 8003af4:	028b      	lsls	r3, r1, #10
 8003af6:	4621      	mov	r1, r4
 8003af8:	ea43 5391 	orr.w	r3, r3, r1, lsr #22
 8003afc:	4621      	mov	r1, r4
 8003afe:	028a      	lsls	r2, r1, #10
 8003b00:	4610      	mov	r0, r2
 8003b02:	4619      	mov	r1, r3
 8003b04:	6c7b      	ldr	r3, [r7, #68]	; 0x44
 8003b06:	2200      	movs	r2, #0
 8003b08:	61bb      	str	r3, [r7, #24]
 8003b0a:	61fa      	str	r2, [r7, #28]
 8003b0c:	e9d7 2306 	ldrd	r2, r3, [r7, #24]
 8003b10:	f7fc fb96 	bl	8000240 <__aeabi_uldivmod>
 8003b14:	4602      	mov	r2, r0
 8003b16:	460b      	mov	r3, r1
 8003b18:	4613      	mov	r3, r2
 8003b1a:	64fb      	str	r3, [r7, #76]	; 0x4c
      }
      pllp = ((((RCC->PLLCFGR & RCC_PLLCFGR_PLLP) >> RCC_PLLCFGR_PLLP_Pos) + 1) * 2);
 8003b1c:	4b0b      	ldr	r3, [pc, #44]	; (8003b4c <HAL_RCC_GetSysClockFreq+0x200>)
 8003b1e:	685b      	ldr	r3, [r3, #4]
 8003b20:	0c1b      	lsrs	r3, r3, #16
 8003b22:	f003 0303 	and.w	r3, r3, #3
 8003b26:	3301      	adds	r3, #1
 8003b28:	005b      	lsls	r3, r3, #1
 8003b2a:	643b      	str	r3, [r7, #64]	; 0x40

      sysclockfreq = pllvco / pllp;
 8003b2c:	6cfa      	ldr	r2, [r7, #76]	; 0x4c
 8003b2e:	6c3b      	ldr	r3, [r7, #64]	; 0x40
 8003b30:	fbb2 f3f3 	udiv	r3, r2, r3
 8003b34:	64bb      	str	r3, [r7, #72]	; 0x48
      break;
 8003b36:	e002      	b.n	8003b3e <HAL_RCC_GetSysClockFreq+0x1f2>
    }
    default:
    {
      sysclockfreq = HSI_VALUE;
 8003b38:	4b05      	ldr	r3, [pc, #20]	; (8003b50 <HAL_RCC_GetSysClockFreq+0x204>)
 8003b3a:	64bb      	str	r3, [r7, #72]	; 0x48
      break;
 8003b3c:	bf00      	nop
    }
  }
  return sysclockfreq;
 8003b3e:	6cbb      	ldr	r3, [r7, #72]	; 0x48
}
 8003b40:	4618      	mov	r0, r3
 8003b42:	3750      	adds	r7, #80	; 0x50
 8003b44:	46bd      	mov	sp, r7
 8003b46:	e8bd 8fb0 	ldmia.w	sp!, {r4, r5, r7, r8, r9, sl, fp, pc}
 8003b4a:	bf00      	nop
 8003b4c:	40023800 	.word	0x40023800
 8003b50:	00f42400 	.word	0x00f42400
 8003b54:	007a1200 	.word	0x007a1200

08003b58 <HAL_RCC_GetHCLKFreq>:
  *         right HCLK value. Otherwise, any configuration based on this function will be incorrect.
  * @note   The SystemCoreClock CMSIS variable is used to store System Clock Frequency.
  * @retval HCLK frequency
  */
uint32_t HAL_RCC_GetHCLKFreq(void)
{
 8003b58:	b480      	push	{r7}
 8003b5a:	af00      	add	r7, sp, #0
  return SystemCoreClock;
 8003b5c:	4b03      	ldr	r3, [pc, #12]	; (8003b6c <HAL_RCC_GetHCLKFreq+0x14>)
 8003b5e:	681b      	ldr	r3, [r3, #0]
}
 8003b60:	4618      	mov	r0, r3
 8003b62:	46bd      	mov	sp, r7
 8003b64:	f85d 7b04 	ldr.w	r7, [sp], #4
 8003b68:	4770      	bx	lr
 8003b6a:	bf00      	nop
 8003b6c:	20000000 	.word	0x20000000

08003b70 <HAL_RCC_GetPCLK2Freq>:
  * @note   Each time PCLK2 changes, this function must be called to update the
  *         right PCLK2 value. Otherwise, any configuration based on this function will be incorrect.
  * @retval PCLK2 frequency
  */
uint32_t HAL_RCC_GetPCLK2Freq(void)
{
 8003b70:	b580      	push	{r7, lr}
 8003b72:	af00      	add	r7, sp, #0
  /* Get HCLK source and Compute PCLK2 frequency ---------------------------*/
  return (HAL_RCC_GetHCLKFreq() >> APBPrescTable[(RCC->CFGR & RCC_CFGR_PPRE2) >> RCC_CFGR_PPRE2_Pos]);
 8003b74:	f7ff fff0 	bl	8003b58 <HAL_RCC_GetHCLKFreq>
 8003b78:	4602      	mov	r2, r0
 8003b7a:	4b05      	ldr	r3, [pc, #20]	; (8003b90 <HAL_RCC_GetPCLK2Freq+0x20>)
 8003b7c:	689b      	ldr	r3, [r3, #8]
 8003b7e:	0b5b      	lsrs	r3, r3, #13
 8003b80:	f003 0307 	and.w	r3, r3, #7
 8003b84:	4903      	ldr	r1, [pc, #12]	; (8003b94 <HAL_RCC_GetPCLK2Freq+0x24>)
 8003b86:	5ccb      	ldrb	r3, [r1, r3]
 8003b88:	fa22 f303 	lsr.w	r3, r2, r3
}
 8003b8c:	4618      	mov	r0, r3
 8003b8e:	bd80      	pop	{r7, pc}
 8003b90:	40023800 	.word	0x40023800
 8003b94:	08008960 	.word	0x08008960

08003b98 <HAL_RCC_GetClockConfig>:
  * will be configured.
  * @param  pFLatency Pointer on the Flash Latency.
  * @retval None
  */
void HAL_RCC_GetClockConfig(RCC_ClkInitTypeDef  *RCC_ClkInitStruct, uint32_t *pFLatency)
{
 8003b98:	b480      	push	{r7}
 8003b9a:	b083      	sub	sp, #12
 8003b9c:	af00      	add	r7, sp, #0
 8003b9e:	6078      	str	r0, [r7, #4]
 8003ba0:	6039      	str	r1, [r7, #0]
  /* Set all possible values for the Clock type parameter --------------------*/
  RCC_ClkInitStruct->ClockType = RCC_CLOCKTYPE_SYSCLK | RCC_CLOCKTYPE_HCLK | RCC_CLOCKTYPE_PCLK1 | RCC_CLOCKTYPE_PCLK2;
 8003ba2:	687b      	ldr	r3, [r7, #4]
 8003ba4:	220f      	movs	r2, #15
 8003ba6:	601a      	str	r2, [r3, #0]

  /* Get the SYSCLK configuration --------------------------------------------*/
  RCC_ClkInitStruct->SYSCLKSource = (uint32_t)(RCC->CFGR & RCC_CFGR_SW);
 8003ba8:	4b12      	ldr	r3, [pc, #72]	; (8003bf4 <HAL_RCC_GetClockConfig+0x5c>)
 8003baa:	689b      	ldr	r3, [r3, #8]
 8003bac:	f003 0203 	and.w	r2, r3, #3
 8003bb0:	687b      	ldr	r3, [r7, #4]
 8003bb2:	605a      	str	r2, [r3, #4]

  /* Get the HCLK configuration ----------------------------------------------*/
  RCC_ClkInitStruct->AHBCLKDivider = (uint32_t)(RCC->CFGR & RCC_CFGR_HPRE);
 8003bb4:	4b0f      	ldr	r3, [pc, #60]	; (8003bf4 <HAL_RCC_GetClockConfig+0x5c>)
 8003bb6:	689b      	ldr	r3, [r3, #8]
 8003bb8:	f003 02f0 	and.w	r2, r3, #240	; 0xf0
 8003bbc:	687b      	ldr	r3, [r7, #4]
 8003bbe:	609a      	str	r2, [r3, #8]

  /* Get the APB1 configuration ----------------------------------------------*/
  RCC_ClkInitStruct->APB1CLKDivider = (uint32_t)(RCC->CFGR & RCC_CFGR_PPRE1);
 8003bc0:	4b0c      	ldr	r3, [pc, #48]	; (8003bf4 <HAL_RCC_GetClockConfig+0x5c>)
 8003bc2:	689b      	ldr	r3, [r3, #8]
 8003bc4:	f403 52e0 	and.w	r2, r3, #7168	; 0x1c00
 8003bc8:	687b      	ldr	r3, [r7, #4]
 8003bca:	60da      	str	r2, [r3, #12]

  /* Get the APB2 configuration ----------------------------------------------*/
  RCC_ClkInitStruct->APB2CLKDivider = (uint32_t)((RCC->CFGR & RCC_CFGR_PPRE2) >> 3);
 8003bcc:	4b09      	ldr	r3, [pc, #36]	; (8003bf4 <HAL_RCC_GetClockConfig+0x5c>)
 8003bce:	689b      	ldr	r3, [r3, #8]
 8003bd0:	08db      	lsrs	r3, r3, #3
 8003bd2:	f403 52e0 	and.w	r2, r3, #7168	; 0x1c00
 8003bd6:	687b      	ldr	r3, [r7, #4]
 8003bd8:	611a      	str	r2, [r3, #16]

  /* Get the Flash Wait State (Latency) configuration ------------------------*/
  *pFLatency = (uint32_t)(FLASH->ACR & FLASH_ACR_LATENCY);
 8003bda:	4b07      	ldr	r3, [pc, #28]	; (8003bf8 <HAL_RCC_GetClockConfig+0x60>)
 8003bdc:	681b      	ldr	r3, [r3, #0]
 8003bde:	f003 020f 	and.w	r2, r3, #15
 8003be2:	683b      	ldr	r3, [r7, #0]
 8003be4:	601a      	str	r2, [r3, #0]
}
 8003be6:	bf00      	nop
 8003be8:	370c      	adds	r7, #12
 8003bea:	46bd      	mov	sp, r7
 8003bec:	f85d 7b04 	ldr.w	r7, [sp], #4
 8003bf0:	4770      	bx	lr
 8003bf2:	bf00      	nop
 8003bf4:	40023800 	.word	0x40023800
 8003bf8:	40023c00 	.word	0x40023c00

08003bfc <HAL_RCCEx_PeriphCLKConfig>:
  *         the backup registers) are set to their reset values.
  *
  * @retval HAL status
  */
HAL_StatusTypeDef HAL_RCCEx_PeriphCLKConfig(RCC_PeriphCLKInitTypeDef  *PeriphClkInit)
{
 8003bfc:	b580      	push	{r7, lr}
 8003bfe:	b088      	sub	sp, #32
 8003c00:	af00      	add	r7, sp, #0
 8003c02:	6078      	str	r0, [r7, #4]
  uint32_t tickstart = 0;
 8003c04:	2300      	movs	r3, #0
 8003c06:	617b      	str	r3, [r7, #20]
  uint32_t tmpreg0 = 0;
 8003c08:	2300      	movs	r3, #0
 8003c0a:	613b      	str	r3, [r7, #16]
  uint32_t tmpreg1 = 0;
 8003c0c:	2300      	movs	r3, #0
 8003c0e:	60fb      	str	r3, [r7, #12]
  uint32_t plli2sused = 0;
 8003c10:	2300      	movs	r3, #0
 8003c12:	61fb      	str	r3, [r7, #28]
  uint32_t pllsaiused = 0;
 8003c14:	2300      	movs	r3, #0
 8003c16:	61bb      	str	r3, [r7, #24]

  /* Check the parameters */
  assert_param(IS_RCC_PERIPHCLOCK(PeriphClkInit->PeriphClockSelection));

  /*----------------------------------- I2S configuration ----------------------------------*/
  if(((PeriphClkInit->PeriphClockSelection) & RCC_PERIPHCLK_I2S) == (RCC_PERIPHCLK_I2S))
 8003c18:	687b      	ldr	r3, [r7, #4]
 8003c1a:	681b      	ldr	r3, [r3, #0]
 8003c1c:	f003 0301 	and.w	r3, r3, #1
 8003c20:	2b00      	cmp	r3, #0
 8003c22:	d012      	beq.n	8003c4a <HAL_RCCEx_PeriphCLKConfig+0x4e>
  {
    /* Check the parameters */
    assert_param(IS_RCC_I2SCLKSOURCE(PeriphClkInit->I2sClockSelection));

    /* Configure I2S Clock source */
    __HAL_RCC_I2S_CONFIG(PeriphClkInit->I2sClockSelection);
 8003c24:	4b69      	ldr	r3, [pc, #420]	; (8003dcc <HAL_RCCEx_PeriphCLKConfig+0x1d0>)
 8003c26:	689b      	ldr	r3, [r3, #8]
 8003c28:	4a68      	ldr	r2, [pc, #416]	; (8003dcc <HAL_RCCEx_PeriphCLKConfig+0x1d0>)
 8003c2a:	f423 0300 	bic.w	r3, r3, #8388608	; 0x800000
 8003c2e:	6093      	str	r3, [r2, #8]
 8003c30:	4b66      	ldr	r3, [pc, #408]	; (8003dcc <HAL_RCCEx_PeriphCLKConfig+0x1d0>)
 8003c32:	689a      	ldr	r2, [r3, #8]
 8003c34:	687b      	ldr	r3, [r7, #4]
 8003c36:	6b5b      	ldr	r3, [r3, #52]	; 0x34
 8003c38:	4964      	ldr	r1, [pc, #400]	; (8003dcc <HAL_RCCEx_PeriphCLKConfig+0x1d0>)
 8003c3a:	4313      	orrs	r3, r2
 8003c3c:	608b      	str	r3, [r1, #8]

    /* Enable the PLLI2S when it's used as clock source for I2S */
    if(PeriphClkInit->I2sClockSelection == RCC_I2SCLKSOURCE_PLLI2S)
 8003c3e:	687b      	ldr	r3, [r7, #4]
 8003c40:	6b5b      	ldr	r3, [r3, #52]	; 0x34
 8003c42:	2b00      	cmp	r3, #0
 8003c44:	d101      	bne.n	8003c4a <HAL_RCCEx_PeriphCLKConfig+0x4e>
    {
      plli2sused = 1;
 8003c46:	2301      	movs	r3, #1
 8003c48:	61fb      	str	r3, [r7, #28]
    }
  }

  /*------------------------------------ SAI1 configuration --------------------------------------*/
  if(((PeriphClkInit->PeriphClockSelection) & RCC_PERIPHCLK_SAI1) == (RCC_PERIPHCLK_SAI1))
 8003c4a:	687b      	ldr	r3, [r7, #4]
 8003c4c:	681b      	ldr	r3, [r3, #0]
 8003c4e:	f403 2300 	and.w	r3, r3, #524288	; 0x80000
 8003c52:	2b00      	cmp	r3, #0
 8003c54:	d017      	beq.n	8003c86 <HAL_RCCEx_PeriphCLKConfig+0x8a>
  {
    /* Check the parameters */
    assert_param(IS_RCC_SAI1CLKSOURCE(PeriphClkInit->Sai1ClockSelection));

    /* Configure SAI1 Clock source */
    __HAL_RCC_SAI1_CONFIG(PeriphClkInit->Sai1ClockSelection);
 8003c56:	4b5d      	ldr	r3, [pc, #372]	; (8003dcc <HAL_RCCEx_PeriphCLKConfig+0x1d0>)
 8003c58:	f8d3 308c 	ldr.w	r3, [r3, #140]	; 0x8c
 8003c5c:	f423 1240 	bic.w	r2, r3, #3145728	; 0x300000
 8003c60:	687b      	ldr	r3, [r7, #4]
 8003c62:	6bdb      	ldr	r3, [r3, #60]	; 0x3c
 8003c64:	4959      	ldr	r1, [pc, #356]	; (8003dcc <HAL_RCCEx_PeriphCLKConfig+0x1d0>)
 8003c66:	4313      	orrs	r3, r2
 8003c68:	f8c1 308c 	str.w	r3, [r1, #140]	; 0x8c
    /* Enable the PLLI2S when it's used as clock source for SAI */
    if(PeriphClkInit->Sai1ClockSelection == RCC_SAI1CLKSOURCE_PLLI2S)
 8003c6c:	687b      	ldr	r3, [r7, #4]
 8003c6e:	6bdb      	ldr	r3, [r3, #60]	; 0x3c
 8003c70:	f5b3 1f80 	cmp.w	r3, #1048576	; 0x100000
 8003c74:	d101      	bne.n	8003c7a <HAL_RCCEx_PeriphCLKConfig+0x7e>
    {
      plli2sused = 1;
 8003c76:	2301      	movs	r3, #1
 8003c78:	61fb      	str	r3, [r7, #28]
    }
    /* Enable the PLLSAI when it's used as clock source for SAI */
    if(PeriphClkInit->Sai1ClockSelection == RCC_SAI1CLKSOURCE_PLLSAI)
 8003c7a:	687b      	ldr	r3, [r7, #4]
 8003c7c:	6bdb      	ldr	r3, [r3, #60]	; 0x3c
 8003c7e:	2b00      	cmp	r3, #0
 8003c80:	d101      	bne.n	8003c86 <HAL_RCCEx_PeriphCLKConfig+0x8a>
    {
      pllsaiused = 1;
 8003c82:	2301      	movs	r3, #1
 8003c84:	61bb      	str	r3, [r7, #24]
    }
  }

  /*------------------------------------ SAI2 configuration --------------------------------------*/
  if(((PeriphClkInit->PeriphClockSelection) & RCC_PERIPHCLK_SAI2) == (RCC_PERIPHCLK_SAI2))
 8003c86:	687b      	ldr	r3, [r7, #4]
 8003c88:	681b      	ldr	r3, [r3, #0]
 8003c8a:	f403 1380 	and.w	r3, r3, #1048576	; 0x100000
 8003c8e:	2b00      	cmp	r3, #0
 8003c90:	d017      	beq.n	8003cc2 <HAL_RCCEx_PeriphCLKConfig+0xc6>
  {
    /* Check the parameters */
    assert_param(IS_RCC_SAI2CLKSOURCE(PeriphClkInit->Sai2ClockSelection));

    /* Configure SAI2 Clock source */
    __HAL_RCC_SAI2_CONFIG(PeriphClkInit->Sai2ClockSelection);
 8003c92:	4b4e      	ldr	r3, [pc, #312]	; (8003dcc <HAL_RCCEx_PeriphCLKConfig+0x1d0>)
 8003c94:	f8d3 308c 	ldr.w	r3, [r3, #140]	; 0x8c
 8003c98:	f423 0240 	bic.w	r2, r3, #12582912	; 0xc00000
 8003c9c:	687b      	ldr	r3, [r7, #4]
 8003c9e:	6c1b      	ldr	r3, [r3, #64]	; 0x40
 8003ca0:	494a      	ldr	r1, [pc, #296]	; (8003dcc <HAL_RCCEx_PeriphCLKConfig+0x1d0>)
 8003ca2:	4313      	orrs	r3, r2
 8003ca4:	f8c1 308c 	str.w	r3, [r1, #140]	; 0x8c

    /* Enable the PLLI2S when it's used as clock source for SAI */
    if(PeriphClkInit->Sai2ClockSelection == RCC_SAI2CLKSOURCE_PLLI2S)
 8003ca8:	687b      	ldr	r3, [r7, #4]
 8003caa:	6c1b      	ldr	r3, [r3, #64]	; 0x40
 8003cac:	f5b3 0f80 	cmp.w	r3, #4194304	; 0x400000
 8003cb0:	d101      	bne.n	8003cb6 <HAL_RCCEx_PeriphCLKConfig+0xba>
    {
      plli2sused = 1;
 8003cb2:	2301      	movs	r3, #1
 8003cb4:	61fb      	str	r3, [r7, #28]
    }
    /* Enable the PLLSAI when it's used as clock source for SAI */
    if(PeriphClkInit->Sai2ClockSelection == RCC_SAI2CLKSOURCE_PLLSAI)
 8003cb6:	687b      	ldr	r3, [r7, #4]
 8003cb8:	6c1b      	ldr	r3, [r3, #64]	; 0x40
 8003cba:	2b00      	cmp	r3, #0
 8003cbc:	d101      	bne.n	8003cc2 <HAL_RCCEx_PeriphCLKConfig+0xc6>
    {
      pllsaiused = 1;
 8003cbe:	2301      	movs	r3, #1
 8003cc0:	61bb      	str	r3, [r7, #24]
    }
  }

  /*-------------------------------------- SPDIF-RX Configuration -----------------------------------*/
  if(((PeriphClkInit->PeriphClockSelection) & RCC_PERIPHCLK_SPDIFRX) == RCC_PERIPHCLK_SPDIFRX)
 8003cc2:	687b      	ldr	r3, [r7, #4]
 8003cc4:	681b      	ldr	r3, [r3, #0]
 8003cc6:	f003 7380 	and.w	r3, r3, #16777216	; 0x1000000
 8003cca:	2b00      	cmp	r3, #0
 8003ccc:	d001      	beq.n	8003cd2 <HAL_RCCEx_PeriphCLKConfig+0xd6>
  {
      plli2sused = 1;
 8003cce:	2301      	movs	r3, #1
 8003cd0:	61fb      	str	r3, [r7, #28]
  }

  /*------------------------------------ RTC configuration --------------------------------------*/
  if(((PeriphClkInit->PeriphClockSelection) & RCC_PERIPHCLK_RTC) == (RCC_PERIPHCLK_RTC))
 8003cd2:	687b      	ldr	r3, [r7, #4]
 8003cd4:	681b      	ldr	r3, [r3, #0]
 8003cd6:	f003 0320 	and.w	r3, r3, #32
 8003cda:	2b00      	cmp	r3, #0
 8003cdc:	f000 808b 	beq.w	8003df6 <HAL_RCCEx_PeriphCLKConfig+0x1fa>
  {
    /* Check for RTC Parameters used to output RTCCLK */
    assert_param(IS_RCC_RTCCLKSOURCE(PeriphClkInit->RTCClockSelection));

    /* Enable Power Clock*/
    __HAL_RCC_PWR_CLK_ENABLE();
 8003ce0:	4b3a      	ldr	r3, [pc, #232]	; (8003dcc <HAL_RCCEx_PeriphCLKConfig+0x1d0>)
 8003ce2:	6c1b      	ldr	r3, [r3, #64]	; 0x40
 8003ce4:	4a39      	ldr	r2, [pc, #228]	; (8003dcc <HAL_RCCEx_PeriphCLKConfig+0x1d0>)
 8003ce6:	f043 5380 	orr.w	r3, r3, #268435456	; 0x10000000
 8003cea:	6413      	str	r3, [r2, #64]	; 0x40
 8003cec:	4b37      	ldr	r3, [pc, #220]	; (8003dcc <HAL_RCCEx_PeriphCLKConfig+0x1d0>)
 8003cee:	6c1b      	ldr	r3, [r3, #64]	; 0x40
 8003cf0:	f003 5380 	and.w	r3, r3, #268435456	; 0x10000000
 8003cf4:	60bb      	str	r3, [r7, #8]
 8003cf6:	68bb      	ldr	r3, [r7, #8]

    /* Enable write access to Backup domain */
    PWR->CR1 |= PWR_CR1_DBP;
 8003cf8:	4b35      	ldr	r3, [pc, #212]	; (8003dd0 <HAL_RCCEx_PeriphCLKConfig+0x1d4>)
 8003cfa:	681b      	ldr	r3, [r3, #0]
 8003cfc:	4a34      	ldr	r2, [pc, #208]	; (8003dd0 <HAL_RCCEx_PeriphCLKConfig+0x1d4>)
 8003cfe:	f443 7380 	orr.w	r3, r3, #256	; 0x100
 8003d02:	6013      	str	r3, [r2, #0]

    /* Get Start Tick*/
    tickstart = HAL_GetTick();
 8003d04:	f7fe f9b0 	bl	8002068 <HAL_GetTick>
 8003d08:	6178      	str	r0, [r7, #20]

    /* Wait for Backup domain Write protection disable */
    while((PWR->CR1 & PWR_CR1_DBP) == RESET)
 8003d0a:	e008      	b.n	8003d1e <HAL_RCCEx_PeriphCLKConfig+0x122>
    {
      if((HAL_GetTick() - tickstart) > RCC_DBP_TIMEOUT_VALUE)
 8003d0c:	f7fe f9ac 	bl	8002068 <HAL_GetTick>
 8003d10:	4602      	mov	r2, r0
 8003d12:	697b      	ldr	r3, [r7, #20]
 8003d14:	1ad3      	subs	r3, r2, r3
 8003d16:	2b64      	cmp	r3, #100	; 0x64
 8003d18:	d901      	bls.n	8003d1e <HAL_RCCEx_PeriphCLKConfig+0x122>
      {
        return HAL_TIMEOUT;
 8003d1a:	2303      	movs	r3, #3
 8003d1c:	e38f      	b.n	800443e <HAL_RCCEx_PeriphCLKConfig+0x842>
    while((PWR->CR1 & PWR_CR1_DBP) == RESET)
 8003d1e:	4b2c      	ldr	r3, [pc, #176]	; (8003dd0 <HAL_RCCEx_PeriphCLKConfig+0x1d4>)
 8003d20:	681b      	ldr	r3, [r3, #0]
 8003d22:	f403 7380 	and.w	r3, r3, #256	; 0x100
 8003d26:	2b00      	cmp	r3, #0
 8003d28:	d0f0      	beq.n	8003d0c <HAL_RCCEx_PeriphCLKConfig+0x110>
      }
    }

    /* Reset the Backup domain only if the RTC Clock source selection is modified */
    tmpreg0 = (RCC->BDCR & RCC_BDCR_RTCSEL);
 8003d2a:	4b28      	ldr	r3, [pc, #160]	; (8003dcc <HAL_RCCEx_PeriphCLKConfig+0x1d0>)
 8003d2c:	6f1b      	ldr	r3, [r3, #112]	; 0x70
 8003d2e:	f403 7340 	and.w	r3, r3, #768	; 0x300
 8003d32:	613b      	str	r3, [r7, #16]

    if((tmpreg0 != 0x00000000U) && (tmpreg0 != (PeriphClkInit->RTCClockSelection & RCC_BDCR_RTCSEL)))
 8003d34:	693b      	ldr	r3, [r7, #16]
 8003d36:	2b00      	cmp	r3, #0
 8003d38:	d035      	beq.n	8003da6 <HAL_RCCEx_PeriphCLKConfig+0x1aa>
 8003d3a:	687b      	ldr	r3, [r7, #4]
 8003d3c:	6b1b      	ldr	r3, [r3, #48]	; 0x30
 8003d3e:	f403 7340 	and.w	r3, r3, #768	; 0x300
 8003d42:	693a      	ldr	r2, [r7, #16]
 8003d44:	429a      	cmp	r2, r3
 8003d46:	d02e      	beq.n	8003da6 <HAL_RCCEx_PeriphCLKConfig+0x1aa>
    {
      /* Store the content of BDCR register before the reset of Backup Domain */
      tmpreg0 = (RCC->BDCR & ~(RCC_BDCR_RTCSEL));
 8003d48:	4b20      	ldr	r3, [pc, #128]	; (8003dcc <HAL_RCCEx_PeriphCLKConfig+0x1d0>)
 8003d4a:	6f1b      	ldr	r3, [r3, #112]	; 0x70
 8003d4c:	f423 7340 	bic.w	r3, r3, #768	; 0x300
 8003d50:	613b      	str	r3, [r7, #16]

      /* RTC Clock selection can be changed only if the Backup Domain is reset */
      __HAL_RCC_BACKUPRESET_FORCE();
 8003d52:	4b1e      	ldr	r3, [pc, #120]	; (8003dcc <HAL_RCCEx_PeriphCLKConfig+0x1d0>)
 8003d54:	6f1b      	ldr	r3, [r3, #112]	; 0x70
 8003d56:	4a1d      	ldr	r2, [pc, #116]	; (8003dcc <HAL_RCCEx_PeriphCLKConfig+0x1d0>)
 8003d58:	f443 3380 	orr.w	r3, r3, #65536	; 0x10000
 8003d5c:	6713      	str	r3, [r2, #112]	; 0x70
      __HAL_RCC_BACKUPRESET_RELEASE();
 8003d5e:	4b1b      	ldr	r3, [pc, #108]	; (8003dcc <HAL_RCCEx_PeriphCLKConfig+0x1d0>)
 8003d60:	6f1b      	ldr	r3, [r3, #112]	; 0x70
 8003d62:	4a1a      	ldr	r2, [pc, #104]	; (8003dcc <HAL_RCCEx_PeriphCLKConfig+0x1d0>)
 8003d64:	f423 3380 	bic.w	r3, r3, #65536	; 0x10000
 8003d68:	6713      	str	r3, [r2, #112]	; 0x70

      /* Restore the Content of BDCR register */
      RCC->BDCR = tmpreg0;
 8003d6a:	4a18      	ldr	r2, [pc, #96]	; (8003dcc <HAL_RCCEx_PeriphCLKConfig+0x1d0>)
 8003d6c:	693b      	ldr	r3, [r7, #16]
 8003d6e:	6713      	str	r3, [r2, #112]	; 0x70

      /* Wait for LSE reactivation if LSE was enable prior to Backup Domain reset */
      if (HAL_IS_BIT_SET(RCC->BDCR, RCC_BDCR_LSEON))
 8003d70:	4b16      	ldr	r3, [pc, #88]	; (8003dcc <HAL_RCCEx_PeriphCLKConfig+0x1d0>)
 8003d72:	6f1b      	ldr	r3, [r3, #112]	; 0x70
 8003d74:	f003 0301 	and.w	r3, r3, #1
 8003d78:	2b01      	cmp	r3, #1
 8003d7a:	d114      	bne.n	8003da6 <HAL_RCCEx_PeriphCLKConfig+0x1aa>
      {
        /* Get Start Tick*/
        tickstart = HAL_GetTick();
 8003d7c:	f7fe f974 	bl	8002068 <HAL_GetTick>
 8003d80:	6178      	str	r0, [r7, #20]

        /* Wait till LSE is ready */
        while(__HAL_RCC_GET_FLAG(RCC_FLAG_LSERDY) == RESET)
 8003d82:	e00a      	b.n	8003d9a <HAL_RCCEx_PeriphCLKConfig+0x19e>
        {
          if((HAL_GetTick() - tickstart ) > RCC_LSE_TIMEOUT_VALUE)
 8003d84:	f7fe f970 	bl	8002068 <HAL_GetTick>
 8003d88:	4602      	mov	r2, r0
 8003d8a:	697b      	ldr	r3, [r7, #20]
 8003d8c:	1ad3      	subs	r3, r2, r3
 8003d8e:	f241 3288 	movw	r2, #5000	; 0x1388
 8003d92:	4293      	cmp	r3, r2
 8003d94:	d901      	bls.n	8003d9a <HAL_RCCEx_PeriphCLKConfig+0x19e>
          {
            return HAL_TIMEOUT;
 8003d96:	2303      	movs	r3, #3
 8003d98:	e351      	b.n	800443e <HAL_RCCEx_PeriphCLKConfig+0x842>
        while(__HAL_RCC_GET_FLAG(RCC_FLAG_LSERDY) == RESET)
 8003d9a:	4b0c      	ldr	r3, [pc, #48]	; (8003dcc <HAL_RCCEx_PeriphCLKConfig+0x1d0>)
 8003d9c:	6f1b      	ldr	r3, [r3, #112]	; 0x70
 8003d9e:	f003 0302 	and.w	r3, r3, #2
 8003da2:	2b00      	cmp	r3, #0
 8003da4:	d0ee      	beq.n	8003d84 <HAL_RCCEx_PeriphCLKConfig+0x188>
          }
        }
      }
    }
    __HAL_RCC_RTC_CONFIG(PeriphClkInit->RTCClockSelection);
 8003da6:	687b      	ldr	r3, [r7, #4]
 8003da8:	6b1b      	ldr	r3, [r3, #48]	; 0x30
 8003daa:	f403 7340 	and.w	r3, r3, #768	; 0x300
 8003dae:	f5b3 7f40 	cmp.w	r3, #768	; 0x300
 8003db2:	d111      	bne.n	8003dd8 <HAL_RCCEx_PeriphCLKConfig+0x1dc>
 8003db4:	4b05      	ldr	r3, [pc, #20]	; (8003dcc <HAL_RCCEx_PeriphCLKConfig+0x1d0>)
 8003db6:	689b      	ldr	r3, [r3, #8]
 8003db8:	f423 12f8 	bic.w	r2, r3, #2031616	; 0x1f0000
 8003dbc:	687b      	ldr	r3, [r7, #4]
 8003dbe:	6b19      	ldr	r1, [r3, #48]	; 0x30
 8003dc0:	4b04      	ldr	r3, [pc, #16]	; (8003dd4 <HAL_RCCEx_PeriphCLKConfig+0x1d8>)
 8003dc2:	400b      	ands	r3, r1
 8003dc4:	4901      	ldr	r1, [pc, #4]	; (8003dcc <HAL_RCCEx_PeriphCLKConfig+0x1d0>)
 8003dc6:	4313      	orrs	r3, r2
 8003dc8:	608b      	str	r3, [r1, #8]
 8003dca:	e00b      	b.n	8003de4 <HAL_RCCEx_PeriphCLKConfig+0x1e8>
 8003dcc:	40023800 	.word	0x40023800
 8003dd0:	40007000 	.word	0x40007000
 8003dd4:	0ffffcff 	.word	0x0ffffcff
 8003dd8:	4bac      	ldr	r3, [pc, #688]	; (800408c <HAL_RCCEx_PeriphCLKConfig+0x490>)
 8003dda:	689b      	ldr	r3, [r3, #8]
 8003ddc:	4aab      	ldr	r2, [pc, #684]	; (800408c <HAL_RCCEx_PeriphCLKConfig+0x490>)
 8003dde:	f423 13f8 	bic.w	r3, r3, #2031616	; 0x1f0000
 8003de2:	6093      	str	r3, [r2, #8]
 8003de4:	4ba9      	ldr	r3, [pc, #676]	; (800408c <HAL_RCCEx_PeriphCLKConfig+0x490>)
 8003de6:	6f1a      	ldr	r2, [r3, #112]	; 0x70
 8003de8:	687b      	ldr	r3, [r7, #4]
 8003dea:	6b1b      	ldr	r3, [r3, #48]	; 0x30
 8003dec:	f3c3 030b 	ubfx	r3, r3, #0, #12
 8003df0:	49a6      	ldr	r1, [pc, #664]	; (800408c <HAL_RCCEx_PeriphCLKConfig+0x490>)
 8003df2:	4313      	orrs	r3, r2
 8003df4:	670b      	str	r3, [r1, #112]	; 0x70
  }

  /*------------------------------------ TIM configuration --------------------------------------*/
  if(((PeriphClkInit->PeriphClockSelection) & RCC_PERIPHCLK_TIM) == (RCC_PERIPHCLK_TIM))
 8003df6:	687b      	ldr	r3, [r7, #4]
 8003df8:	681b      	ldr	r3, [r3, #0]
 8003dfa:	f003 0310 	and.w	r3, r3, #16
 8003dfe:	2b00      	cmp	r3, #0
 8003e00:	d010      	beq.n	8003e24 <HAL_RCCEx_PeriphCLKConfig+0x228>
  {
    /* Check the parameters */
    assert_param(IS_RCC_TIMPRES(PeriphClkInit->TIMPresSelection));

    /* Configure Timer Prescaler */
    __HAL_RCC_TIMCLKPRESCALER(PeriphClkInit->TIMPresSelection);
 8003e02:	4ba2      	ldr	r3, [pc, #648]	; (800408c <HAL_RCCEx_PeriphCLKConfig+0x490>)
 8003e04:	f8d3 308c 	ldr.w	r3, [r3, #140]	; 0x8c
 8003e08:	4aa0      	ldr	r2, [pc, #640]	; (800408c <HAL_RCCEx_PeriphCLKConfig+0x490>)
 8003e0a:	f023 7380 	bic.w	r3, r3, #16777216	; 0x1000000
 8003e0e:	f8c2 308c 	str.w	r3, [r2, #140]	; 0x8c
 8003e12:	4b9e      	ldr	r3, [pc, #632]	; (800408c <HAL_RCCEx_PeriphCLKConfig+0x490>)
 8003e14:	f8d3 208c 	ldr.w	r2, [r3, #140]	; 0x8c
 8003e18:	687b      	ldr	r3, [r7, #4]
 8003e1a:	6b9b      	ldr	r3, [r3, #56]	; 0x38
 8003e1c:	499b      	ldr	r1, [pc, #620]	; (800408c <HAL_RCCEx_PeriphCLKConfig+0x490>)
 8003e1e:	4313      	orrs	r3, r2
 8003e20:	f8c1 308c 	str.w	r3, [r1, #140]	; 0x8c
  }

  /*-------------------------------------- I2C1 Configuration -----------------------------------*/
  if(((PeriphClkInit->PeriphClockSelection) & RCC_PERIPHCLK_I2C1) == RCC_PERIPHCLK_I2C1)
 8003e24:	687b      	ldr	r3, [r7, #4]
 8003e26:	681b      	ldr	r3, [r3, #0]
 8003e28:	f403 4380 	and.w	r3, r3, #16384	; 0x4000
 8003e2c:	2b00      	cmp	r3, #0
 8003e2e:	d00a      	beq.n	8003e46 <HAL_RCCEx_PeriphCLKConfig+0x24a>
  {
    /* Check the parameters */
    assert_param(IS_RCC_I2C1CLKSOURCE(PeriphClkInit->I2c1ClockSelection));

    /* Configure the I2C1 clock source */
    __HAL_RCC_I2C1_CONFIG(PeriphClkInit->I2c1ClockSelection);
 8003e30:	4b96      	ldr	r3, [pc, #600]	; (800408c <HAL_RCCEx_PeriphCLKConfig+0x490>)
 8003e32:	f8d3 3090 	ldr.w	r3, [r3, #144]	; 0x90
 8003e36:	f423 3240 	bic.w	r2, r3, #196608	; 0x30000
 8003e3a:	687b      	ldr	r3, [r7, #4]
 8003e3c:	6e5b      	ldr	r3, [r3, #100]	; 0x64
 8003e3e:	4993      	ldr	r1, [pc, #588]	; (800408c <HAL_RCCEx_PeriphCLKConfig+0x490>)
 8003e40:	4313      	orrs	r3, r2
 8003e42:	f8c1 3090 	str.w	r3, [r1, #144]	; 0x90
  }

  /*-------------------------------------- I2C2 Configuration -----------------------------------*/
  if(((PeriphClkInit->PeriphClockSelection) & RCC_PERIPHCLK_I2C2) == RCC_PERIPHCLK_I2C2)
 8003e46:	687b      	ldr	r3, [r7, #4]
 8003e48:	681b      	ldr	r3, [r3, #0]
 8003e4a:	f403 4300 	and.w	r3, r3, #32768	; 0x8000
 8003e4e:	2b00      	cmp	r3, #0
 8003e50:	d00a      	beq.n	8003e68 <HAL_RCCEx_PeriphCLKConfig+0x26c>
  {
    /* Check the parameters */
    assert_param(IS_RCC_I2C2CLKSOURCE(PeriphClkInit->I2c2ClockSelection));

    /* Configure the I2C2 clock source */
    __HAL_RCC_I2C2_CONFIG(PeriphClkInit->I2c2ClockSelection);
 8003e52:	4b8e      	ldr	r3, [pc, #568]	; (800408c <HAL_RCCEx_PeriphCLKConfig+0x490>)
 8003e54:	f8d3 3090 	ldr.w	r3, [r3, #144]	; 0x90
 8003e58:	f423 2240 	bic.w	r2, r3, #786432	; 0xc0000
 8003e5c:	687b      	ldr	r3, [r7, #4]
 8003e5e:	6e9b      	ldr	r3, [r3, #104]	; 0x68
 8003e60:	498a      	ldr	r1, [pc, #552]	; (800408c <HAL_RCCEx_PeriphCLKConfig+0x490>)
 8003e62:	4313      	orrs	r3, r2
 8003e64:	f8c1 3090 	str.w	r3, [r1, #144]	; 0x90
  }

  /*-------------------------------------- I2C3 Configuration -----------------------------------*/
  if(((PeriphClkInit->PeriphClockSelection) & RCC_PERIPHCLK_I2C3) == RCC_PERIPHCLK_I2C3)
 8003e68:	687b      	ldr	r3, [r7, #4]
 8003e6a:	681b      	ldr	r3, [r3, #0]
 8003e6c:	f403 3380 	and.w	r3, r3, #65536	; 0x10000
 8003e70:	2b00      	cmp	r3, #0
 8003e72:	d00a      	beq.n	8003e8a <HAL_RCCEx_PeriphCLKConfig+0x28e>
  {
    /* Check the parameters */
    assert_param(IS_RCC_I2C3CLKSOURCE(PeriphClkInit->I2c3ClockSelection));

    /* Configure the I2C3 clock source */
    __HAL_RCC_I2C3_CONFIG(PeriphClkInit->I2c3ClockSelection);
 8003e74:	4b85      	ldr	r3, [pc, #532]	; (800408c <HAL_RCCEx_PeriphCLKConfig+0x490>)
 8003e76:	f8d3 3090 	ldr.w	r3, [r3, #144]	; 0x90
 8003e7a:	f423 1240 	bic.w	r2, r3, #3145728	; 0x300000
 8003e7e:	687b      	ldr	r3, [r7, #4]
 8003e80:	6edb      	ldr	r3, [r3, #108]	; 0x6c
 8003e82:	4982      	ldr	r1, [pc, #520]	; (800408c <HAL_RCCEx_PeriphCLKConfig+0x490>)
 8003e84:	4313      	orrs	r3, r2
 8003e86:	f8c1 3090 	str.w	r3, [r1, #144]	; 0x90
  }

  /*-------------------------------------- I2C4 Configuration -----------------------------------*/
  if(((PeriphClkInit->PeriphClockSelection) & RCC_PERIPHCLK_I2C4) == RCC_PERIPHCLK_I2C4)
 8003e8a:	687b      	ldr	r3, [r7, #4]
 8003e8c:	681b      	ldr	r3, [r3, #0]
 8003e8e:	f403 3300 	and.w	r3, r3, #131072	; 0x20000
 8003e92:	2b00      	cmp	r3, #0
 8003e94:	d00a      	beq.n	8003eac <HAL_RCCEx_PeriphCLKConfig+0x2b0>
  {
    /* Check the parameters */
    assert_param(IS_RCC_I2C4CLKSOURCE(PeriphClkInit->I2c4ClockSelection));

    /* Configure the I2C4 clock source */
    __HAL_RCC_I2C4_CONFIG(PeriphClkInit->I2c4ClockSelection);
 8003e96:	4b7d      	ldr	r3, [pc, #500]	; (800408c <HAL_RCCEx_PeriphCLKConfig+0x490>)
 8003e98:	f8d3 3090 	ldr.w	r3, [r3, #144]	; 0x90
 8003e9c:	f423 0240 	bic.w	r2, r3, #12582912	; 0xc00000
 8003ea0:	687b      	ldr	r3, [r7, #4]
 8003ea2:	6f1b      	ldr	r3, [r3, #112]	; 0x70
 8003ea4:	4979      	ldr	r1, [pc, #484]	; (800408c <HAL_RCCEx_PeriphCLKConfig+0x490>)
 8003ea6:	4313      	orrs	r3, r2
 8003ea8:	f8c1 3090 	str.w	r3, [r1, #144]	; 0x90
  }

  /*-------------------------------------- USART1 Configuration -----------------------------------*/
  if(((PeriphClkInit->PeriphClockSelection) & RCC_PERIPHCLK_USART1) == RCC_PERIPHCLK_USART1)
 8003eac:	687b      	ldr	r3, [r7, #4]
 8003eae:	681b      	ldr	r3, [r3, #0]
 8003eb0:	f003 0340 	and.w	r3, r3, #64	; 0x40
 8003eb4:	2b00      	cmp	r3, #0
 8003eb6:	d00a      	beq.n	8003ece <HAL_RCCEx_PeriphCLKConfig+0x2d2>
  {
    /* Check the parameters */
    assert_param(IS_RCC_USART1CLKSOURCE(PeriphClkInit->Usart1ClockSelection));

    /* Configure the USART1 clock source */
    __HAL_RCC_USART1_CONFIG(PeriphClkInit->Usart1ClockSelection);
 8003eb8:	4b74      	ldr	r3, [pc, #464]	; (800408c <HAL_RCCEx_PeriphCLKConfig+0x490>)
 8003eba:	f8d3 3090 	ldr.w	r3, [r3, #144]	; 0x90
 8003ebe:	f023 0203 	bic.w	r2, r3, #3
 8003ec2:	687b      	ldr	r3, [r7, #4]
 8003ec4:	6c5b      	ldr	r3, [r3, #68]	; 0x44
 8003ec6:	4971      	ldr	r1, [pc, #452]	; (800408c <HAL_RCCEx_PeriphCLKConfig+0x490>)
 8003ec8:	4313      	orrs	r3, r2
 8003eca:	f8c1 3090 	str.w	r3, [r1, #144]	; 0x90
  }

  /*-------------------------------------- USART2 Configuration -----------------------------------*/
  if(((PeriphClkInit->PeriphClockSelection) & RCC_PERIPHCLK_USART2) == RCC_PERIPHCLK_USART2)
 8003ece:	687b      	ldr	r3, [r7, #4]
 8003ed0:	681b      	ldr	r3, [r3, #0]
 8003ed2:	f003 0380 	and.w	r3, r3, #128	; 0x80
 8003ed6:	2b00      	cmp	r3, #0
 8003ed8:	d00a      	beq.n	8003ef0 <HAL_RCCEx_PeriphCLKConfig+0x2f4>
  {
    /* Check the parameters */
    assert_param(IS_RCC_USART2CLKSOURCE(PeriphClkInit->Usart2ClockSelection));

    /* Configure the USART2 clock source */
    __HAL_RCC_USART2_CONFIG(PeriphClkInit->Usart2ClockSelection);
 8003eda:	4b6c      	ldr	r3, [pc, #432]	; (800408c <HAL_RCCEx_PeriphCLKConfig+0x490>)
 8003edc:	f8d3 3090 	ldr.w	r3, [r3, #144]	; 0x90
 8003ee0:	f023 020c 	bic.w	r2, r3, #12
 8003ee4:	687b      	ldr	r3, [r7, #4]
 8003ee6:	6c9b      	ldr	r3, [r3, #72]	; 0x48
 8003ee8:	4968      	ldr	r1, [pc, #416]	; (800408c <HAL_RCCEx_PeriphCLKConfig+0x490>)
 8003eea:	4313      	orrs	r3, r2
 8003eec:	f8c1 3090 	str.w	r3, [r1, #144]	; 0x90
  }

  /*-------------------------------------- USART3 Configuration -----------------------------------*/
  if(((PeriphClkInit->PeriphClockSelection) & RCC_PERIPHCLK_USART3) == RCC_PERIPHCLK_USART3)
 8003ef0:	687b      	ldr	r3, [r7, #4]
 8003ef2:	681b      	ldr	r3, [r3, #0]
 8003ef4:	f403 7380 	and.w	r3, r3, #256	; 0x100
 8003ef8:	2b00      	cmp	r3, #0
 8003efa:	d00a      	beq.n	8003f12 <HAL_RCCEx_PeriphCLKConfig+0x316>
  {
    /* Check the parameters */
    assert_param(IS_RCC_USART3CLKSOURCE(PeriphClkInit->Usart3ClockSelection));

    /* Configure the USART3 clock source */
    __HAL_RCC_USART3_CONFIG(PeriphClkInit->Usart3ClockSelection);
 8003efc:	4b63      	ldr	r3, [pc, #396]	; (800408c <HAL_RCCEx_PeriphCLKConfig+0x490>)
 8003efe:	f8d3 3090 	ldr.w	r3, [r3, #144]	; 0x90
 8003f02:	f023 0230 	bic.w	r2, r3, #48	; 0x30
 8003f06:	687b      	ldr	r3, [r7, #4]
 8003f08:	6cdb      	ldr	r3, [r3, #76]	; 0x4c
 8003f0a:	4960      	ldr	r1, [pc, #384]	; (800408c <HAL_RCCEx_PeriphCLKConfig+0x490>)
 8003f0c:	4313      	orrs	r3, r2
 8003f0e:	f8c1 3090 	str.w	r3, [r1, #144]	; 0x90
  }

  /*-------------------------------------- UART4 Configuration -----------------------------------*/
  if(((PeriphClkInit->PeriphClockSelection) & RCC_PERIPHCLK_UART4) == RCC_PERIPHCLK_UART4)
 8003f12:	687b      	ldr	r3, [r7, #4]
 8003f14:	681b      	ldr	r3, [r3, #0]
 8003f16:	f403 7300 	and.w	r3, r3, #512	; 0x200
 8003f1a:	2b00      	cmp	r3, #0
 8003f1c:	d00a      	beq.n	8003f34 <HAL_RCCEx_PeriphCLKConfig+0x338>
  {
    /* Check the parameters */
    assert_param(IS_RCC_UART4CLKSOURCE(PeriphClkInit->Uart4ClockSelection));

    /* Configure the UART4 clock source */
    __HAL_RCC_UART4_CONFIG(PeriphClkInit->Uart4ClockSelection);
 8003f1e:	4b5b      	ldr	r3, [pc, #364]	; (800408c <HAL_RCCEx_PeriphCLKConfig+0x490>)
 8003f20:	f8d3 3090 	ldr.w	r3, [r3, #144]	; 0x90
 8003f24:	f023 02c0 	bic.w	r2, r3, #192	; 0xc0
 8003f28:	687b      	ldr	r3, [r7, #4]
 8003f2a:	6d1b      	ldr	r3, [r3, #80]	; 0x50
 8003f2c:	4957      	ldr	r1, [pc, #348]	; (800408c <HAL_RCCEx_PeriphCLKConfig+0x490>)
 8003f2e:	4313      	orrs	r3, r2
 8003f30:	f8c1 3090 	str.w	r3, [r1, #144]	; 0x90
  }

  /*-------------------------------------- UART5 Configuration -----------------------------------*/
  if(((PeriphClkInit->PeriphClockSelection) & RCC_PERIPHCLK_UART5) == RCC_PERIPHCLK_UART5)
 8003f34:	687b      	ldr	r3, [r7, #4]
 8003f36:	681b      	ldr	r3, [r3, #0]
 8003f38:	f403 6380 	and.w	r3, r3, #1024	; 0x400
 8003f3c:	2b00      	cmp	r3, #0
 8003f3e:	d00a      	beq.n	8003f56 <HAL_RCCEx_PeriphCLKConfig+0x35a>
  {
    /* Check the parameters */
    assert_param(IS_RCC_UART5CLKSOURCE(PeriphClkInit->Uart5ClockSelection));

    /* Configure the UART5 clock source */
    __HAL_RCC_UART5_CONFIG(PeriphClkInit->Uart5ClockSelection);
 8003f40:	4b52      	ldr	r3, [pc, #328]	; (800408c <HAL_RCCEx_PeriphCLKConfig+0x490>)
 8003f42:	f8d3 3090 	ldr.w	r3, [r3, #144]	; 0x90
 8003f46:	f423 7240 	bic.w	r2, r3, #768	; 0x300
 8003f4a:	687b      	ldr	r3, [r7, #4]
 8003f4c:	6d5b      	ldr	r3, [r3, #84]	; 0x54
 8003f4e:	494f      	ldr	r1, [pc, #316]	; (800408c <HAL_RCCEx_PeriphCLKConfig+0x490>)
 8003f50:	4313      	orrs	r3, r2
 8003f52:	f8c1 3090 	str.w	r3, [r1, #144]	; 0x90
  }

  /*-------------------------------------- USART6 Configuration -----------------------------------*/
  if(((PeriphClkInit->PeriphClockSelection) & RCC_PERIPHCLK_USART6) == RCC_PERIPHCLK_USART6)
 8003f56:	687b      	ldr	r3, [r7, #4]
 8003f58:	681b      	ldr	r3, [r3, #0]
 8003f5a:	f403 6300 	and.w	r3, r3, #2048	; 0x800
 8003f5e:	2b00      	cmp	r3, #0
 8003f60:	d00a      	beq.n	8003f78 <HAL_RCCEx_PeriphCLKConfig+0x37c>
  {
    /* Check the parameters */
    assert_param(IS_RCC_USART6CLKSOURCE(PeriphClkInit->Usart6ClockSelection));

    /* Configure the USART6 clock source */
    __HAL_RCC_USART6_CONFIG(PeriphClkInit->Usart6ClockSelection);
 8003f62:	4b4a      	ldr	r3, [pc, #296]	; (800408c <HAL_RCCEx_PeriphCLKConfig+0x490>)
 8003f64:	f8d3 3090 	ldr.w	r3, [r3, #144]	; 0x90
 8003f68:	f423 6240 	bic.w	r2, r3, #3072	; 0xc00
 8003f6c:	687b      	ldr	r3, [r7, #4]
 8003f6e:	6d9b      	ldr	r3, [r3, #88]	; 0x58
 8003f70:	4946      	ldr	r1, [pc, #280]	; (800408c <HAL_RCCEx_PeriphCLKConfig+0x490>)
 8003f72:	4313      	orrs	r3, r2
 8003f74:	f8c1 3090 	str.w	r3, [r1, #144]	; 0x90
  }

  /*-------------------------------------- UART7 Configuration -----------------------------------*/
  if(((PeriphClkInit->PeriphClockSelection) & RCC_PERIPHCLK_UART7) == RCC_PERIPHCLK_UART7)
 8003f78:	687b      	ldr	r3, [r7, #4]
 8003f7a:	681b      	ldr	r3, [r3, #0]
 8003f7c:	f403 5380 	and.w	r3, r3, #4096	; 0x1000
 8003f80:	2b00      	cmp	r3, #0
 8003f82:	d00a      	beq.n	8003f9a <HAL_RCCEx_PeriphCLKConfig+0x39e>
  {
    /* Check the parameters */
    assert_param(IS_RCC_UART7CLKSOURCE(PeriphClkInit->Uart7ClockSelection));

    /* Configure the UART7 clock source */
    __HAL_RCC_UART7_CONFIG(PeriphClkInit->Uart7ClockSelection);
 8003f84:	4b41      	ldr	r3, [pc, #260]	; (800408c <HAL_RCCEx_PeriphCLKConfig+0x490>)
 8003f86:	f8d3 3090 	ldr.w	r3, [r3, #144]	; 0x90
 8003f8a:	f423 5240 	bic.w	r2, r3, #12288	; 0x3000
 8003f8e:	687b      	ldr	r3, [r7, #4]
 8003f90:	6ddb      	ldr	r3, [r3, #92]	; 0x5c
 8003f92:	493e      	ldr	r1, [pc, #248]	; (800408c <HAL_RCCEx_PeriphCLKConfig+0x490>)
 8003f94:	4313      	orrs	r3, r2
 8003f96:	f8c1 3090 	str.w	r3, [r1, #144]	; 0x90
  }

  /*-------------------------------------- UART8 Configuration -----------------------------------*/
  if(((PeriphClkInit->PeriphClockSelection) & RCC_PERIPHCLK_UART8) == RCC_PERIPHCLK_UART8)
 8003f9a:	687b      	ldr	r3, [r7, #4]
 8003f9c:	681b      	ldr	r3, [r3, #0]
 8003f9e:	f403 5300 	and.w	r3, r3, #8192	; 0x2000
 8003fa2:	2b00      	cmp	r3, #0
 8003fa4:	d00a      	beq.n	8003fbc <HAL_RCCEx_PeriphCLKConfig+0x3c0>
  {
    /* Check the parameters */
    assert_param(IS_RCC_UART8CLKSOURCE(PeriphClkInit->Uart8ClockSelection));

    /* Configure the UART8 clock source */
    __HAL_RCC_UART8_CONFIG(PeriphClkInit->Uart8ClockSelection);
 8003fa6:	4b39      	ldr	r3, [pc, #228]	; (800408c <HAL_RCCEx_PeriphCLKConfig+0x490>)
 8003fa8:	f8d3 3090 	ldr.w	r3, [r3, #144]	; 0x90
 8003fac:	f423 4240 	bic.w	r2, r3, #49152	; 0xc000
 8003fb0:	687b      	ldr	r3, [r7, #4]
 8003fb2:	6e1b      	ldr	r3, [r3, #96]	; 0x60
 8003fb4:	4935      	ldr	r1, [pc, #212]	; (800408c <HAL_RCCEx_PeriphCLKConfig+0x490>)
 8003fb6:	4313      	orrs	r3, r2
 8003fb8:	f8c1 3090 	str.w	r3, [r1, #144]	; 0x90
  }

  /*--------------------------------------- CEC Configuration -----------------------------------*/
  if(((PeriphClkInit->PeriphClockSelection) & RCC_PERIPHCLK_CEC) == RCC_PERIPHCLK_CEC)
 8003fbc:	687b      	ldr	r3, [r7, #4]
 8003fbe:	681b      	ldr	r3, [r3, #0]
 8003fc0:	f403 0380 	and.w	r3, r3, #4194304	; 0x400000
 8003fc4:	2b00      	cmp	r3, #0
 8003fc6:	d00a      	beq.n	8003fde <HAL_RCCEx_PeriphCLKConfig+0x3e2>
  {
    /* Check the parameters */
    assert_param(IS_RCC_CECCLKSOURCE(PeriphClkInit->CecClockSelection));

    /* Configure the CEC clock source */
    __HAL_RCC_CEC_CONFIG(PeriphClkInit->CecClockSelection);
 8003fc8:	4b30      	ldr	r3, [pc, #192]	; (800408c <HAL_RCCEx_PeriphCLKConfig+0x490>)
 8003fca:	f8d3 3090 	ldr.w	r3, [r3, #144]	; 0x90
 8003fce:	f023 6280 	bic.w	r2, r3, #67108864	; 0x4000000
 8003fd2:	687b      	ldr	r3, [r7, #4]
 8003fd4:	6f9b      	ldr	r3, [r3, #120]	; 0x78
 8003fd6:	492d      	ldr	r1, [pc, #180]	; (800408c <HAL_RCCEx_PeriphCLKConfig+0x490>)
 8003fd8:	4313      	orrs	r3, r2
 8003fda:	f8c1 3090 	str.w	r3, [r1, #144]	; 0x90
  }

  /*-------------------------------------- CK48 Configuration -----------------------------------*/
  if(((PeriphClkInit->PeriphClockSelection) & RCC_PERIPHCLK_CLK48) == RCC_PERIPHCLK_CLK48)
 8003fde:	687b      	ldr	r3, [r7, #4]
 8003fe0:	681b      	ldr	r3, [r3, #0]
 8003fe2:	f403 1300 	and.w	r3, r3, #2097152	; 0x200000
 8003fe6:	2b00      	cmp	r3, #0
 8003fe8:	d011      	beq.n	800400e <HAL_RCCEx_PeriphCLKConfig+0x412>
  {
    /* Check the parameters */
    assert_param(IS_RCC_CLK48SOURCE(PeriphClkInit->Clk48ClockSelection));

    /* Configure the CLK48 source */
    __HAL_RCC_CLK48_CONFIG(PeriphClkInit->Clk48ClockSelection);
 8003fea:	4b28      	ldr	r3, [pc, #160]	; (800408c <HAL_RCCEx_PeriphCLKConfig+0x490>)
 8003fec:	f8d3 3090 	ldr.w	r3, [r3, #144]	; 0x90
 8003ff0:	f023 6200 	bic.w	r2, r3, #134217728	; 0x8000000
 8003ff4:	687b      	ldr	r3, [r7, #4]
 8003ff6:	6fdb      	ldr	r3, [r3, #124]	; 0x7c
 8003ff8:	4924      	ldr	r1, [pc, #144]	; (800408c <HAL_RCCEx_PeriphCLKConfig+0x490>)
 8003ffa:	4313      	orrs	r3, r2
 8003ffc:	f8c1 3090 	str.w	r3, [r1, #144]	; 0x90

    /* Enable the PLLSAI when it's used as clock source for CK48 */
    if(PeriphClkInit->Clk48ClockSelection == RCC_CLK48SOURCE_PLLSAIP)
 8004000:	687b      	ldr	r3, [r7, #4]
 8004002:	6fdb      	ldr	r3, [r3, #124]	; 0x7c
 8004004:	f1b3 6f00 	cmp.w	r3, #134217728	; 0x8000000
 8004008:	d101      	bne.n	800400e <HAL_RCCEx_PeriphCLKConfig+0x412>
    {
      pllsaiused = 1;
 800400a:	2301      	movs	r3, #1
 800400c:	61bb      	str	r3, [r7, #24]
    }
  }

  /*-------------------------------------- LTDC Configuration -----------------------------------*/
#if defined(STM32F746xx) || defined(STM32F756xx) || defined (STM32F767xx) || defined (STM32F769xx) || defined (STM32F777xx) || defined (STM32F779xx) || defined (STM32F750xx)
  if(((PeriphClkInit->PeriphClockSelection) & RCC_PERIPHCLK_LTDC) == RCC_PERIPHCLK_LTDC)
 800400e:	687b      	ldr	r3, [r7, #4]
 8004010:	681b      	ldr	r3, [r3, #0]
 8004012:	f003 0308 	and.w	r3, r3, #8
 8004016:	2b00      	cmp	r3, #0
 8004018:	d001      	beq.n	800401e <HAL_RCCEx_PeriphCLKConfig+0x422>
  {
    pllsaiused = 1;
 800401a:	2301      	movs	r3, #1
 800401c:	61bb      	str	r3, [r7, #24]
  }
#endif /* STM32F746xx || STM32F756xx || STM32F767xx || STM32F769xx || STM32F777xx || STM32F779xx || STM32F750xx */

  /*-------------------------------------- LPTIM1 Configuration -----------------------------------*/
  if(((PeriphClkInit->PeriphClockSelection) & RCC_PERIPHCLK_LPTIM1) == RCC_PERIPHCLK_LPTIM1)
 800401e:	687b      	ldr	r3, [r7, #4]
 8004020:	681b      	ldr	r3, [r3, #0]
 8004022:	f403 2380 	and.w	r3, r3, #262144	; 0x40000
 8004026:	2b00      	cmp	r3, #0
 8004028:	d00a      	beq.n	8004040 <HAL_RCCEx_PeriphCLKConfig+0x444>
  {
    /* Check the parameters */
    assert_param(IS_RCC_LPTIM1CLK(PeriphClkInit->Lptim1ClockSelection));

    /* Configure the LTPIM1 clock source */
    __HAL_RCC_LPTIM1_CONFIG(PeriphClkInit->Lptim1ClockSelection);
 800402a:	4b18      	ldr	r3, [pc, #96]	; (800408c <HAL_RCCEx_PeriphCLKConfig+0x490>)
 800402c:	f8d3 3090 	ldr.w	r3, [r3, #144]	; 0x90
 8004030:	f023 7240 	bic.w	r2, r3, #50331648	; 0x3000000
 8004034:	687b      	ldr	r3, [r7, #4]
 8004036:	6f5b      	ldr	r3, [r3, #116]	; 0x74
 8004038:	4914      	ldr	r1, [pc, #80]	; (800408c <HAL_RCCEx_PeriphCLKConfig+0x490>)
 800403a:	4313      	orrs	r3, r2
 800403c:	f8c1 3090 	str.w	r3, [r1, #144]	; 0x90
   }

  /*------------------------------------- SDMMC1 Configuration ------------------------------------*/
  if(((PeriphClkInit->PeriphClockSelection) & RCC_PERIPHCLK_SDMMC1) == RCC_PERIPHCLK_SDMMC1)
 8004040:	687b      	ldr	r3, [r7, #4]
 8004042:	681b      	ldr	r3, [r3, #0]
 8004044:	f403 0300 	and.w	r3, r3, #8388608	; 0x800000
 8004048:	2b00      	cmp	r3, #0
 800404a:	d00b      	beq.n	8004064 <HAL_RCCEx_PeriphCLKConfig+0x468>
  {
    /* Check the parameters */
    assert_param(IS_RCC_SDMMC1CLKSOURCE(PeriphClkInit->Sdmmc1ClockSelection));

    /* Configure the SDMMC1 clock source */
    __HAL_RCC_SDMMC1_CONFIG(PeriphClkInit->Sdmmc1ClockSelection);
 800404c:	4b0f      	ldr	r3, [pc, #60]	; (800408c <HAL_RCCEx_PeriphCLKConfig+0x490>)
 800404e:	f8d3 3090 	ldr.w	r3, [r3, #144]	; 0x90
 8004052:	f023 5280 	bic.w	r2, r3, #268435456	; 0x10000000
 8004056:	687b      	ldr	r3, [r7, #4]
 8004058:	f8d3 3080 	ldr.w	r3, [r3, #128]	; 0x80
 800405c:	490b      	ldr	r1, [pc, #44]	; (800408c <HAL_RCCEx_PeriphCLKConfig+0x490>)
 800405e:	4313      	orrs	r3, r2
 8004060:	f8c1 3090 	str.w	r3, [r1, #144]	; 0x90
  }

#if defined (STM32F765xx) || defined (STM32F767xx) || defined (STM32F769xx) || defined (STM32F777xx) || defined (STM32F779xx)
  /*------------------------------------- SDMMC2 Configuration ------------------------------------*/
  if(((PeriphClkInit->PeriphClockSelection) & RCC_PERIPHCLK_SDMMC2) == RCC_PERIPHCLK_SDMMC2)
 8004064:	687b      	ldr	r3, [r7, #4]
 8004066:	681b      	ldr	r3, [r3, #0]
 8004068:	f003 6380 	and.w	r3, r3, #67108864	; 0x4000000
 800406c:	2b00      	cmp	r3, #0
 800406e:	d00f      	beq.n	8004090 <HAL_RCCEx_PeriphCLKConfig+0x494>
  {
    /* Check the parameters */
    assert_param(IS_RCC_SDMMC2CLKSOURCE(PeriphClkInit->Sdmmc2ClockSelection));

    /* Configure the SDMMC2 clock source */
    __HAL_RCC_SDMMC2_CONFIG(PeriphClkInit->Sdmmc2ClockSelection);
 8004070:	4b06      	ldr	r3, [pc, #24]	; (800408c <HAL_RCCEx_PeriphCLKConfig+0x490>)
 8004072:	f8d3 3090 	ldr.w	r3, [r3, #144]	; 0x90
 8004076:	f023 5200 	bic.w	r2, r3, #536870912	; 0x20000000
 800407a:	687b      	ldr	r3, [r7, #4]
 800407c:	f8d3 3084 	ldr.w	r3, [r3, #132]	; 0x84
 8004080:	4902      	ldr	r1, [pc, #8]	; (800408c <HAL_RCCEx_PeriphCLKConfig+0x490>)
 8004082:	4313      	orrs	r3, r2
 8004084:	f8c1 3090 	str.w	r3, [r1, #144]	; 0x90
 8004088:	e002      	b.n	8004090 <HAL_RCCEx_PeriphCLKConfig+0x494>
 800408a:	bf00      	nop
 800408c:	40023800 	.word	0x40023800
  }

  /*------------------------------------- DFSDM1 Configuration -------------------------------------*/
  if(((PeriphClkInit->PeriphClockSelection) & RCC_PERIPHCLK_DFSDM1) == RCC_PERIPHCLK_DFSDM1)
 8004090:	687b      	ldr	r3, [r7, #4]
 8004092:	681b      	ldr	r3, [r3, #0]
 8004094:	f003 6300 	and.w	r3, r3, #134217728	; 0x8000000
 8004098:	2b00      	cmp	r3, #0
 800409a:	d00b      	beq.n	80040b4 <HAL_RCCEx_PeriphCLKConfig+0x4b8>
  {
    /* Check the parameters */
    assert_param(IS_RCC_DFSDM1CLKSOURCE(PeriphClkInit->Dfsdm1ClockSelection));

    /* Configure the DFSDM1 interface clock source */
    __HAL_RCC_DFSDM1_CONFIG(PeriphClkInit->Dfsdm1ClockSelection);
 800409c:	4b8a      	ldr	r3, [pc, #552]	; (80042c8 <HAL_RCCEx_PeriphCLKConfig+0x6cc>)
 800409e:	f8d3 308c 	ldr.w	r3, [r3, #140]	; 0x8c
 80040a2:	f023 7200 	bic.w	r2, r3, #33554432	; 0x2000000
 80040a6:	687b      	ldr	r3, [r7, #4]
 80040a8:	f8d3 3088 	ldr.w	r3, [r3, #136]	; 0x88
 80040ac:	4986      	ldr	r1, [pc, #536]	; (80042c8 <HAL_RCCEx_PeriphCLKConfig+0x6cc>)
 80040ae:	4313      	orrs	r3, r2
 80040b0:	f8c1 308c 	str.w	r3, [r1, #140]	; 0x8c
  }

  /*------------------------------------- DFSDM AUDIO Configuration -------------------------------------*/
  if(((PeriphClkInit->PeriphClockSelection) & RCC_PERIPHCLK_DFSDM1_AUDIO) == RCC_PERIPHCLK_DFSDM1_AUDIO)
 80040b4:	687b      	ldr	r3, [r7, #4]
 80040b6:	681b      	ldr	r3, [r3, #0]
 80040b8:	f003 5380 	and.w	r3, r3, #268435456	; 0x10000000
 80040bc:	2b00      	cmp	r3, #0
 80040be:	d00b      	beq.n	80040d8 <HAL_RCCEx_PeriphCLKConfig+0x4dc>
  {
    /* Check the parameters */
    assert_param(IS_RCC_DFSDM1AUDIOCLKSOURCE(PeriphClkInit->Dfsdm1AudioClockSelection));

    /* Configure the DFSDM interface clock source */
    __HAL_RCC_DFSDM1AUDIO_CONFIG(PeriphClkInit->Dfsdm1AudioClockSelection);
 80040c0:	4b81      	ldr	r3, [pc, #516]	; (80042c8 <HAL_RCCEx_PeriphCLKConfig+0x6cc>)
 80040c2:	f8d3 308c 	ldr.w	r3, [r3, #140]	; 0x8c
 80040c6:	f023 6280 	bic.w	r2, r3, #67108864	; 0x4000000
 80040ca:	687b      	ldr	r3, [r7, #4]
 80040cc:	f8d3 308c 	ldr.w	r3, [r3, #140]	; 0x8c
 80040d0:	497d      	ldr	r1, [pc, #500]	; (80042c8 <HAL_RCCEx_PeriphCLKConfig+0x6cc>)
 80040d2:	4313      	orrs	r3, r2
 80040d4:	f8c1 308c 	str.w	r3, [r1, #140]	; 0x8c
  }
#endif /* STM32F767xx || STM32F769xx || STM32F777xx || STM32F779xx */

  /*-------------------------------------- PLLI2S Configuration ---------------------------------*/
  /* PLLI2S is configured when a peripheral will use it as source clock : SAI1, SAI2, I2S or SPDIF-RX */
  if((plli2sused == 1) || ((PeriphClkInit->PeriphClockSelection & RCC_PERIPHCLK_PLLI2S) == RCC_PERIPHCLK_PLLI2S))
 80040d8:	69fb      	ldr	r3, [r7, #28]
 80040da:	2b01      	cmp	r3, #1
 80040dc:	d006      	beq.n	80040ec <HAL_RCCEx_PeriphCLKConfig+0x4f0>
 80040de:	687b      	ldr	r3, [r7, #4]
 80040e0:	681b      	ldr	r3, [r3, #0]
 80040e2:	f003 7300 	and.w	r3, r3, #33554432	; 0x2000000
 80040e6:	2b00      	cmp	r3, #0
 80040e8:	f000 80d6 	beq.w	8004298 <HAL_RCCEx_PeriphCLKConfig+0x69c>
  {
    /* Disable the PLLI2S */
    __HAL_RCC_PLLI2S_DISABLE();
 80040ec:	4b76      	ldr	r3, [pc, #472]	; (80042c8 <HAL_RCCEx_PeriphCLKConfig+0x6cc>)
 80040ee:	681b      	ldr	r3, [r3, #0]
 80040f0:	4a75      	ldr	r2, [pc, #468]	; (80042c8 <HAL_RCCEx_PeriphCLKConfig+0x6cc>)
 80040f2:	f023 6380 	bic.w	r3, r3, #67108864	; 0x4000000
 80040f6:	6013      	str	r3, [r2, #0]

    /* Get Start Tick*/
    tickstart = HAL_GetTick();
 80040f8:	f7fd ffb6 	bl	8002068 <HAL_GetTick>
 80040fc:	6178      	str	r0, [r7, #20]

    /* Wait till PLLI2S is disabled */
    while(__HAL_RCC_GET_FLAG(RCC_FLAG_PLLI2SRDY)  != RESET)
 80040fe:	e008      	b.n	8004112 <HAL_RCCEx_PeriphCLKConfig+0x516>
    {
      if((HAL_GetTick() - tickstart) > PLLI2S_TIMEOUT_VALUE)
 8004100:	f7fd ffb2 	bl	8002068 <HAL_GetTick>
 8004104:	4602      	mov	r2, r0
 8004106:	697b      	ldr	r3, [r7, #20]
 8004108:	1ad3      	subs	r3, r2, r3
 800410a:	2b64      	cmp	r3, #100	; 0x64
 800410c:	d901      	bls.n	8004112 <HAL_RCCEx_PeriphCLKConfig+0x516>
      {
        /* return in case of Timeout detected */
        return HAL_TIMEOUT;
 800410e:	2303      	movs	r3, #3
 8004110:	e195      	b.n	800443e <HAL_RCCEx_PeriphCLKConfig+0x842>
    while(__HAL_RCC_GET_FLAG(RCC_FLAG_PLLI2SRDY)  != RESET)
 8004112:	4b6d      	ldr	r3, [pc, #436]	; (80042c8 <HAL_RCCEx_PeriphCLKConfig+0x6cc>)
 8004114:	681b      	ldr	r3, [r3, #0]
 8004116:	f003 6300 	and.w	r3, r3, #134217728	; 0x8000000
 800411a:	2b00      	cmp	r3, #0
 800411c:	d1f0      	bne.n	8004100 <HAL_RCCEx_PeriphCLKConfig+0x504>

    /* check for common PLLI2S Parameters */
    assert_param(IS_RCC_PLLI2SN_VALUE(PeriphClkInit->PLLI2S.PLLI2SN));

    /*----------------- In Case of PLLI2S is selected as source clock for I2S -------------------*/
    if(((((PeriphClkInit->PeriphClockSelection) & RCC_PERIPHCLK_I2S) == RCC_PERIPHCLK_I2S) && (PeriphClkInit->I2sClockSelection == RCC_I2SCLKSOURCE_PLLI2S)))
 800411e:	687b      	ldr	r3, [r7, #4]
 8004120:	681b      	ldr	r3, [r3, #0]
 8004122:	f003 0301 	and.w	r3, r3, #1
 8004126:	2b00      	cmp	r3, #0
 8004128:	d021      	beq.n	800416e <HAL_RCCEx_PeriphCLKConfig+0x572>
 800412a:	687b      	ldr	r3, [r7, #4]
 800412c:	6b5b      	ldr	r3, [r3, #52]	; 0x34
 800412e:	2b00      	cmp	r3, #0
 8004130:	d11d      	bne.n	800416e <HAL_RCCEx_PeriphCLKConfig+0x572>
    {
      /* check for Parameters */
      assert_param(IS_RCC_PLLI2SR_VALUE(PeriphClkInit->PLLI2S.PLLI2SR));

      /* Read PLLI2SP and PLLI2SQ value from PLLI2SCFGR register (this value is not needed for I2S configuration) */
      tmpreg0 = ((RCC->PLLI2SCFGR & RCC_PLLI2SCFGR_PLLI2SP) >> RCC_PLLI2SCFGR_PLLI2SP_Pos);
 8004132:	4b65      	ldr	r3, [pc, #404]	; (80042c8 <HAL_RCCEx_PeriphCLKConfig+0x6cc>)
 8004134:	f8d3 3084 	ldr.w	r3, [r3, #132]	; 0x84
 8004138:	0c1b      	lsrs	r3, r3, #16
 800413a:	f003 0303 	and.w	r3, r3, #3
 800413e:	613b      	str	r3, [r7, #16]
      tmpreg1 = ((RCC->PLLI2SCFGR & RCC_PLLI2SCFGR_PLLI2SQ) >> RCC_PLLI2SCFGR_PLLI2SQ_Pos);
 8004140:	4b61      	ldr	r3, [pc, #388]	; (80042c8 <HAL_RCCEx_PeriphCLKConfig+0x6cc>)
 8004142:	f8d3 3084 	ldr.w	r3, [r3, #132]	; 0x84
 8004146:	0e1b      	lsrs	r3, r3, #24
 8004148:	f003 030f 	and.w	r3, r3, #15
 800414c:	60fb      	str	r3, [r7, #12]
      /* Configure the PLLI2S division factors */
      /* PLLI2S_VCO = f(VCO clock) = f(PLLI2S clock input) x (PLLI2SN/PLLM) */
      /* I2SCLK = f(PLLI2S clock output) = f(VCO clock) / PLLI2SR */
      __HAL_RCC_PLLI2S_CONFIG(PeriphClkInit->PLLI2S.PLLI2SN , tmpreg0, tmpreg1, PeriphClkInit->PLLI2S.PLLI2SR);
 800414e:	687b      	ldr	r3, [r7, #4]
 8004150:	685b      	ldr	r3, [r3, #4]
 8004152:	019a      	lsls	r2, r3, #6
 8004154:	693b      	ldr	r3, [r7, #16]
 8004156:	041b      	lsls	r3, r3, #16
 8004158:	431a      	orrs	r2, r3
 800415a:	68fb      	ldr	r3, [r7, #12]
 800415c:	061b      	lsls	r3, r3, #24
 800415e:	431a      	orrs	r2, r3
 8004160:	687b      	ldr	r3, [r7, #4]
 8004162:	689b      	ldr	r3, [r3, #8]
 8004164:	071b      	lsls	r3, r3, #28
 8004166:	4958      	ldr	r1, [pc, #352]	; (80042c8 <HAL_RCCEx_PeriphCLKConfig+0x6cc>)
 8004168:	4313      	orrs	r3, r2
 800416a:	f8c1 3084 	str.w	r3, [r1, #132]	; 0x84
    }

    /*----------------- In Case of PLLI2S is selected as source clock for SAI -------------------*/
    if(((((PeriphClkInit->PeriphClockSelection) & RCC_PERIPHCLK_SAI1) == RCC_PERIPHCLK_SAI1) && (PeriphClkInit->Sai1ClockSelection == RCC_SAI1CLKSOURCE_PLLI2S)) ||
 800416e:	687b      	ldr	r3, [r7, #4]
 8004170:	681b      	ldr	r3, [r3, #0]
 8004172:	f403 2300 	and.w	r3, r3, #524288	; 0x80000
 8004176:	2b00      	cmp	r3, #0
 8004178:	d004      	beq.n	8004184 <HAL_RCCEx_PeriphCLKConfig+0x588>
 800417a:	687b      	ldr	r3, [r7, #4]
 800417c:	6bdb      	ldr	r3, [r3, #60]	; 0x3c
 800417e:	f5b3 1f80 	cmp.w	r3, #1048576	; 0x100000
 8004182:	d00a      	beq.n	800419a <HAL_RCCEx_PeriphCLKConfig+0x59e>
       ((((PeriphClkInit->PeriphClockSelection) & RCC_PERIPHCLK_SAI2) == RCC_PERIPHCLK_SAI2) && (PeriphClkInit->Sai2ClockSelection == RCC_SAI2CLKSOURCE_PLLI2S)))
 8004184:	687b      	ldr	r3, [r7, #4]
 8004186:	681b      	ldr	r3, [r3, #0]
 8004188:	f403 1380 	and.w	r3, r3, #1048576	; 0x100000
    if(((((PeriphClkInit->PeriphClockSelection) & RCC_PERIPHCLK_SAI1) == RCC_PERIPHCLK_SAI1) && (PeriphClkInit->Sai1ClockSelection == RCC_SAI1CLKSOURCE_PLLI2S)) ||
 800418c:	2b00      	cmp	r3, #0
 800418e:	d02e      	beq.n	80041ee <HAL_RCCEx_PeriphCLKConfig+0x5f2>
       ((((PeriphClkInit->PeriphClockSelection) & RCC_PERIPHCLK_SAI2) == RCC_PERIPHCLK_SAI2) && (PeriphClkInit->Sai2ClockSelection == RCC_SAI2CLKSOURCE_PLLI2S)))
 8004190:	687b      	ldr	r3, [r7, #4]
 8004192:	6c1b      	ldr	r3, [r3, #64]	; 0x40
 8004194:	f5b3 0f80 	cmp.w	r3, #4194304	; 0x400000
 8004198:	d129      	bne.n	80041ee <HAL_RCCEx_PeriphCLKConfig+0x5f2>
      assert_param(IS_RCC_PLLI2SQ_VALUE(PeriphClkInit->PLLI2S.PLLI2SQ));
      /* Check for PLLI2S/DIVQ parameters */
      assert_param(IS_RCC_PLLI2S_DIVQ_VALUE(PeriphClkInit->PLLI2SDivQ));

      /* Read PLLI2SP and PLLI2SR values from PLLI2SCFGR register (this value is not needed for SAI configuration) */
      tmpreg0 = ((RCC->PLLI2SCFGR & RCC_PLLI2SCFGR_PLLI2SP) >> RCC_PLLI2SCFGR_PLLI2SP_Pos);
 800419a:	4b4b      	ldr	r3, [pc, #300]	; (80042c8 <HAL_RCCEx_PeriphCLKConfig+0x6cc>)
 800419c:	f8d3 3084 	ldr.w	r3, [r3, #132]	; 0x84
 80041a0:	0c1b      	lsrs	r3, r3, #16
 80041a2:	f003 0303 	and.w	r3, r3, #3
 80041a6:	613b      	str	r3, [r7, #16]
      tmpreg1 = ((RCC->PLLI2SCFGR & RCC_PLLI2SCFGR_PLLI2SR) >> RCC_PLLI2SCFGR_PLLI2SR_Pos);
 80041a8:	4b47      	ldr	r3, [pc, #284]	; (80042c8 <HAL_RCCEx_PeriphCLKConfig+0x6cc>)
 80041aa:	f8d3 3084 	ldr.w	r3, [r3, #132]	; 0x84
 80041ae:	0f1b      	lsrs	r3, r3, #28
 80041b0:	f003 0307 	and.w	r3, r3, #7
 80041b4:	60fb      	str	r3, [r7, #12]
      /* Configure the PLLI2S division factors */
      /* PLLI2S_VCO Input  = PLL_SOURCE/PLLM */
      /* PLLI2S_VCO Output = PLLI2S_VCO Input * PLLI2SN */
      /* SAI_CLK(first level) = PLLI2S_VCO Output/PLLI2SQ */
      __HAL_RCC_PLLI2S_CONFIG(PeriphClkInit->PLLI2S.PLLI2SN, tmpreg0, PeriphClkInit->PLLI2S.PLLI2SQ, tmpreg1);
 80041b6:	687b      	ldr	r3, [r7, #4]
 80041b8:	685b      	ldr	r3, [r3, #4]
 80041ba:	019a      	lsls	r2, r3, #6
 80041bc:	693b      	ldr	r3, [r7, #16]
 80041be:	041b      	lsls	r3, r3, #16
 80041c0:	431a      	orrs	r2, r3
 80041c2:	687b      	ldr	r3, [r7, #4]
 80041c4:	68db      	ldr	r3, [r3, #12]
 80041c6:	061b      	lsls	r3, r3, #24
 80041c8:	431a      	orrs	r2, r3
 80041ca:	68fb      	ldr	r3, [r7, #12]
 80041cc:	071b      	lsls	r3, r3, #28
 80041ce:	493e      	ldr	r1, [pc, #248]	; (80042c8 <HAL_RCCEx_PeriphCLKConfig+0x6cc>)
 80041d0:	4313      	orrs	r3, r2
 80041d2:	f8c1 3084 	str.w	r3, [r1, #132]	; 0x84

      /* SAI_CLK_x = SAI_CLK(first level)/PLLI2SDIVQ */
      __HAL_RCC_PLLI2S_PLLSAICLKDIVQ_CONFIG(PeriphClkInit->PLLI2SDivQ);
 80041d6:	4b3c      	ldr	r3, [pc, #240]	; (80042c8 <HAL_RCCEx_PeriphCLKConfig+0x6cc>)
 80041d8:	f8d3 308c 	ldr.w	r3, [r3, #140]	; 0x8c
 80041dc:	f023 021f 	bic.w	r2, r3, #31
 80041e0:	687b      	ldr	r3, [r7, #4]
 80041e2:	6a5b      	ldr	r3, [r3, #36]	; 0x24
 80041e4:	3b01      	subs	r3, #1
 80041e6:	4938      	ldr	r1, [pc, #224]	; (80042c8 <HAL_RCCEx_PeriphCLKConfig+0x6cc>)
 80041e8:	4313      	orrs	r3, r2
 80041ea:	f8c1 308c 	str.w	r3, [r1, #140]	; 0x8c
    }

    /*----------------- In Case of PLLI2S is selected as source clock for SPDIF-RX -------------------*/
    if(((PeriphClkInit->PeriphClockSelection) & RCC_PERIPHCLK_SPDIFRX) == RCC_PERIPHCLK_SPDIFRX)
 80041ee:	687b      	ldr	r3, [r7, #4]
 80041f0:	681b      	ldr	r3, [r3, #0]
 80041f2:	f003 7380 	and.w	r3, r3, #16777216	; 0x1000000
 80041f6:	2b00      	cmp	r3, #0
 80041f8:	d01d      	beq.n	8004236 <HAL_RCCEx_PeriphCLKConfig+0x63a>
    {
      /* check for Parameters */
      assert_param(IS_RCC_PLLI2SP_VALUE(PeriphClkInit->PLLI2S.PLLI2SP));

     /* Read PLLI2SR value from PLLI2SCFGR register (this value is not needed for SPDIF-RX configuration) */
      tmpreg0 = ((RCC->PLLI2SCFGR & RCC_PLLI2SCFGR_PLLI2SQ) >> RCC_PLLI2SCFGR_PLLI2SQ_Pos);
 80041fa:	4b33      	ldr	r3, [pc, #204]	; (80042c8 <HAL_RCCEx_PeriphCLKConfig+0x6cc>)
 80041fc:	f8d3 3084 	ldr.w	r3, [r3, #132]	; 0x84
 8004200:	0e1b      	lsrs	r3, r3, #24
 8004202:	f003 030f 	and.w	r3, r3, #15
 8004206:	613b      	str	r3, [r7, #16]
      tmpreg1 = ((RCC->PLLI2SCFGR & RCC_PLLI2SCFGR_PLLI2SR) >> RCC_PLLI2SCFGR_PLLI2SR_Pos);
 8004208:	4b2f      	ldr	r3, [pc, #188]	; (80042c8 <HAL_RCCEx_PeriphCLKConfig+0x6cc>)
 800420a:	f8d3 3084 	ldr.w	r3, [r3, #132]	; 0x84
 800420e:	0f1b      	lsrs	r3, r3, #28
 8004210:	f003 0307 	and.w	r3, r3, #7
 8004214:	60fb      	str	r3, [r7, #12]
      /* Configure the PLLI2S division factors */
      /* PLLI2S_VCO = f(VCO clock) = f(PLLI2S clock input) x (PLLI2SN/PLLM) */
      /* SPDIFCLK = f(PLLI2S clock output) = f(VCO clock) / PLLI2SP */
      __HAL_RCC_PLLI2S_CONFIG(PeriphClkInit->PLLI2S.PLLI2SN , PeriphClkInit->PLLI2S.PLLI2SP, tmpreg0, tmpreg1);
 8004216:	687b      	ldr	r3, [r7, #4]
 8004218:	685b      	ldr	r3, [r3, #4]
 800421a:	019a      	lsls	r2, r3, #6
 800421c:	687b      	ldr	r3, [r7, #4]
 800421e:	691b      	ldr	r3, [r3, #16]
 8004220:	041b      	lsls	r3, r3, #16
 8004222:	431a      	orrs	r2, r3
 8004224:	693b      	ldr	r3, [r7, #16]
 8004226:	061b      	lsls	r3, r3, #24
 8004228:	431a      	orrs	r2, r3
 800422a:	68fb      	ldr	r3, [r7, #12]
 800422c:	071b      	lsls	r3, r3, #28
 800422e:	4926      	ldr	r1, [pc, #152]	; (80042c8 <HAL_RCCEx_PeriphCLKConfig+0x6cc>)
 8004230:	4313      	orrs	r3, r2
 8004232:	f8c1 3084 	str.w	r3, [r1, #132]	; 0x84
    }

    /*----------------- In Case of PLLI2S is just selected  -----------------*/
    if((PeriphClkInit->PeriphClockSelection & RCC_PERIPHCLK_PLLI2S) == RCC_PERIPHCLK_PLLI2S)
 8004236:	687b      	ldr	r3, [r7, #4]
 8004238:	681b      	ldr	r3, [r3, #0]
 800423a:	f003 7300 	and.w	r3, r3, #33554432	; 0x2000000
 800423e:	2b00      	cmp	r3, #0
 8004240:	d011      	beq.n	8004266 <HAL_RCCEx_PeriphCLKConfig+0x66a>
      assert_param(IS_RCC_PLLI2SQ_VALUE(PeriphClkInit->PLLI2S.PLLI2SQ));

      /* Configure the PLLI2S division factors */
      /* PLLI2S_VCO = f(VCO clock) = f(PLLI2S clock input) x (PLLI2SN/PLLI2SM) */
      /* SPDIFRXCLK = f(PLLI2S clock output) = f(VCO clock) / PLLI2SP */
      __HAL_RCC_PLLI2S_CONFIG(PeriphClkInit->PLLI2S.PLLI2SN , PeriphClkInit->PLLI2S.PLLI2SP, PeriphClkInit->PLLI2S.PLLI2SQ, PeriphClkInit->PLLI2S.PLLI2SR);
 8004242:	687b      	ldr	r3, [r7, #4]
 8004244:	685b      	ldr	r3, [r3, #4]
 8004246:	019a      	lsls	r2, r3, #6
 8004248:	687b      	ldr	r3, [r7, #4]
 800424a:	691b      	ldr	r3, [r3, #16]
 800424c:	041b      	lsls	r3, r3, #16
 800424e:	431a      	orrs	r2, r3
 8004250:	687b      	ldr	r3, [r7, #4]
 8004252:	68db      	ldr	r3, [r3, #12]
 8004254:	061b      	lsls	r3, r3, #24
 8004256:	431a      	orrs	r2, r3
 8004258:	687b      	ldr	r3, [r7, #4]
 800425a:	689b      	ldr	r3, [r3, #8]
 800425c:	071b      	lsls	r3, r3, #28
 800425e:	491a      	ldr	r1, [pc, #104]	; (80042c8 <HAL_RCCEx_PeriphCLKConfig+0x6cc>)
 8004260:	4313      	orrs	r3, r2
 8004262:	f8c1 3084 	str.w	r3, [r1, #132]	; 0x84
    }

    /* Enable the PLLI2S */
    __HAL_RCC_PLLI2S_ENABLE();
 8004266:	4b18      	ldr	r3, [pc, #96]	; (80042c8 <HAL_RCCEx_PeriphCLKConfig+0x6cc>)
 8004268:	681b      	ldr	r3, [r3, #0]
 800426a:	4a17      	ldr	r2, [pc, #92]	; (80042c8 <HAL_RCCEx_PeriphCLKConfig+0x6cc>)
 800426c:	f043 6380 	orr.w	r3, r3, #67108864	; 0x4000000
 8004270:	6013      	str	r3, [r2, #0]

    /* Get Start Tick*/
    tickstart = HAL_GetTick();
 8004272:	f7fd fef9 	bl	8002068 <HAL_GetTick>
 8004276:	6178      	str	r0, [r7, #20]

    /* Wait till PLLI2S is ready */
    while(__HAL_RCC_GET_FLAG(RCC_FLAG_PLLI2SRDY)  == RESET)
 8004278:	e008      	b.n	800428c <HAL_RCCEx_PeriphCLKConfig+0x690>
    {
      if((HAL_GetTick() - tickstart) > PLLI2S_TIMEOUT_VALUE)
 800427a:	f7fd fef5 	bl	8002068 <HAL_GetTick>
 800427e:	4602      	mov	r2, r0
 8004280:	697b      	ldr	r3, [r7, #20]
 8004282:	1ad3      	subs	r3, r2, r3
 8004284:	2b64      	cmp	r3, #100	; 0x64
 8004286:	d901      	bls.n	800428c <HAL_RCCEx_PeriphCLKConfig+0x690>
      {
        /* return in case of Timeout detected */
        return HAL_TIMEOUT;
 8004288:	2303      	movs	r3, #3
 800428a:	e0d8      	b.n	800443e <HAL_RCCEx_PeriphCLKConfig+0x842>
    while(__HAL_RCC_GET_FLAG(RCC_FLAG_PLLI2SRDY)  == RESET)
 800428c:	4b0e      	ldr	r3, [pc, #56]	; (80042c8 <HAL_RCCEx_PeriphCLKConfig+0x6cc>)
 800428e:	681b      	ldr	r3, [r3, #0]
 8004290:	f003 6300 	and.w	r3, r3, #134217728	; 0x8000000
 8004294:	2b00      	cmp	r3, #0
 8004296:	d0f0      	beq.n	800427a <HAL_RCCEx_PeriphCLKConfig+0x67e>
    }
  }

  /*-------------------------------------- PLLSAI Configuration ---------------------------------*/
  /* PLLSAI is configured when a peripheral will use it as source clock : SAI1, SAI2, LTDC or CK48 */
  if(pllsaiused == 1)
 8004298:	69bb      	ldr	r3, [r7, #24]
 800429a:	2b01      	cmp	r3, #1
 800429c:	f040 80ce 	bne.w	800443c <HAL_RCCEx_PeriphCLKConfig+0x840>
  {
    /* Disable PLLSAI Clock */
    __HAL_RCC_PLLSAI_DISABLE();
 80042a0:	4b09      	ldr	r3, [pc, #36]	; (80042c8 <HAL_RCCEx_PeriphCLKConfig+0x6cc>)
 80042a2:	681b      	ldr	r3, [r3, #0]
 80042a4:	4a08      	ldr	r2, [pc, #32]	; (80042c8 <HAL_RCCEx_PeriphCLKConfig+0x6cc>)
 80042a6:	f023 5380 	bic.w	r3, r3, #268435456	; 0x10000000
 80042aa:	6013      	str	r3, [r2, #0]

    /* Get Start Tick*/
    tickstart = HAL_GetTick();
 80042ac:	f7fd fedc 	bl	8002068 <HAL_GetTick>
 80042b0:	6178      	str	r0, [r7, #20]

    /* Wait till PLLSAI is disabled */
    while(__HAL_RCC_PLLSAI_GET_FLAG() != RESET)
 80042b2:	e00b      	b.n	80042cc <HAL_RCCEx_PeriphCLKConfig+0x6d0>
    {
      if((HAL_GetTick() - tickstart) > PLLSAI_TIMEOUT_VALUE)
 80042b4:	f7fd fed8 	bl	8002068 <HAL_GetTick>
 80042b8:	4602      	mov	r2, r0
 80042ba:	697b      	ldr	r3, [r7, #20]
 80042bc:	1ad3      	subs	r3, r2, r3
 80042be:	2b64      	cmp	r3, #100	; 0x64
 80042c0:	d904      	bls.n	80042cc <HAL_RCCEx_PeriphCLKConfig+0x6d0>
      {
        /* return in case of Timeout detected */
        return HAL_TIMEOUT;
 80042c2:	2303      	movs	r3, #3
 80042c4:	e0bb      	b.n	800443e <HAL_RCCEx_PeriphCLKConfig+0x842>
 80042c6:	bf00      	nop
 80042c8:	40023800 	.word	0x40023800
    while(__HAL_RCC_PLLSAI_GET_FLAG() != RESET)
 80042cc:	4b5e      	ldr	r3, [pc, #376]	; (8004448 <HAL_RCCEx_PeriphCLKConfig+0x84c>)
 80042ce:	681b      	ldr	r3, [r3, #0]
 80042d0:	f003 5300 	and.w	r3, r3, #536870912	; 0x20000000
 80042d4:	f1b3 5f00 	cmp.w	r3, #536870912	; 0x20000000
 80042d8:	d0ec      	beq.n	80042b4 <HAL_RCCEx_PeriphCLKConfig+0x6b8>

    /* Check the PLLSAI division factors */
    assert_param(IS_RCC_PLLSAIN_VALUE(PeriphClkInit->PLLSAI.PLLSAIN));

    /*----------------- In Case of PLLSAI is selected as source clock for SAI -------------------*/
    if(((((PeriphClkInit->PeriphClockSelection) & RCC_PERIPHCLK_SAI1) == RCC_PERIPHCLK_SAI1) && (PeriphClkInit->Sai1ClockSelection == RCC_SAI1CLKSOURCE_PLLSAI)) ||\
 80042da:	687b      	ldr	r3, [r7, #4]
 80042dc:	681b      	ldr	r3, [r3, #0]
 80042de:	f403 2300 	and.w	r3, r3, #524288	; 0x80000
 80042e2:	2b00      	cmp	r3, #0
 80042e4:	d003      	beq.n	80042ee <HAL_RCCEx_PeriphCLKConfig+0x6f2>
 80042e6:	687b      	ldr	r3, [r7, #4]
 80042e8:	6bdb      	ldr	r3, [r3, #60]	; 0x3c
 80042ea:	2b00      	cmp	r3, #0
 80042ec:	d009      	beq.n	8004302 <HAL_RCCEx_PeriphCLKConfig+0x706>
       ((((PeriphClkInit->PeriphClockSelection) & RCC_PERIPHCLK_SAI2) == RCC_PERIPHCLK_SAI2) && (PeriphClkInit->Sai2ClockSelection == RCC_SAI2CLKSOURCE_PLLSAI)))
 80042ee:	687b      	ldr	r3, [r7, #4]
 80042f0:	681b      	ldr	r3, [r3, #0]
 80042f2:	f403 1380 	and.w	r3, r3, #1048576	; 0x100000
    if(((((PeriphClkInit->PeriphClockSelection) & RCC_PERIPHCLK_SAI1) == RCC_PERIPHCLK_SAI1) && (PeriphClkInit->Sai1ClockSelection == RCC_SAI1CLKSOURCE_PLLSAI)) ||\
 80042f6:	2b00      	cmp	r3, #0
 80042f8:	d02e      	beq.n	8004358 <HAL_RCCEx_PeriphCLKConfig+0x75c>
       ((((PeriphClkInit->PeriphClockSelection) & RCC_PERIPHCLK_SAI2) == RCC_PERIPHCLK_SAI2) && (PeriphClkInit->Sai2ClockSelection == RCC_SAI2CLKSOURCE_PLLSAI)))
 80042fa:	687b      	ldr	r3, [r7, #4]
 80042fc:	6c1b      	ldr	r3, [r3, #64]	; 0x40
 80042fe:	2b00      	cmp	r3, #0
 8004300:	d12a      	bne.n	8004358 <HAL_RCCEx_PeriphCLKConfig+0x75c>
      assert_param(IS_RCC_PLLSAIQ_VALUE(PeriphClkInit->PLLSAI.PLLSAIQ));
      /* check for PLLSAI/DIVQ Parameter */
      assert_param(IS_RCC_PLLSAI_DIVQ_VALUE(PeriphClkInit->PLLSAIDivQ));

      /* Read PLLSAIP value from PLLSAICFGR register (this value is not needed for SAI configuration) */
      tmpreg0 = ((RCC->PLLSAICFGR & RCC_PLLSAICFGR_PLLSAIP) >> RCC_PLLSAICFGR_PLLSAIP_Pos);
 8004302:	4b51      	ldr	r3, [pc, #324]	; (8004448 <HAL_RCCEx_PeriphCLKConfig+0x84c>)
 8004304:	f8d3 3088 	ldr.w	r3, [r3, #136]	; 0x88
 8004308:	0c1b      	lsrs	r3, r3, #16
 800430a:	f003 0303 	and.w	r3, r3, #3
 800430e:	613b      	str	r3, [r7, #16]
      tmpreg1 = ((RCC->PLLSAICFGR & RCC_PLLI2SCFGR_PLLI2SR) >> RCC_PLLSAICFGR_PLLSAIR_Pos);
 8004310:	4b4d      	ldr	r3, [pc, #308]	; (8004448 <HAL_RCCEx_PeriphCLKConfig+0x84c>)
 8004312:	f8d3 3088 	ldr.w	r3, [r3, #136]	; 0x88
 8004316:	0f1b      	lsrs	r3, r3, #28
 8004318:	f003 0307 	and.w	r3, r3, #7
 800431c:	60fb      	str	r3, [r7, #12]
      /* PLLSAI_VCO Input  = PLL_SOURCE/PLLM */
      /* PLLSAI_VCO Output = PLLSAI_VCO Input * PLLSAIN */
      /* SAI_CLK(first level) = PLLSAI_VCO Output/PLLSAIQ */
      __HAL_RCC_PLLSAI_CONFIG(PeriphClkInit->PLLSAI.PLLSAIN , tmpreg0, PeriphClkInit->PLLSAI.PLLSAIQ, tmpreg1);
 800431e:	687b      	ldr	r3, [r7, #4]
 8004320:	695b      	ldr	r3, [r3, #20]
 8004322:	019a      	lsls	r2, r3, #6
 8004324:	693b      	ldr	r3, [r7, #16]
 8004326:	041b      	lsls	r3, r3, #16
 8004328:	431a      	orrs	r2, r3
 800432a:	687b      	ldr	r3, [r7, #4]
 800432c:	699b      	ldr	r3, [r3, #24]
 800432e:	061b      	lsls	r3, r3, #24
 8004330:	431a      	orrs	r2, r3
 8004332:	68fb      	ldr	r3, [r7, #12]
 8004334:	071b      	lsls	r3, r3, #28
 8004336:	4944      	ldr	r1, [pc, #272]	; (8004448 <HAL_RCCEx_PeriphCLKConfig+0x84c>)
 8004338:	4313      	orrs	r3, r2
 800433a:	f8c1 3088 	str.w	r3, [r1, #136]	; 0x88

      /* SAI_CLK_x = SAI_CLK(first level)/PLLSAIDIVQ */
      __HAL_RCC_PLLSAI_PLLSAICLKDIVQ_CONFIG(PeriphClkInit->PLLSAIDivQ);
 800433e:	4b42      	ldr	r3, [pc, #264]	; (8004448 <HAL_RCCEx_PeriphCLKConfig+0x84c>)
 8004340:	f8d3 308c 	ldr.w	r3, [r3, #140]	; 0x8c
 8004344:	f423 52f8 	bic.w	r2, r3, #7936	; 0x1f00
 8004348:	687b      	ldr	r3, [r7, #4]
 800434a:	6a9b      	ldr	r3, [r3, #40]	; 0x28
 800434c:	3b01      	subs	r3, #1
 800434e:	021b      	lsls	r3, r3, #8
 8004350:	493d      	ldr	r1, [pc, #244]	; (8004448 <HAL_RCCEx_PeriphCLKConfig+0x84c>)
 8004352:	4313      	orrs	r3, r2
 8004354:	f8c1 308c 	str.w	r3, [r1, #140]	; 0x8c
    }

    /*----------------- In Case of PLLSAI is selected as source clock for CLK48 -------------------*/
    /* In Case of PLLI2S is selected as source clock for CK48 */
    if((((PeriphClkInit->PeriphClockSelection) & RCC_PERIPHCLK_CLK48) == RCC_PERIPHCLK_CLK48) && (PeriphClkInit->Clk48ClockSelection == RCC_CLK48SOURCE_PLLSAIP))
 8004358:	687b      	ldr	r3, [r7, #4]
 800435a:	681b      	ldr	r3, [r3, #0]
 800435c:	f403 1300 	and.w	r3, r3, #2097152	; 0x200000
 8004360:	2b00      	cmp	r3, #0
 8004362:	d022      	beq.n	80043aa <HAL_RCCEx_PeriphCLKConfig+0x7ae>
 8004364:	687b      	ldr	r3, [r7, #4]
 8004366:	6fdb      	ldr	r3, [r3, #124]	; 0x7c
 8004368:	f1b3 6f00 	cmp.w	r3, #134217728	; 0x8000000
 800436c:	d11d      	bne.n	80043aa <HAL_RCCEx_PeriphCLKConfig+0x7ae>
    {
      /* check for Parameters */
      assert_param(IS_RCC_PLLSAIP_VALUE(PeriphClkInit->PLLSAI.PLLSAIP));
      /* Read PLLSAIQ and PLLSAIR value from PLLSAICFGR register (this value is not needed for CK48 configuration) */
      tmpreg0 = ((RCC->PLLSAICFGR & RCC_PLLSAICFGR_PLLSAIQ) >> RCC_PLLSAICFGR_PLLSAIQ_Pos);
 800436e:	4b36      	ldr	r3, [pc, #216]	; (8004448 <HAL_RCCEx_PeriphCLKConfig+0x84c>)
 8004370:	f8d3 3088 	ldr.w	r3, [r3, #136]	; 0x88
 8004374:	0e1b      	lsrs	r3, r3, #24
 8004376:	f003 030f 	and.w	r3, r3, #15
 800437a:	613b      	str	r3, [r7, #16]
      tmpreg1 = ((RCC->PLLSAICFGR & RCC_PLLSAICFGR_PLLSAIR) >> RCC_PLLSAICFGR_PLLSAIR_Pos);
 800437c:	4b32      	ldr	r3, [pc, #200]	; (8004448 <HAL_RCCEx_PeriphCLKConfig+0x84c>)
 800437e:	f8d3 3088 	ldr.w	r3, [r3, #136]	; 0x88
 8004382:	0f1b      	lsrs	r3, r3, #28
 8004384:	f003 0307 	and.w	r3, r3, #7
 8004388:	60fb      	str	r3, [r7, #12]

      /* Configure the PLLSAI division factors */
      /* PLLSAI_VCO = f(VCO clock) = f(PLLSAI clock input) x (PLLI2SN/PLLM) */
      /* 48CLK = f(PLLSAI clock output) = f(VCO clock) / PLLSAIP */
      __HAL_RCC_PLLSAI_CONFIG(PeriphClkInit->PLLSAI.PLLSAIN , PeriphClkInit->PLLSAI.PLLSAIP, tmpreg0, tmpreg1);
 800438a:	687b      	ldr	r3, [r7, #4]
 800438c:	695b      	ldr	r3, [r3, #20]
 800438e:	019a      	lsls	r2, r3, #6
 8004390:	687b      	ldr	r3, [r7, #4]
 8004392:	6a1b      	ldr	r3, [r3, #32]
 8004394:	041b      	lsls	r3, r3, #16
 8004396:	431a      	orrs	r2, r3
 8004398:	693b      	ldr	r3, [r7, #16]
 800439a:	061b      	lsls	r3, r3, #24
 800439c:	431a      	orrs	r2, r3
 800439e:	68fb      	ldr	r3, [r7, #12]
 80043a0:	071b      	lsls	r3, r3, #28
 80043a2:	4929      	ldr	r1, [pc, #164]	; (8004448 <HAL_RCCEx_PeriphCLKConfig+0x84c>)
 80043a4:	4313      	orrs	r3, r2
 80043a6:	f8c1 3088 	str.w	r3, [r1, #136]	; 0x88
    }

#if defined(STM32F746xx) || defined(STM32F756xx) || defined (STM32F767xx) || defined (STM32F769xx) || defined (STM32F777xx) || defined (STM32F779xx) || defined (STM32F750xx)
    /*---------------------------- LTDC configuration -------------------------------*/
    if(((PeriphClkInit->PeriphClockSelection) & RCC_PERIPHCLK_LTDC) == (RCC_PERIPHCLK_LTDC))
 80043aa:	687b      	ldr	r3, [r7, #4]
 80043ac:	681b      	ldr	r3, [r3, #0]
 80043ae:	f003 0308 	and.w	r3, r3, #8
 80043b2:	2b00      	cmp	r3, #0
 80043b4:	d028      	beq.n	8004408 <HAL_RCCEx_PeriphCLKConfig+0x80c>
    {
      assert_param(IS_RCC_PLLSAIR_VALUE(PeriphClkInit->PLLSAI.PLLSAIR));
      assert_param(IS_RCC_PLLSAI_DIVR_VALUE(PeriphClkInit->PLLSAIDivR));

      /* Read PLLSAIP and PLLSAIQ value from PLLSAICFGR register (these value are not needed for LTDC configuration) */
      tmpreg0 = ((RCC->PLLSAICFGR & RCC_PLLSAICFGR_PLLSAIQ) >> RCC_PLLSAICFGR_PLLSAIQ_Pos);
 80043b6:	4b24      	ldr	r3, [pc, #144]	; (8004448 <HAL_RCCEx_PeriphCLKConfig+0x84c>)
 80043b8:	f8d3 3088 	ldr.w	r3, [r3, #136]	; 0x88
 80043bc:	0e1b      	lsrs	r3, r3, #24
 80043be:	f003 030f 	and.w	r3, r3, #15
 80043c2:	613b      	str	r3, [r7, #16]
      tmpreg1 = ((RCC->PLLSAICFGR & RCC_PLLSAICFGR_PLLSAIP) >> RCC_PLLSAICFGR_PLLSAIP_Pos);
 80043c4:	4b20      	ldr	r3, [pc, #128]	; (8004448 <HAL_RCCEx_PeriphCLKConfig+0x84c>)
 80043c6:	f8d3 3088 	ldr.w	r3, [r3, #136]	; 0x88
 80043ca:	0c1b      	lsrs	r3, r3, #16
 80043cc:	f003 0303 	and.w	r3, r3, #3
 80043d0:	60fb      	str	r3, [r7, #12]

      /* PLLSAI_VCO Input  = PLL_SOURCE/PLLM */
      /* PLLSAI_VCO Output = PLLSAI_VCO Input * PLLSAIN */
      /* LTDC_CLK(first level) = PLLSAI_VCO Output/PLLSAIR */
      __HAL_RCC_PLLSAI_CONFIG(PeriphClkInit->PLLSAI.PLLSAIN , tmpreg1, tmpreg0, PeriphClkInit->PLLSAI.PLLSAIR);
 80043d2:	687b      	ldr	r3, [r7, #4]
 80043d4:	695b      	ldr	r3, [r3, #20]
 80043d6:	019a      	lsls	r2, r3, #6
 80043d8:	68fb      	ldr	r3, [r7, #12]
 80043da:	041b      	lsls	r3, r3, #16
 80043dc:	431a      	orrs	r2, r3
 80043de:	693b      	ldr	r3, [r7, #16]
 80043e0:	061b      	lsls	r3, r3, #24
 80043e2:	431a      	orrs	r2, r3
 80043e4:	687b      	ldr	r3, [r7, #4]
 80043e6:	69db      	ldr	r3, [r3, #28]
 80043e8:	071b      	lsls	r3, r3, #28
 80043ea:	4917      	ldr	r1, [pc, #92]	; (8004448 <HAL_RCCEx_PeriphCLKConfig+0x84c>)
 80043ec:	4313      	orrs	r3, r2
 80043ee:	f8c1 3088 	str.w	r3, [r1, #136]	; 0x88

      /* LTDC_CLK = LTDC_CLK(first level)/PLLSAIDIVR */
      __HAL_RCC_PLLSAI_PLLSAICLKDIVR_CONFIG(PeriphClkInit->PLLSAIDivR);
 80043f2:	4b15      	ldr	r3, [pc, #84]	; (8004448 <HAL_RCCEx_PeriphCLKConfig+0x84c>)
 80043f4:	f8d3 308c 	ldr.w	r3, [r3, #140]	; 0x8c
 80043f8:	f423 3240 	bic.w	r2, r3, #196608	; 0x30000
 80043fc:	687b      	ldr	r3, [r7, #4]
 80043fe:	6adb      	ldr	r3, [r3, #44]	; 0x2c
 8004400:	4911      	ldr	r1, [pc, #68]	; (8004448 <HAL_RCCEx_PeriphCLKConfig+0x84c>)
 8004402:	4313      	orrs	r3, r2
 8004404:	f8c1 308c 	str.w	r3, [r1, #140]	; 0x8c
    }
#endif /* STM32F746xx || STM32F756xx || STM32F767xx || STM32F769xx || STM32F777xx || STM32F779xx || STM32F750xx  */

    /* Enable PLLSAI Clock */
    __HAL_RCC_PLLSAI_ENABLE();
 8004408:	4b0f      	ldr	r3, [pc, #60]	; (8004448 <HAL_RCCEx_PeriphCLKConfig+0x84c>)
 800440a:	681b      	ldr	r3, [r3, #0]
 800440c:	4a0e      	ldr	r2, [pc, #56]	; (8004448 <HAL_RCCEx_PeriphCLKConfig+0x84c>)
 800440e:	f043 5380 	orr.w	r3, r3, #268435456	; 0x10000000
 8004412:	6013      	str	r3, [r2, #0]

    /* Get Start Tick*/
    tickstart = HAL_GetTick();
 8004414:	f7fd fe28 	bl	8002068 <HAL_GetTick>
 8004418:	6178      	str	r0, [r7, #20]

    /* Wait till PLLSAI is ready */
    while(__HAL_RCC_PLLSAI_GET_FLAG() == RESET)
 800441a:	e008      	b.n	800442e <HAL_RCCEx_PeriphCLKConfig+0x832>
    {
      if((HAL_GetTick() - tickstart) > PLLSAI_TIMEOUT_VALUE)
 800441c:	f7fd fe24 	bl	8002068 <HAL_GetTick>
 8004420:	4602      	mov	r2, r0
 8004422:	697b      	ldr	r3, [r7, #20]
 8004424:	1ad3      	subs	r3, r2, r3
 8004426:	2b64      	cmp	r3, #100	; 0x64
 8004428:	d901      	bls.n	800442e <HAL_RCCEx_PeriphCLKConfig+0x832>
      {
        /* return in case of Timeout detected */
        return HAL_TIMEOUT;
 800442a:	2303      	movs	r3, #3
 800442c:	e007      	b.n	800443e <HAL_RCCEx_PeriphCLKConfig+0x842>
    while(__HAL_RCC_PLLSAI_GET_FLAG() == RESET)
 800442e:	4b06      	ldr	r3, [pc, #24]	; (8004448 <HAL_RCCEx_PeriphCLKConfig+0x84c>)
 8004430:	681b      	ldr	r3, [r3, #0]
 8004432:	f003 5300 	and.w	r3, r3, #536870912	; 0x20000000
 8004436:	f1b3 5f00 	cmp.w	r3, #536870912	; 0x20000000
 800443a:	d1ef      	bne.n	800441c <HAL_RCCEx_PeriphCLKConfig+0x820>
      }
    }
  }
  return HAL_OK;
 800443c:	2300      	movs	r3, #0
}
 800443e:	4618      	mov	r0, r3
 8004440:	3720      	adds	r7, #32
 8004442:	46bd      	mov	sp, r7
 8004444:	bd80      	pop	{r7, pc}
 8004446:	bf00      	nop
 8004448:	40023800 	.word	0x40023800

0800444c <HAL_SPI_Init>:
  * @param  hspi pointer to a SPI_HandleTypeDef structure that contains
  *               the configuration information for SPI module.
  * @retval HAL status
  */
HAL_StatusTypeDef HAL_SPI_Init(SPI_HandleTypeDef *hspi)
{
 800444c:	b580      	push	{r7, lr}
 800444e:	b084      	sub	sp, #16
 8004450:	af00      	add	r7, sp, #0
 8004452:	6078      	str	r0, [r7, #4]
  uint32_t frxth;

  /* Check the SPI handle allocation */
  if (hspi == NULL)
 8004454:	687b      	ldr	r3, [r7, #4]
 8004456:	2b00      	cmp	r3, #0
 8004458:	d101      	bne.n	800445e <HAL_SPI_Init+0x12>
  {
    return HAL_ERROR;
 800445a:	2301      	movs	r3, #1
 800445c:	e09d      	b.n	800459a <HAL_SPI_Init+0x14e>
  assert_param(IS_SPI_NSS(hspi->Init.NSS));
  assert_param(IS_SPI_NSSP(hspi->Init.NSSPMode));
  assert_param(IS_SPI_BAUDRATE_PRESCALER(hspi->Init.BaudRatePrescaler));
  assert_param(IS_SPI_FIRST_BIT(hspi->Init.FirstBit));
  assert_param(IS_SPI_TIMODE(hspi->Init.TIMode));
  if (hspi->Init.TIMode == SPI_TIMODE_DISABLE)
 800445e:	687b      	ldr	r3, [r7, #4]
 8004460:	6a5b      	ldr	r3, [r3, #36]	; 0x24
 8004462:	2b00      	cmp	r3, #0
 8004464:	d108      	bne.n	8004478 <HAL_SPI_Init+0x2c>
  {
    assert_param(IS_SPI_CPOL(hspi->Init.CLKPolarity));
    assert_param(IS_SPI_CPHA(hspi->Init.CLKPhase));

    if (hspi->Init.Mode == SPI_MODE_MASTER)
 8004466:	687b      	ldr	r3, [r7, #4]
 8004468:	685b      	ldr	r3, [r3, #4]
 800446a:	f5b3 7f82 	cmp.w	r3, #260	; 0x104
 800446e:	d009      	beq.n	8004484 <HAL_SPI_Init+0x38>
      assert_param(IS_SPI_BAUDRATE_PRESCALER(hspi->Init.BaudRatePrescaler));
    }
    else
    {
      /* Baudrate prescaler not use in Motoraola Slave mode. force to default value */
      hspi->Init.BaudRatePrescaler = SPI_BAUDRATEPRESCALER_2;
 8004470:	687b      	ldr	r3, [r7, #4]
 8004472:	2200      	movs	r2, #0
 8004474:	61da      	str	r2, [r3, #28]
 8004476:	e005      	b.n	8004484 <HAL_SPI_Init+0x38>
  else
  {
    assert_param(IS_SPI_BAUDRATE_PRESCALER(hspi->Init.BaudRatePrescaler));

    /* Force polarity and phase to TI protocaol requirements */
    hspi->Init.CLKPolarity = SPI_POLARITY_LOW;
 8004478:	687b      	ldr	r3, [r7, #4]
 800447a:	2200      	movs	r2, #0
 800447c:	611a      	str	r2, [r3, #16]
    hspi->Init.CLKPhase    = SPI_PHASE_1EDGE;
 800447e:	687b      	ldr	r3, [r7, #4]
 8004480:	2200      	movs	r2, #0
 8004482:	615a      	str	r2, [r3, #20]
  {
    assert_param(IS_SPI_CRC_POLYNOMIAL(hspi->Init.CRCPolynomial));
    assert_param(IS_SPI_CRC_LENGTH(hspi->Init.CRCLength));
  }
#else
  hspi->Init.CRCCalculation = SPI_CRCCALCULATION_DISABLE;
 8004484:	687b      	ldr	r3, [r7, #4]
 8004486:	2200      	movs	r2, #0
 8004488:	629a      	str	r2, [r3, #40]	; 0x28
#endif /* USE_SPI_CRC */

  if (hspi->State == HAL_SPI_STATE_RESET)
 800448a:	687b      	ldr	r3, [r7, #4]
 800448c:	f893 305d 	ldrb.w	r3, [r3, #93]	; 0x5d
 8004490:	b2db      	uxtb	r3, r3
 8004492:	2b00      	cmp	r3, #0
 8004494:	d106      	bne.n	80044a4 <HAL_SPI_Init+0x58>
  {
    /* Allocate lock resource and initialize it */
    hspi->Lock = HAL_UNLOCKED;
 8004496:	687b      	ldr	r3, [r7, #4]
 8004498:	2200      	movs	r2, #0
 800449a:	f883 205c 	strb.w	r2, [r3, #92]	; 0x5c

    /* Init the low level hardware : GPIO, CLOCK, NVIC... */
    hspi->MspInitCallback(hspi);
#else
    /* Init the low level hardware : GPIO, CLOCK, NVIC... */
    HAL_SPI_MspInit(hspi);
 800449e:	6878      	ldr	r0, [r7, #4]
 80044a0:	f7fd fbb0 	bl	8001c04 <HAL_SPI_MspInit>
#endif /* USE_HAL_SPI_REGISTER_CALLBACKS */
  }

  hspi->State = HAL_SPI_STATE_BUSY;
 80044a4:	687b      	ldr	r3, [r7, #4]
 80044a6:	2202      	movs	r2, #2
 80044a8:	f883 205d 	strb.w	r2, [r3, #93]	; 0x5d

  /* Disable the selected SPI peripheral */
  __HAL_SPI_DISABLE(hspi);
 80044ac:	687b      	ldr	r3, [r7, #4]
 80044ae:	681b      	ldr	r3, [r3, #0]
 80044b0:	681a      	ldr	r2, [r3, #0]
 80044b2:	687b      	ldr	r3, [r7, #4]
 80044b4:	681b      	ldr	r3, [r3, #0]
 80044b6:	f022 0240 	bic.w	r2, r2, #64	; 0x40
 80044ba:	601a      	str	r2, [r3, #0]

  /* Align by default the rs fifo threshold on the data size */
  if (hspi->Init.DataSize > SPI_DATASIZE_8BIT)
 80044bc:	687b      	ldr	r3, [r7, #4]
 80044be:	68db      	ldr	r3, [r3, #12]
 80044c0:	f5b3 6fe0 	cmp.w	r3, #1792	; 0x700
 80044c4:	d902      	bls.n	80044cc <HAL_SPI_Init+0x80>
  {
    frxth = SPI_RXFIFO_THRESHOLD_HF;
 80044c6:	2300      	movs	r3, #0
 80044c8:	60fb      	str	r3, [r7, #12]
 80044ca:	e002      	b.n	80044d2 <HAL_SPI_Init+0x86>
  }
  else
  {
    frxth = SPI_RXFIFO_THRESHOLD_QF;
 80044cc:	f44f 5380 	mov.w	r3, #4096	; 0x1000
 80044d0:	60fb      	str	r3, [r7, #12]
  }

  /* CRC calculation is valid only for 16Bit and 8 Bit */
  if ((hspi->Init.DataSize != SPI_DATASIZE_16BIT) && (hspi->Init.DataSize != SPI_DATASIZE_8BIT))
 80044d2:	687b      	ldr	r3, [r7, #4]
 80044d4:	68db      	ldr	r3, [r3, #12]
 80044d6:	f5b3 6f70 	cmp.w	r3, #3840	; 0xf00
 80044da:	d007      	beq.n	80044ec <HAL_SPI_Init+0xa0>
 80044dc:	687b      	ldr	r3, [r7, #4]
 80044de:	68db      	ldr	r3, [r3, #12]
 80044e0:	f5b3 6fe0 	cmp.w	r3, #1792	; 0x700
 80044e4:	d002      	beq.n	80044ec <HAL_SPI_Init+0xa0>
  {
    /* CRC must be disabled */
    hspi->Init.CRCCalculation = SPI_CRCCALCULATION_DISABLE;
 80044e6:	687b      	ldr	r3, [r7, #4]
 80044e8:	2200      	movs	r2, #0
 80044ea:	629a      	str	r2, [r3, #40]	; 0x28
  }

  /*----------------------- SPIx CR1 & CR2 Configuration ---------------------*/
  /* Configure : SPI Mode, Communication Mode, Clock polarity and phase, NSS management,
  Communication speed, First bit and CRC calculation state */
  WRITE_REG(hspi->Instance->CR1, ((hspi->Init.Mode & (SPI_CR1_MSTR | SPI_CR1_SSI)) |
 80044ec:	687b      	ldr	r3, [r7, #4]
 80044ee:	685b      	ldr	r3, [r3, #4]
 80044f0:	f403 7282 	and.w	r2, r3, #260	; 0x104
 80044f4:	687b      	ldr	r3, [r7, #4]
 80044f6:	689b      	ldr	r3, [r3, #8]
 80044f8:	f403 4304 	and.w	r3, r3, #33792	; 0x8400
 80044fc:	431a      	orrs	r2, r3
 80044fe:	687b      	ldr	r3, [r7, #4]
 8004500:	691b      	ldr	r3, [r3, #16]
 8004502:	f003 0302 	and.w	r3, r3, #2
 8004506:	431a      	orrs	r2, r3
 8004508:	687b      	ldr	r3, [r7, #4]
 800450a:	695b      	ldr	r3, [r3, #20]
 800450c:	f003 0301 	and.w	r3, r3, #1
 8004510:	431a      	orrs	r2, r3
 8004512:	687b      	ldr	r3, [r7, #4]
 8004514:	699b      	ldr	r3, [r3, #24]
 8004516:	f403 7300 	and.w	r3, r3, #512	; 0x200
 800451a:	431a      	orrs	r2, r3
 800451c:	687b      	ldr	r3, [r7, #4]
 800451e:	69db      	ldr	r3, [r3, #28]
 8004520:	f003 0338 	and.w	r3, r3, #56	; 0x38
 8004524:	431a      	orrs	r2, r3
 8004526:	687b      	ldr	r3, [r7, #4]
 8004528:	6a1b      	ldr	r3, [r3, #32]
 800452a:	f003 0380 	and.w	r3, r3, #128	; 0x80
 800452e:	ea42 0103 	orr.w	r1, r2, r3
 8004532:	687b      	ldr	r3, [r7, #4]
 8004534:	6a9b      	ldr	r3, [r3, #40]	; 0x28
 8004536:	f403 5200 	and.w	r2, r3, #8192	; 0x2000
 800453a:	687b      	ldr	r3, [r7, #4]
 800453c:	681b      	ldr	r3, [r3, #0]
 800453e:	430a      	orrs	r2, r1
 8004540:	601a      	str	r2, [r3, #0]
    }
  }
#endif /* USE_SPI_CRC */

  /* Configure : NSS management, TI Mode, NSS Pulse, Data size and Rx Fifo threshold */
  WRITE_REG(hspi->Instance->CR2, (((hspi->Init.NSS >> 16U) & SPI_CR2_SSOE) |
 8004542:	687b      	ldr	r3, [r7, #4]
 8004544:	699b      	ldr	r3, [r3, #24]
 8004546:	0c1b      	lsrs	r3, r3, #16
 8004548:	f003 0204 	and.w	r2, r3, #4
 800454c:	687b      	ldr	r3, [r7, #4]
 800454e:	6a5b      	ldr	r3, [r3, #36]	; 0x24
 8004550:	f003 0310 	and.w	r3, r3, #16
 8004554:	431a      	orrs	r2, r3
 8004556:	687b      	ldr	r3, [r7, #4]
 8004558:	6b5b      	ldr	r3, [r3, #52]	; 0x34
 800455a:	f003 0308 	and.w	r3, r3, #8
 800455e:	431a      	orrs	r2, r3
 8004560:	687b      	ldr	r3, [r7, #4]
 8004562:	68db      	ldr	r3, [r3, #12]
 8004564:	f403 6370 	and.w	r3, r3, #3840	; 0xf00
 8004568:	ea42 0103 	orr.w	r1, r2, r3
 800456c:	68fb      	ldr	r3, [r7, #12]
 800456e:	f403 5280 	and.w	r2, r3, #4096	; 0x1000
 8004572:	687b      	ldr	r3, [r7, #4]
 8004574:	681b      	ldr	r3, [r3, #0]
 8004576:	430a      	orrs	r2, r1
 8004578:	605a      	str	r2, [r3, #4]
  }
#endif /* USE_SPI_CRC */

#if defined(SPI_I2SCFGR_I2SMOD)
  /* Activate the SPI mode (Make sure that I2SMOD bit in I2SCFGR register is reset) */
  CLEAR_BIT(hspi->Instance->I2SCFGR, SPI_I2SCFGR_I2SMOD);
 800457a:	687b      	ldr	r3, [r7, #4]
 800457c:	681b      	ldr	r3, [r3, #0]
 800457e:	69da      	ldr	r2, [r3, #28]
 8004580:	687b      	ldr	r3, [r7, #4]
 8004582:	681b      	ldr	r3, [r3, #0]
 8004584:	f422 6200 	bic.w	r2, r2, #2048	; 0x800
 8004588:	61da      	str	r2, [r3, #28]
#endif /* SPI_I2SCFGR_I2SMOD */

  hspi->ErrorCode = HAL_SPI_ERROR_NONE;
 800458a:	687b      	ldr	r3, [r7, #4]
 800458c:	2200      	movs	r2, #0
 800458e:	661a      	str	r2, [r3, #96]	; 0x60
  hspi->State     = HAL_SPI_STATE_READY;
 8004590:	687b      	ldr	r3, [r7, #4]
 8004592:	2201      	movs	r2, #1
 8004594:	f883 205d 	strb.w	r2, [r3, #93]	; 0x5d

  return HAL_OK;
 8004598:	2300      	movs	r3, #0
}
 800459a:	4618      	mov	r0, r3
 800459c:	3710      	adds	r7, #16
 800459e:	46bd      	mov	sp, r7
 80045a0:	bd80      	pop	{r7, pc}

080045a2 <HAL_SPI_TransmitReceive>:
  * @param  Timeout Timeout duration
  * @retval HAL status
  */
HAL_StatusTypeDef HAL_SPI_TransmitReceive(SPI_HandleTypeDef *hspi, uint8_t *pTxData, uint8_t *pRxData, uint16_t Size,
                                          uint32_t Timeout)
{
 80045a2:	b580      	push	{r7, lr}
 80045a4:	b08a      	sub	sp, #40	; 0x28
 80045a6:	af00      	add	r7, sp, #0
 80045a8:	60f8      	str	r0, [r7, #12]
 80045aa:	60b9      	str	r1, [r7, #8]
 80045ac:	607a      	str	r2, [r7, #4]
 80045ae:	807b      	strh	r3, [r7, #2]
  __IO uint8_t  *ptmpreg8;
  __IO uint8_t  tmpreg8 = 0;
#endif /* USE_SPI_CRC */

  /* Variable used to alternate Rx and Tx during transfer */
  uint32_t             txallowed = 1U;
 80045b0:	2301      	movs	r3, #1
 80045b2:	627b      	str	r3, [r7, #36]	; 0x24
  HAL_StatusTypeDef    errorcode = HAL_OK;
 80045b4:	2300      	movs	r3, #0
 80045b6:	f887 3023 	strb.w	r3, [r7, #35]	; 0x23

  /* Check Direction parameter */
  assert_param(IS_SPI_DIRECTION_2LINES(hspi->Init.Direction));

  /* Process Locked */
  __HAL_LOCK(hspi);
 80045ba:	68fb      	ldr	r3, [r7, #12]
 80045bc:	f893 305c 	ldrb.w	r3, [r3, #92]	; 0x5c
 80045c0:	2b01      	cmp	r3, #1
 80045c2:	d101      	bne.n	80045c8 <HAL_SPI_TransmitReceive+0x26>
 80045c4:	2302      	movs	r3, #2
 80045c6:	e1fb      	b.n	80049c0 <HAL_SPI_TransmitReceive+0x41e>
 80045c8:	68fb      	ldr	r3, [r7, #12]
 80045ca:	2201      	movs	r2, #1
 80045cc:	f883 205c 	strb.w	r2, [r3, #92]	; 0x5c

  /* Init tickstart for timeout management*/
  tickstart = HAL_GetTick();
 80045d0:	f7fd fd4a 	bl	8002068 <HAL_GetTick>
 80045d4:	61f8      	str	r0, [r7, #28]

  /* Init temporary variables */
  tmp_state           = hspi->State;
 80045d6:	68fb      	ldr	r3, [r7, #12]
 80045d8:	f893 305d 	ldrb.w	r3, [r3, #93]	; 0x5d
 80045dc:	76fb      	strb	r3, [r7, #27]
  tmp_mode            = hspi->Init.Mode;
 80045de:	68fb      	ldr	r3, [r7, #12]
 80045e0:	685b      	ldr	r3, [r3, #4]
 80045e2:	617b      	str	r3, [r7, #20]
  initial_TxXferCount = Size;
 80045e4:	887b      	ldrh	r3, [r7, #2]
 80045e6:	827b      	strh	r3, [r7, #18]
  initial_RxXferCount = Size;
 80045e8:	887b      	ldrh	r3, [r7, #2]
 80045ea:	823b      	strh	r3, [r7, #16]
#if (USE_SPI_CRC != 0U)
  spi_cr1             = READ_REG(hspi->Instance->CR1);
  spi_cr2             = READ_REG(hspi->Instance->CR2);
#endif /* USE_SPI_CRC */

  if (!((tmp_state == HAL_SPI_STATE_READY) || \
 80045ec:	7efb      	ldrb	r3, [r7, #27]
 80045ee:	2b01      	cmp	r3, #1
 80045f0:	d00e      	beq.n	8004610 <HAL_SPI_TransmitReceive+0x6e>
 80045f2:	697b      	ldr	r3, [r7, #20]
 80045f4:	f5b3 7f82 	cmp.w	r3, #260	; 0x104
 80045f8:	d106      	bne.n	8004608 <HAL_SPI_TransmitReceive+0x66>
        ((tmp_mode == SPI_MODE_MASTER) && (hspi->Init.Direction == SPI_DIRECTION_2LINES) && (tmp_state == HAL_SPI_STATE_BUSY_RX))))
 80045fa:	68fb      	ldr	r3, [r7, #12]
 80045fc:	689b      	ldr	r3, [r3, #8]
 80045fe:	2b00      	cmp	r3, #0
 8004600:	d102      	bne.n	8004608 <HAL_SPI_TransmitReceive+0x66>
 8004602:	7efb      	ldrb	r3, [r7, #27]
 8004604:	2b04      	cmp	r3, #4
 8004606:	d003      	beq.n	8004610 <HAL_SPI_TransmitReceive+0x6e>
  {
    errorcode = HAL_BUSY;
 8004608:	2302      	movs	r3, #2
 800460a:	f887 3023 	strb.w	r3, [r7, #35]	; 0x23
    goto error;
 800460e:	e1cd      	b.n	80049ac <HAL_SPI_TransmitReceive+0x40a>
  }

  if ((pTxData == NULL) || (pRxData == NULL) || (Size == 0U))
 8004610:	68bb      	ldr	r3, [r7, #8]
 8004612:	2b00      	cmp	r3, #0
 8004614:	d005      	beq.n	8004622 <HAL_SPI_TransmitReceive+0x80>
 8004616:	687b      	ldr	r3, [r7, #4]
 8004618:	2b00      	cmp	r3, #0
 800461a:	d002      	beq.n	8004622 <HAL_SPI_TransmitReceive+0x80>
 800461c:	887b      	ldrh	r3, [r7, #2]
 800461e:	2b00      	cmp	r3, #0
 8004620:	d103      	bne.n	800462a <HAL_SPI_TransmitReceive+0x88>
  {
    errorcode = HAL_ERROR;
 8004622:	2301      	movs	r3, #1
 8004624:	f887 3023 	strb.w	r3, [r7, #35]	; 0x23
    goto error;
 8004628:	e1c0      	b.n	80049ac <HAL_SPI_TransmitReceive+0x40a>
  }

  /* Don't overwrite in case of HAL_SPI_STATE_BUSY_RX */
  if (hspi->State != HAL_SPI_STATE_BUSY_RX)
 800462a:	68fb      	ldr	r3, [r7, #12]
 800462c:	f893 305d 	ldrb.w	r3, [r3, #93]	; 0x5d
 8004630:	b2db      	uxtb	r3, r3
 8004632:	2b04      	cmp	r3, #4
 8004634:	d003      	beq.n	800463e <HAL_SPI_TransmitReceive+0x9c>
  {
    hspi->State = HAL_SPI_STATE_BUSY_TX_RX;
 8004636:	68fb      	ldr	r3, [r7, #12]
 8004638:	2205      	movs	r2, #5
 800463a:	f883 205d 	strb.w	r2, [r3, #93]	; 0x5d
  }

  /* Set the transaction information */
  hspi->ErrorCode   = HAL_SPI_ERROR_NONE;
 800463e:	68fb      	ldr	r3, [r7, #12]
 8004640:	2200      	movs	r2, #0
 8004642:	661a      	str	r2, [r3, #96]	; 0x60
  hspi->pRxBuffPtr  = (uint8_t *)pRxData;
 8004644:	68fb      	ldr	r3, [r7, #12]
 8004646:	687a      	ldr	r2, [r7, #4]
 8004648:	641a      	str	r2, [r3, #64]	; 0x40
  hspi->RxXferCount = Size;
 800464a:	68fb      	ldr	r3, [r7, #12]
 800464c:	887a      	ldrh	r2, [r7, #2]
 800464e:	f8a3 2046 	strh.w	r2, [r3, #70]	; 0x46
  hspi->RxXferSize  = Size;
 8004652:	68fb      	ldr	r3, [r7, #12]
 8004654:	887a      	ldrh	r2, [r7, #2]
 8004656:	f8a3 2044 	strh.w	r2, [r3, #68]	; 0x44
  hspi->pTxBuffPtr  = (uint8_t *)pTxData;
 800465a:	68fb      	ldr	r3, [r7, #12]
 800465c:	68ba      	ldr	r2, [r7, #8]
 800465e:	639a      	str	r2, [r3, #56]	; 0x38
  hspi->TxXferCount = Size;
 8004660:	68fb      	ldr	r3, [r7, #12]
 8004662:	887a      	ldrh	r2, [r7, #2]
 8004664:	87da      	strh	r2, [r3, #62]	; 0x3e
  hspi->TxXferSize  = Size;
 8004666:	68fb      	ldr	r3, [r7, #12]
 8004668:	887a      	ldrh	r2, [r7, #2]
 800466a:	879a      	strh	r2, [r3, #60]	; 0x3c

  /*Init field not used in handle to zero */
  hspi->RxISR       = NULL;
 800466c:	68fb      	ldr	r3, [r7, #12]
 800466e:	2200      	movs	r2, #0
 8004670:	64da      	str	r2, [r3, #76]	; 0x4c
  hspi->TxISR       = NULL;
 8004672:	68fb      	ldr	r3, [r7, #12]
 8004674:	2200      	movs	r2, #0
 8004676:	651a      	str	r2, [r3, #80]	; 0x50
    SPI_RESET_CRC(hspi);
  }
#endif /* USE_SPI_CRC */

  /* Set the Rx Fifo threshold */
  if ((hspi->Init.DataSize > SPI_DATASIZE_8BIT) || (initial_RxXferCount > 1U))
 8004678:	68fb      	ldr	r3, [r7, #12]
 800467a:	68db      	ldr	r3, [r3, #12]
 800467c:	f5b3 6fe0 	cmp.w	r3, #1792	; 0x700
 8004680:	d802      	bhi.n	8004688 <HAL_SPI_TransmitReceive+0xe6>
 8004682:	8a3b      	ldrh	r3, [r7, #16]
 8004684:	2b01      	cmp	r3, #1
 8004686:	d908      	bls.n	800469a <HAL_SPI_TransmitReceive+0xf8>
  {
    /* Set fiforxthreshold according the reception data length: 16bit */
    CLEAR_BIT(hspi->Instance->CR2, SPI_RXFIFO_THRESHOLD);
 8004688:	68fb      	ldr	r3, [r7, #12]
 800468a:	681b      	ldr	r3, [r3, #0]
 800468c:	685a      	ldr	r2, [r3, #4]
 800468e:	68fb      	ldr	r3, [r7, #12]
 8004690:	681b      	ldr	r3, [r3, #0]
 8004692:	f422 5280 	bic.w	r2, r2, #4096	; 0x1000
 8004696:	605a      	str	r2, [r3, #4]
 8004698:	e007      	b.n	80046aa <HAL_SPI_TransmitReceive+0x108>
  }
  else
  {
    /* Set fiforxthreshold according the reception data length: 8bit */
    SET_BIT(hspi->Instance->CR2, SPI_RXFIFO_THRESHOLD);
 800469a:	68fb      	ldr	r3, [r7, #12]
 800469c:	681b      	ldr	r3, [r3, #0]
 800469e:	685a      	ldr	r2, [r3, #4]
 80046a0:	68fb      	ldr	r3, [r7, #12]
 80046a2:	681b      	ldr	r3, [r3, #0]
 80046a4:	f442 5280 	orr.w	r2, r2, #4096	; 0x1000
 80046a8:	605a      	str	r2, [r3, #4]
  }

  /* Check if the SPI is already enabled */
  if ((hspi->Instance->CR1 & SPI_CR1_SPE) != SPI_CR1_SPE)
 80046aa:	68fb      	ldr	r3, [r7, #12]
 80046ac:	681b      	ldr	r3, [r3, #0]
 80046ae:	681b      	ldr	r3, [r3, #0]
 80046b0:	f003 0340 	and.w	r3, r3, #64	; 0x40
 80046b4:	2b40      	cmp	r3, #64	; 0x40
 80046b6:	d007      	beq.n	80046c8 <HAL_SPI_TransmitReceive+0x126>
  {
    /* Enable SPI peripheral */
    __HAL_SPI_ENABLE(hspi);
 80046b8:	68fb      	ldr	r3, [r7, #12]
 80046ba:	681b      	ldr	r3, [r3, #0]
 80046bc:	681a      	ldr	r2, [r3, #0]
 80046be:	68fb      	ldr	r3, [r7, #12]
 80046c0:	681b      	ldr	r3, [r3, #0]
 80046c2:	f042 0240 	orr.w	r2, r2, #64	; 0x40
 80046c6:	601a      	str	r2, [r3, #0]
  }

  /* Transmit and Receive data in 16 Bit mode */
  if (hspi->Init.DataSize > SPI_DATASIZE_8BIT)
 80046c8:	68fb      	ldr	r3, [r7, #12]
 80046ca:	68db      	ldr	r3, [r3, #12]
 80046cc:	f5b3 6fe0 	cmp.w	r3, #1792	; 0x700
 80046d0:	d97c      	bls.n	80047cc <HAL_SPI_TransmitReceive+0x22a>
  {
    if ((hspi->Init.Mode == SPI_MODE_SLAVE) || (initial_TxXferCount == 0x01U))
 80046d2:	68fb      	ldr	r3, [r7, #12]
 80046d4:	685b      	ldr	r3, [r3, #4]
 80046d6:	2b00      	cmp	r3, #0
 80046d8:	d002      	beq.n	80046e0 <HAL_SPI_TransmitReceive+0x13e>
 80046da:	8a7b      	ldrh	r3, [r7, #18]
 80046dc:	2b01      	cmp	r3, #1
 80046de:	d169      	bne.n	80047b4 <HAL_SPI_TransmitReceive+0x212>
    {
      hspi->Instance->DR = *((uint16_t *)hspi->pTxBuffPtr);
 80046e0:	68fb      	ldr	r3, [r7, #12]
 80046e2:	6b9b      	ldr	r3, [r3, #56]	; 0x38
 80046e4:	881a      	ldrh	r2, [r3, #0]
 80046e6:	68fb      	ldr	r3, [r7, #12]
 80046e8:	681b      	ldr	r3, [r3, #0]
 80046ea:	60da      	str	r2, [r3, #12]
      hspi->pTxBuffPtr += sizeof(uint16_t);
 80046ec:	68fb      	ldr	r3, [r7, #12]
 80046ee:	6b9b      	ldr	r3, [r3, #56]	; 0x38
 80046f0:	1c9a      	adds	r2, r3, #2
 80046f2:	68fb      	ldr	r3, [r7, #12]
 80046f4:	639a      	str	r2, [r3, #56]	; 0x38
      hspi->TxXferCount--;
 80046f6:	68fb      	ldr	r3, [r7, #12]
 80046f8:	8fdb      	ldrh	r3, [r3, #62]	; 0x3e
 80046fa:	b29b      	uxth	r3, r3
 80046fc:	3b01      	subs	r3, #1
 80046fe:	b29a      	uxth	r2, r3
 8004700:	68fb      	ldr	r3, [r7, #12]
 8004702:	87da      	strh	r2, [r3, #62]	; 0x3e
    }
    while ((hspi->TxXferCount > 0U) || (hspi->RxXferCount > 0U))
 8004704:	e056      	b.n	80047b4 <HAL_SPI_TransmitReceive+0x212>
    {
      /* Check TXE flag */
      if ((__HAL_SPI_GET_FLAG(hspi, SPI_FLAG_TXE)) && (hspi->TxXferCount > 0U) && (txallowed == 1U))
 8004706:	68fb      	ldr	r3, [r7, #12]
 8004708:	681b      	ldr	r3, [r3, #0]
 800470a:	689b      	ldr	r3, [r3, #8]
 800470c:	f003 0302 	and.w	r3, r3, #2
 8004710:	2b02      	cmp	r3, #2
 8004712:	d11b      	bne.n	800474c <HAL_SPI_TransmitReceive+0x1aa>
 8004714:	68fb      	ldr	r3, [r7, #12]
 8004716:	8fdb      	ldrh	r3, [r3, #62]	; 0x3e
 8004718:	b29b      	uxth	r3, r3
 800471a:	2b00      	cmp	r3, #0
 800471c:	d016      	beq.n	800474c <HAL_SPI_TransmitReceive+0x1aa>
 800471e:	6a7b      	ldr	r3, [r7, #36]	; 0x24
 8004720:	2b01      	cmp	r3, #1
 8004722:	d113      	bne.n	800474c <HAL_SPI_TransmitReceive+0x1aa>
      {
        hspi->Instance->DR = *((uint16_t *)hspi->pTxBuffPtr);
 8004724:	68fb      	ldr	r3, [r7, #12]
 8004726:	6b9b      	ldr	r3, [r3, #56]	; 0x38
 8004728:	881a      	ldrh	r2, [r3, #0]
 800472a:	68fb      	ldr	r3, [r7, #12]
 800472c:	681b      	ldr	r3, [r3, #0]
 800472e:	60da      	str	r2, [r3, #12]
        hspi->pTxBuffPtr += sizeof(uint16_t);
 8004730:	68fb      	ldr	r3, [r7, #12]
 8004732:	6b9b      	ldr	r3, [r3, #56]	; 0x38
 8004734:	1c9a      	adds	r2, r3, #2
 8004736:	68fb      	ldr	r3, [r7, #12]
 8004738:	639a      	str	r2, [r3, #56]	; 0x38
        hspi->TxXferCount--;
 800473a:	68fb      	ldr	r3, [r7, #12]
 800473c:	8fdb      	ldrh	r3, [r3, #62]	; 0x3e
 800473e:	b29b      	uxth	r3, r3
 8004740:	3b01      	subs	r3, #1
 8004742:	b29a      	uxth	r2, r3
 8004744:	68fb      	ldr	r3, [r7, #12]
 8004746:	87da      	strh	r2, [r3, #62]	; 0x3e
        /* Next Data is a reception (Rx). Tx not allowed */
        txallowed = 0U;
 8004748:	2300      	movs	r3, #0
 800474a:	627b      	str	r3, [r7, #36]	; 0x24
        }
#endif /* USE_SPI_CRC */
      }

      /* Check RXNE flag */
      if ((__HAL_SPI_GET_FLAG(hspi, SPI_FLAG_RXNE)) && (hspi->RxXferCount > 0U))
 800474c:	68fb      	ldr	r3, [r7, #12]
 800474e:	681b      	ldr	r3, [r3, #0]
 8004750:	689b      	ldr	r3, [r3, #8]
 8004752:	f003 0301 	and.w	r3, r3, #1
 8004756:	2b01      	cmp	r3, #1
 8004758:	d11c      	bne.n	8004794 <HAL_SPI_TransmitReceive+0x1f2>
 800475a:	68fb      	ldr	r3, [r7, #12]
 800475c:	f8b3 3046 	ldrh.w	r3, [r3, #70]	; 0x46
 8004760:	b29b      	uxth	r3, r3
 8004762:	2b00      	cmp	r3, #0
 8004764:	d016      	beq.n	8004794 <HAL_SPI_TransmitReceive+0x1f2>
      {
        *((uint16_t *)hspi->pRxBuffPtr) = (uint16_t)hspi->Instance->DR;
 8004766:	68fb      	ldr	r3, [r7, #12]
 8004768:	681b      	ldr	r3, [r3, #0]
 800476a:	68da      	ldr	r2, [r3, #12]
 800476c:	68fb      	ldr	r3, [r7, #12]
 800476e:	6c1b      	ldr	r3, [r3, #64]	; 0x40
 8004770:	b292      	uxth	r2, r2
 8004772:	801a      	strh	r2, [r3, #0]
        hspi->pRxBuffPtr += sizeof(uint16_t);
 8004774:	68fb      	ldr	r3, [r7, #12]
 8004776:	6c1b      	ldr	r3, [r3, #64]	; 0x40
 8004778:	1c9a      	adds	r2, r3, #2
 800477a:	68fb      	ldr	r3, [r7, #12]
 800477c:	641a      	str	r2, [r3, #64]	; 0x40
        hspi->RxXferCount--;
 800477e:	68fb      	ldr	r3, [r7, #12]
 8004780:	f8b3 3046 	ldrh.w	r3, [r3, #70]	; 0x46
 8004784:	b29b      	uxth	r3, r3
 8004786:	3b01      	subs	r3, #1
 8004788:	b29a      	uxth	r2, r3
 800478a:	68fb      	ldr	r3, [r7, #12]
 800478c:	f8a3 2046 	strh.w	r2, [r3, #70]	; 0x46
        /* Next Data is a Transmission (Tx). Tx is allowed */
        txallowed = 1U;
 8004790:	2301      	movs	r3, #1
 8004792:	627b      	str	r3, [r7, #36]	; 0x24
      }
      if (((HAL_GetTick() - tickstart) >=  Timeout) && (Timeout != HAL_MAX_DELAY))
 8004794:	f7fd fc68 	bl	8002068 <HAL_GetTick>
 8004798:	4602      	mov	r2, r0
 800479a:	69fb      	ldr	r3, [r7, #28]
 800479c:	1ad3      	subs	r3, r2, r3
 800479e:	6b3a      	ldr	r2, [r7, #48]	; 0x30
 80047a0:	429a      	cmp	r2, r3
 80047a2:	d807      	bhi.n	80047b4 <HAL_SPI_TransmitReceive+0x212>
 80047a4:	6b3b      	ldr	r3, [r7, #48]	; 0x30
 80047a6:	f1b3 3fff 	cmp.w	r3, #4294967295
 80047aa:	d003      	beq.n	80047b4 <HAL_SPI_TransmitReceive+0x212>
      {
        errorcode = HAL_TIMEOUT;
 80047ac:	2303      	movs	r3, #3
 80047ae:	f887 3023 	strb.w	r3, [r7, #35]	; 0x23
        goto error;
 80047b2:	e0fb      	b.n	80049ac <HAL_SPI_TransmitReceive+0x40a>
    while ((hspi->TxXferCount > 0U) || (hspi->RxXferCount > 0U))
 80047b4:	68fb      	ldr	r3, [r7, #12]
 80047b6:	8fdb      	ldrh	r3, [r3, #62]	; 0x3e
 80047b8:	b29b      	uxth	r3, r3
 80047ba:	2b00      	cmp	r3, #0
 80047bc:	d1a3      	bne.n	8004706 <HAL_SPI_TransmitReceive+0x164>
 80047be:	68fb      	ldr	r3, [r7, #12]
 80047c0:	f8b3 3046 	ldrh.w	r3, [r3, #70]	; 0x46
 80047c4:	b29b      	uxth	r3, r3
 80047c6:	2b00      	cmp	r3, #0
 80047c8:	d19d      	bne.n	8004706 <HAL_SPI_TransmitReceive+0x164>
 80047ca:	e0df      	b.n	800498c <HAL_SPI_TransmitReceive+0x3ea>
    }
  }
  /* Transmit and Receive data in 8 Bit mode */
  else
  {
    if ((hspi->Init.Mode == SPI_MODE_SLAVE) || (initial_TxXferCount == 0x01U))
 80047cc:	68fb      	ldr	r3, [r7, #12]
 80047ce:	685b      	ldr	r3, [r3, #4]
 80047d0:	2b00      	cmp	r3, #0
 80047d2:	d003      	beq.n	80047dc <HAL_SPI_TransmitReceive+0x23a>
 80047d4:	8a7b      	ldrh	r3, [r7, #18]
 80047d6:	2b01      	cmp	r3, #1
 80047d8:	f040 80cb 	bne.w	8004972 <HAL_SPI_TransmitReceive+0x3d0>
    {
      if (hspi->TxXferCount > 1U)
 80047dc:	68fb      	ldr	r3, [r7, #12]
 80047de:	8fdb      	ldrh	r3, [r3, #62]	; 0x3e
 80047e0:	b29b      	uxth	r3, r3
 80047e2:	2b01      	cmp	r3, #1
 80047e4:	d912      	bls.n	800480c <HAL_SPI_TransmitReceive+0x26a>
      {
        hspi->Instance->DR = *((uint16_t *)hspi->pTxBuffPtr);
 80047e6:	68fb      	ldr	r3, [r7, #12]
 80047e8:	6b9b      	ldr	r3, [r3, #56]	; 0x38
 80047ea:	881a      	ldrh	r2, [r3, #0]
 80047ec:	68fb      	ldr	r3, [r7, #12]
 80047ee:	681b      	ldr	r3, [r3, #0]
 80047f0:	60da      	str	r2, [r3, #12]
        hspi->pTxBuffPtr += sizeof(uint16_t);
 80047f2:	68fb      	ldr	r3, [r7, #12]
 80047f4:	6b9b      	ldr	r3, [r3, #56]	; 0x38
 80047f6:	1c9a      	adds	r2, r3, #2
 80047f8:	68fb      	ldr	r3, [r7, #12]
 80047fa:	639a      	str	r2, [r3, #56]	; 0x38
        hspi->TxXferCount -= 2U;
 80047fc:	68fb      	ldr	r3, [r7, #12]
 80047fe:	8fdb      	ldrh	r3, [r3, #62]	; 0x3e
 8004800:	b29b      	uxth	r3, r3
 8004802:	3b02      	subs	r3, #2
 8004804:	b29a      	uxth	r2, r3
 8004806:	68fb      	ldr	r3, [r7, #12]
 8004808:	87da      	strh	r2, [r3, #62]	; 0x3e
 800480a:	e0b2      	b.n	8004972 <HAL_SPI_TransmitReceive+0x3d0>
      }
      else
      {
        *(__IO uint8_t *)&hspi->Instance->DR = (*hspi->pTxBuffPtr);
 800480c:	68fb      	ldr	r3, [r7, #12]
 800480e:	6b9a      	ldr	r2, [r3, #56]	; 0x38
 8004810:	68fb      	ldr	r3, [r7, #12]
 8004812:	681b      	ldr	r3, [r3, #0]
 8004814:	330c      	adds	r3, #12
 8004816:	7812      	ldrb	r2, [r2, #0]
 8004818:	701a      	strb	r2, [r3, #0]
        hspi->pTxBuffPtr++;
 800481a:	68fb      	ldr	r3, [r7, #12]
 800481c:	6b9b      	ldr	r3, [r3, #56]	; 0x38
 800481e:	1c5a      	adds	r2, r3, #1
 8004820:	68fb      	ldr	r3, [r7, #12]
 8004822:	639a      	str	r2, [r3, #56]	; 0x38
        hspi->TxXferCount--;
 8004824:	68fb      	ldr	r3, [r7, #12]
 8004826:	8fdb      	ldrh	r3, [r3, #62]	; 0x3e
 8004828:	b29b      	uxth	r3, r3
 800482a:	3b01      	subs	r3, #1
 800482c:	b29a      	uxth	r2, r3
 800482e:	68fb      	ldr	r3, [r7, #12]
 8004830:	87da      	strh	r2, [r3, #62]	; 0x3e
      }
    }
    while ((hspi->TxXferCount > 0U) || (hspi->RxXferCount > 0U))
 8004832:	e09e      	b.n	8004972 <HAL_SPI_TransmitReceive+0x3d0>
    {
      /* Check TXE flag */
      if ((__HAL_SPI_GET_FLAG(hspi, SPI_FLAG_TXE)) && (hspi->TxXferCount > 0U) && (txallowed == 1U))
 8004834:	68fb      	ldr	r3, [r7, #12]
 8004836:	681b      	ldr	r3, [r3, #0]
 8004838:	689b      	ldr	r3, [r3, #8]
 800483a:	f003 0302 	and.w	r3, r3, #2
 800483e:	2b02      	cmp	r3, #2
 8004840:	d134      	bne.n	80048ac <HAL_SPI_TransmitReceive+0x30a>
 8004842:	68fb      	ldr	r3, [r7, #12]
 8004844:	8fdb      	ldrh	r3, [r3, #62]	; 0x3e
 8004846:	b29b      	uxth	r3, r3
 8004848:	2b00      	cmp	r3, #0
 800484a:	d02f      	beq.n	80048ac <HAL_SPI_TransmitReceive+0x30a>
 800484c:	6a7b      	ldr	r3, [r7, #36]	; 0x24
 800484e:	2b01      	cmp	r3, #1
 8004850:	d12c      	bne.n	80048ac <HAL_SPI_TransmitReceive+0x30a>
      {
        if (hspi->TxXferCount > 1U)
 8004852:	68fb      	ldr	r3, [r7, #12]
 8004854:	8fdb      	ldrh	r3, [r3, #62]	; 0x3e
 8004856:	b29b      	uxth	r3, r3
 8004858:	2b01      	cmp	r3, #1
 800485a:	d912      	bls.n	8004882 <HAL_SPI_TransmitReceive+0x2e0>
        {
          hspi->Instance->DR = *((uint16_t *)hspi->pTxBuffPtr);
 800485c:	68fb      	ldr	r3, [r7, #12]
 800485e:	6b9b      	ldr	r3, [r3, #56]	; 0x38
 8004860:	881a      	ldrh	r2, [r3, #0]
 8004862:	68fb      	ldr	r3, [r7, #12]
 8004864:	681b      	ldr	r3, [r3, #0]
 8004866:	60da      	str	r2, [r3, #12]
          hspi->pTxBuffPtr += sizeof(uint16_t);
 8004868:	68fb      	ldr	r3, [r7, #12]
 800486a:	6b9b      	ldr	r3, [r3, #56]	; 0x38
 800486c:	1c9a      	adds	r2, r3, #2
 800486e:	68fb      	ldr	r3, [r7, #12]
 8004870:	639a      	str	r2, [r3, #56]	; 0x38
          hspi->TxXferCount -= 2U;
 8004872:	68fb      	ldr	r3, [r7, #12]
 8004874:	8fdb      	ldrh	r3, [r3, #62]	; 0x3e
 8004876:	b29b      	uxth	r3, r3
 8004878:	3b02      	subs	r3, #2
 800487a:	b29a      	uxth	r2, r3
 800487c:	68fb      	ldr	r3, [r7, #12]
 800487e:	87da      	strh	r2, [r3, #62]	; 0x3e
 8004880:	e012      	b.n	80048a8 <HAL_SPI_TransmitReceive+0x306>
        }
        else
        {
          *(__IO uint8_t *)&hspi->Instance->DR = (*hspi->pTxBuffPtr);
 8004882:	68fb      	ldr	r3, [r7, #12]
 8004884:	6b9a      	ldr	r2, [r3, #56]	; 0x38
 8004886:	68fb      	ldr	r3, [r7, #12]
 8004888:	681b      	ldr	r3, [r3, #0]
 800488a:	330c      	adds	r3, #12
 800488c:	7812      	ldrb	r2, [r2, #0]
 800488e:	701a      	strb	r2, [r3, #0]
          hspi->pTxBuffPtr++;
 8004890:	68fb      	ldr	r3, [r7, #12]
 8004892:	6b9b      	ldr	r3, [r3, #56]	; 0x38
 8004894:	1c5a      	adds	r2, r3, #1
 8004896:	68fb      	ldr	r3, [r7, #12]
 8004898:	639a      	str	r2, [r3, #56]	; 0x38
          hspi->TxXferCount--;
 800489a:	68fb      	ldr	r3, [r7, #12]
 800489c:	8fdb      	ldrh	r3, [r3, #62]	; 0x3e
 800489e:	b29b      	uxth	r3, r3
 80048a0:	3b01      	subs	r3, #1
 80048a2:	b29a      	uxth	r2, r3
 80048a4:	68fb      	ldr	r3, [r7, #12]
 80048a6:	87da      	strh	r2, [r3, #62]	; 0x3e
        }
        /* Next Data is a reception (Rx). Tx not allowed */
        txallowed = 0U;
 80048a8:	2300      	movs	r3, #0
 80048aa:	627b      	str	r3, [r7, #36]	; 0x24
        }
#endif /* USE_SPI_CRC */
      }

      /* Wait until RXNE flag is reset */
      if ((__HAL_SPI_GET_FLAG(hspi, SPI_FLAG_RXNE)) && (hspi->RxXferCount > 0U))
 80048ac:	68fb      	ldr	r3, [r7, #12]
 80048ae:	681b      	ldr	r3, [r3, #0]
 80048b0:	689b      	ldr	r3, [r3, #8]
 80048b2:	f003 0301 	and.w	r3, r3, #1
 80048b6:	2b01      	cmp	r3, #1
 80048b8:	d148      	bne.n	800494c <HAL_SPI_TransmitReceive+0x3aa>
 80048ba:	68fb      	ldr	r3, [r7, #12]
 80048bc:	f8b3 3046 	ldrh.w	r3, [r3, #70]	; 0x46
 80048c0:	b29b      	uxth	r3, r3
 80048c2:	2b00      	cmp	r3, #0
 80048c4:	d042      	beq.n	800494c <HAL_SPI_TransmitReceive+0x3aa>
      {
        if (hspi->RxXferCount > 1U)
 80048c6:	68fb      	ldr	r3, [r7, #12]
 80048c8:	f8b3 3046 	ldrh.w	r3, [r3, #70]	; 0x46
 80048cc:	b29b      	uxth	r3, r3
 80048ce:	2b01      	cmp	r3, #1
 80048d0:	d923      	bls.n	800491a <HAL_SPI_TransmitReceive+0x378>
        {
          *((uint16_t *)hspi->pRxBuffPtr) = (uint16_t)hspi->Instance->DR;
 80048d2:	68fb      	ldr	r3, [r7, #12]
 80048d4:	681b      	ldr	r3, [r3, #0]
 80048d6:	68da      	ldr	r2, [r3, #12]
 80048d8:	68fb      	ldr	r3, [r7, #12]
 80048da:	6c1b      	ldr	r3, [r3, #64]	; 0x40
 80048dc:	b292      	uxth	r2, r2
 80048de:	801a      	strh	r2, [r3, #0]
          hspi->pRxBuffPtr += sizeof(uint16_t);
 80048e0:	68fb      	ldr	r3, [r7, #12]
 80048e2:	6c1b      	ldr	r3, [r3, #64]	; 0x40
 80048e4:	1c9a      	adds	r2, r3, #2
 80048e6:	68fb      	ldr	r3, [r7, #12]
 80048e8:	641a      	str	r2, [r3, #64]	; 0x40
          hspi->RxXferCount -= 2U;
 80048ea:	68fb      	ldr	r3, [r7, #12]
 80048ec:	f8b3 3046 	ldrh.w	r3, [r3, #70]	; 0x46
 80048f0:	b29b      	uxth	r3, r3
 80048f2:	3b02      	subs	r3, #2
 80048f4:	b29a      	uxth	r2, r3
 80048f6:	68fb      	ldr	r3, [r7, #12]
 80048f8:	f8a3 2046 	strh.w	r2, [r3, #70]	; 0x46
          if (hspi->RxXferCount <= 1U)
 80048fc:	68fb      	ldr	r3, [r7, #12]
 80048fe:	f8b3 3046 	ldrh.w	r3, [r3, #70]	; 0x46
 8004902:	b29b      	uxth	r3, r3
 8004904:	2b01      	cmp	r3, #1
 8004906:	d81f      	bhi.n	8004948 <HAL_SPI_TransmitReceive+0x3a6>
          {
            /* Set RX Fifo threshold before to switch on 8 bit data size */
            SET_BIT(hspi->Instance->CR2, SPI_RXFIFO_THRESHOLD);
 8004908:	68fb      	ldr	r3, [r7, #12]
 800490a:	681b      	ldr	r3, [r3, #0]
 800490c:	685a      	ldr	r2, [r3, #4]
 800490e:	68fb      	ldr	r3, [r7, #12]
 8004910:	681b      	ldr	r3, [r3, #0]
 8004912:	f442 5280 	orr.w	r2, r2, #4096	; 0x1000
 8004916:	605a      	str	r2, [r3, #4]
 8004918:	e016      	b.n	8004948 <HAL_SPI_TransmitReceive+0x3a6>
          }
        }
        else
        {
          (*(uint8_t *)hspi->pRxBuffPtr) = *(__IO uint8_t *)&hspi->Instance->DR;
 800491a:	68fb      	ldr	r3, [r7, #12]
 800491c:	681b      	ldr	r3, [r3, #0]
 800491e:	f103 020c 	add.w	r2, r3, #12
 8004922:	68fb      	ldr	r3, [r7, #12]
 8004924:	6c1b      	ldr	r3, [r3, #64]	; 0x40
 8004926:	7812      	ldrb	r2, [r2, #0]
 8004928:	b2d2      	uxtb	r2, r2
 800492a:	701a      	strb	r2, [r3, #0]
          hspi->pRxBuffPtr++;
 800492c:	68fb      	ldr	r3, [r7, #12]
 800492e:	6c1b      	ldr	r3, [r3, #64]	; 0x40
 8004930:	1c5a      	adds	r2, r3, #1
 8004932:	68fb      	ldr	r3, [r7, #12]
 8004934:	641a      	str	r2, [r3, #64]	; 0x40
          hspi->RxXferCount--;
 8004936:	68fb      	ldr	r3, [r7, #12]
 8004938:	f8b3 3046 	ldrh.w	r3, [r3, #70]	; 0x46
 800493c:	b29b      	uxth	r3, r3
 800493e:	3b01      	subs	r3, #1
 8004940:	b29a      	uxth	r2, r3
 8004942:	68fb      	ldr	r3, [r7, #12]
 8004944:	f8a3 2046 	strh.w	r2, [r3, #70]	; 0x46
        }
        /* Next Data is a Transmission (Tx). Tx is allowed */
        txallowed = 1U;
 8004948:	2301      	movs	r3, #1
 800494a:	627b      	str	r3, [r7, #36]	; 0x24
      }
      if ((((HAL_GetTick() - tickstart) >=  Timeout) && ((Timeout != HAL_MAX_DELAY))) || (Timeout == 0U))
 800494c:	f7fd fb8c 	bl	8002068 <HAL_GetTick>
 8004950:	4602      	mov	r2, r0
 8004952:	69fb      	ldr	r3, [r7, #28]
 8004954:	1ad3      	subs	r3, r2, r3
 8004956:	6b3a      	ldr	r2, [r7, #48]	; 0x30
 8004958:	429a      	cmp	r2, r3
 800495a:	d803      	bhi.n	8004964 <HAL_SPI_TransmitReceive+0x3c2>
 800495c:	6b3b      	ldr	r3, [r7, #48]	; 0x30
 800495e:	f1b3 3fff 	cmp.w	r3, #4294967295
 8004962:	d102      	bne.n	800496a <HAL_SPI_TransmitReceive+0x3c8>
 8004964:	6b3b      	ldr	r3, [r7, #48]	; 0x30
 8004966:	2b00      	cmp	r3, #0
 8004968:	d103      	bne.n	8004972 <HAL_SPI_TransmitReceive+0x3d0>
      {
        errorcode = HAL_TIMEOUT;
 800496a:	2303      	movs	r3, #3
 800496c:	f887 3023 	strb.w	r3, [r7, #35]	; 0x23
        goto error;
 8004970:	e01c      	b.n	80049ac <HAL_SPI_TransmitReceive+0x40a>
    while ((hspi->TxXferCount > 0U) || (hspi->RxXferCount > 0U))
 8004972:	68fb      	ldr	r3, [r7, #12]
 8004974:	8fdb      	ldrh	r3, [r3, #62]	; 0x3e
 8004976:	b29b      	uxth	r3, r3
 8004978:	2b00      	cmp	r3, #0
 800497a:	f47f af5b 	bne.w	8004834 <HAL_SPI_TransmitReceive+0x292>
 800497e:	68fb      	ldr	r3, [r7, #12]
 8004980:	f8b3 3046 	ldrh.w	r3, [r3, #70]	; 0x46
 8004984:	b29b      	uxth	r3, r3
 8004986:	2b00      	cmp	r3, #0
 8004988:	f47f af54 	bne.w	8004834 <HAL_SPI_TransmitReceive+0x292>
    errorcode = HAL_ERROR;
  }
#endif /* USE_SPI_CRC */

  /* Check the end of the transaction */
  if (SPI_EndRxTxTransaction(hspi, Timeout, tickstart) != HAL_OK)
 800498c:	69fa      	ldr	r2, [r7, #28]
 800498e:	6b39      	ldr	r1, [r7, #48]	; 0x30
 8004990:	68f8      	ldr	r0, [r7, #12]
 8004992:	f000 f937 	bl	8004c04 <SPI_EndRxTxTransaction>
 8004996:	4603      	mov	r3, r0
 8004998:	2b00      	cmp	r3, #0
 800499a:	d006      	beq.n	80049aa <HAL_SPI_TransmitReceive+0x408>
  {
    errorcode = HAL_ERROR;
 800499c:	2301      	movs	r3, #1
 800499e:	f887 3023 	strb.w	r3, [r7, #35]	; 0x23
    hspi->ErrorCode = HAL_SPI_ERROR_FLAG;
 80049a2:	68fb      	ldr	r3, [r7, #12]
 80049a4:	2220      	movs	r2, #32
 80049a6:	661a      	str	r2, [r3, #96]	; 0x60
 80049a8:	e000      	b.n	80049ac <HAL_SPI_TransmitReceive+0x40a>
  }

error :
 80049aa:	bf00      	nop
  hspi->State = HAL_SPI_STATE_READY;
 80049ac:	68fb      	ldr	r3, [r7, #12]
 80049ae:	2201      	movs	r2, #1
 80049b0:	f883 205d 	strb.w	r2, [r3, #93]	; 0x5d
  __HAL_UNLOCK(hspi);
 80049b4:	68fb      	ldr	r3, [r7, #12]
 80049b6:	2200      	movs	r2, #0
 80049b8:	f883 205c 	strb.w	r2, [r3, #92]	; 0x5c
  return errorcode;
 80049bc:	f897 3023 	ldrb.w	r3, [r7, #35]	; 0x23
}
 80049c0:	4618      	mov	r0, r3
 80049c2:	3728      	adds	r7, #40	; 0x28
 80049c4:	46bd      	mov	sp, r7
 80049c6:	bd80      	pop	{r7, pc}

080049c8 <SPI_WaitFlagStateUntilTimeout>:
  * @param  Tickstart tick start value
  * @retval HAL status
  */
static HAL_StatusTypeDef SPI_WaitFlagStateUntilTimeout(SPI_HandleTypeDef *hspi, uint32_t Flag, FlagStatus State,
                                                       uint32_t Timeout, uint32_t Tickstart)
{
 80049c8:	b580      	push	{r7, lr}
 80049ca:	b088      	sub	sp, #32
 80049cc:	af00      	add	r7, sp, #0
 80049ce:	60f8      	str	r0, [r7, #12]
 80049d0:	60b9      	str	r1, [r7, #8]
 80049d2:	603b      	str	r3, [r7, #0]
 80049d4:	4613      	mov	r3, r2
 80049d6:	71fb      	strb	r3, [r7, #7]
  __IO uint32_t count;
  uint32_t tmp_timeout;
  uint32_t tmp_tickstart;

  /* Adjust Timeout value  in case of end of transfer */
  tmp_timeout   = Timeout - (HAL_GetTick() - Tickstart);
 80049d8:	f7fd fb46 	bl	8002068 <HAL_GetTick>
 80049dc:	4602      	mov	r2, r0
 80049de:	6abb      	ldr	r3, [r7, #40]	; 0x28
 80049e0:	1a9b      	subs	r3, r3, r2
 80049e2:	683a      	ldr	r2, [r7, #0]
 80049e4:	4413      	add	r3, r2
 80049e6:	61fb      	str	r3, [r7, #28]
  tmp_tickstart = HAL_GetTick();
 80049e8:	f7fd fb3e 	bl	8002068 <HAL_GetTick>
 80049ec:	61b8      	str	r0, [r7, #24]

  /* Calculate Timeout based on a software loop to avoid blocking issue if Systick is disabled */
  count = tmp_timeout * ((SystemCoreClock * 32U) >> 20U);
 80049ee:	4b39      	ldr	r3, [pc, #228]	; (8004ad4 <SPI_WaitFlagStateUntilTimeout+0x10c>)
 80049f0:	681b      	ldr	r3, [r3, #0]
 80049f2:	015b      	lsls	r3, r3, #5
 80049f4:	0d1b      	lsrs	r3, r3, #20
 80049f6:	69fa      	ldr	r2, [r7, #28]
 80049f8:	fb02 f303 	mul.w	r3, r2, r3
 80049fc:	617b      	str	r3, [r7, #20]

  while ((__HAL_SPI_GET_FLAG(hspi, Flag) ? SET : RESET) != State)
 80049fe:	e054      	b.n	8004aaa <SPI_WaitFlagStateUntilTimeout+0xe2>
  {
    if (Timeout != HAL_MAX_DELAY)
 8004a00:	683b      	ldr	r3, [r7, #0]
 8004a02:	f1b3 3fff 	cmp.w	r3, #4294967295
 8004a06:	d050      	beq.n	8004aaa <SPI_WaitFlagStateUntilTimeout+0xe2>
    {
      if (((HAL_GetTick() - tmp_tickstart) >= tmp_timeout) || (tmp_timeout == 0U))
 8004a08:	f7fd fb2e 	bl	8002068 <HAL_GetTick>
 8004a0c:	4602      	mov	r2, r0
 8004a0e:	69bb      	ldr	r3, [r7, #24]
 8004a10:	1ad3      	subs	r3, r2, r3
 8004a12:	69fa      	ldr	r2, [r7, #28]
 8004a14:	429a      	cmp	r2, r3
 8004a16:	d902      	bls.n	8004a1e <SPI_WaitFlagStateUntilTimeout+0x56>
 8004a18:	69fb      	ldr	r3, [r7, #28]
 8004a1a:	2b00      	cmp	r3, #0
 8004a1c:	d13d      	bne.n	8004a9a <SPI_WaitFlagStateUntilTimeout+0xd2>
        /* Disable the SPI and reset the CRC: the CRC value should be cleared
           on both master and slave sides in order to resynchronize the master
           and slave for their respective CRC calculation */

        /* Disable TXE, RXNE and ERR interrupts for the interrupt process */
        __HAL_SPI_DISABLE_IT(hspi, (SPI_IT_TXE | SPI_IT_RXNE | SPI_IT_ERR));
 8004a1e:	68fb      	ldr	r3, [r7, #12]
 8004a20:	681b      	ldr	r3, [r3, #0]
 8004a22:	685a      	ldr	r2, [r3, #4]
 8004a24:	68fb      	ldr	r3, [r7, #12]
 8004a26:	681b      	ldr	r3, [r3, #0]
 8004a28:	f022 02e0 	bic.w	r2, r2, #224	; 0xe0
 8004a2c:	605a      	str	r2, [r3, #4]

        if ((hspi->Init.Mode == SPI_MODE_MASTER) && ((hspi->Init.Direction == SPI_DIRECTION_1LINE)
 8004a2e:	68fb      	ldr	r3, [r7, #12]
 8004a30:	685b      	ldr	r3, [r3, #4]
 8004a32:	f5b3 7f82 	cmp.w	r3, #260	; 0x104
 8004a36:	d111      	bne.n	8004a5c <SPI_WaitFlagStateUntilTimeout+0x94>
 8004a38:	68fb      	ldr	r3, [r7, #12]
 8004a3a:	689b      	ldr	r3, [r3, #8]
 8004a3c:	f5b3 4f00 	cmp.w	r3, #32768	; 0x8000
 8004a40:	d004      	beq.n	8004a4c <SPI_WaitFlagStateUntilTimeout+0x84>
                                                     || (hspi->Init.Direction == SPI_DIRECTION_2LINES_RXONLY)))
 8004a42:	68fb      	ldr	r3, [r7, #12]
 8004a44:	689b      	ldr	r3, [r3, #8]
 8004a46:	f5b3 6f80 	cmp.w	r3, #1024	; 0x400
 8004a4a:	d107      	bne.n	8004a5c <SPI_WaitFlagStateUntilTimeout+0x94>
        {
          /* Disable SPI peripheral */
          __HAL_SPI_DISABLE(hspi);
 8004a4c:	68fb      	ldr	r3, [r7, #12]
 8004a4e:	681b      	ldr	r3, [r3, #0]
 8004a50:	681a      	ldr	r2, [r3, #0]
 8004a52:	68fb      	ldr	r3, [r7, #12]
 8004a54:	681b      	ldr	r3, [r3, #0]
 8004a56:	f022 0240 	bic.w	r2, r2, #64	; 0x40
 8004a5a:	601a      	str	r2, [r3, #0]
        }

        /* Reset CRC Calculation */
        if (hspi->Init.CRCCalculation == SPI_CRCCALCULATION_ENABLE)
 8004a5c:	68fb      	ldr	r3, [r7, #12]
 8004a5e:	6a9b      	ldr	r3, [r3, #40]	; 0x28
 8004a60:	f5b3 5f00 	cmp.w	r3, #8192	; 0x2000
 8004a64:	d10f      	bne.n	8004a86 <SPI_WaitFlagStateUntilTimeout+0xbe>
        {
          SPI_RESET_CRC(hspi);
 8004a66:	68fb      	ldr	r3, [r7, #12]
 8004a68:	681b      	ldr	r3, [r3, #0]
 8004a6a:	681a      	ldr	r2, [r3, #0]
 8004a6c:	68fb      	ldr	r3, [r7, #12]
 8004a6e:	681b      	ldr	r3, [r3, #0]
 8004a70:	f422 5200 	bic.w	r2, r2, #8192	; 0x2000
 8004a74:	601a      	str	r2, [r3, #0]
 8004a76:	68fb      	ldr	r3, [r7, #12]
 8004a78:	681b      	ldr	r3, [r3, #0]
 8004a7a:	681a      	ldr	r2, [r3, #0]
 8004a7c:	68fb      	ldr	r3, [r7, #12]
 8004a7e:	681b      	ldr	r3, [r3, #0]
 8004a80:	f442 5200 	orr.w	r2, r2, #8192	; 0x2000
 8004a84:	601a      	str	r2, [r3, #0]
        }

        hspi->State = HAL_SPI_STATE_READY;
 8004a86:	68fb      	ldr	r3, [r7, #12]
 8004a88:	2201      	movs	r2, #1
 8004a8a:	f883 205d 	strb.w	r2, [r3, #93]	; 0x5d

        /* Process Unlocked */
        __HAL_UNLOCK(hspi);
 8004a8e:	68fb      	ldr	r3, [r7, #12]
 8004a90:	2200      	movs	r2, #0
 8004a92:	f883 205c 	strb.w	r2, [r3, #92]	; 0x5c

        return HAL_TIMEOUT;
 8004a96:	2303      	movs	r3, #3
 8004a98:	e017      	b.n	8004aca <SPI_WaitFlagStateUntilTimeout+0x102>
      }
      /* If Systick is disabled or not incremented, deactivate timeout to go in disable loop procedure */
      if (count == 0U)
 8004a9a:	697b      	ldr	r3, [r7, #20]
 8004a9c:	2b00      	cmp	r3, #0
 8004a9e:	d101      	bne.n	8004aa4 <SPI_WaitFlagStateUntilTimeout+0xdc>
      {
        tmp_timeout = 0U;
 8004aa0:	2300      	movs	r3, #0
 8004aa2:	61fb      	str	r3, [r7, #28]
      }
      count--;
 8004aa4:	697b      	ldr	r3, [r7, #20]
 8004aa6:	3b01      	subs	r3, #1
 8004aa8:	617b      	str	r3, [r7, #20]
  while ((__HAL_SPI_GET_FLAG(hspi, Flag) ? SET : RESET) != State)
 8004aaa:	68fb      	ldr	r3, [r7, #12]
 8004aac:	681b      	ldr	r3, [r3, #0]
 8004aae:	689a      	ldr	r2, [r3, #8]
 8004ab0:	68bb      	ldr	r3, [r7, #8]
 8004ab2:	4013      	ands	r3, r2
 8004ab4:	68ba      	ldr	r2, [r7, #8]
 8004ab6:	429a      	cmp	r2, r3
 8004ab8:	bf0c      	ite	eq
 8004aba:	2301      	moveq	r3, #1
 8004abc:	2300      	movne	r3, #0
 8004abe:	b2db      	uxtb	r3, r3
 8004ac0:	461a      	mov	r2, r3
 8004ac2:	79fb      	ldrb	r3, [r7, #7]
 8004ac4:	429a      	cmp	r2, r3
 8004ac6:	d19b      	bne.n	8004a00 <SPI_WaitFlagStateUntilTimeout+0x38>
    }
  }

  return HAL_OK;
 8004ac8:	2300      	movs	r3, #0
}
 8004aca:	4618      	mov	r0, r3
 8004acc:	3720      	adds	r7, #32
 8004ace:	46bd      	mov	sp, r7
 8004ad0:	bd80      	pop	{r7, pc}
 8004ad2:	bf00      	nop
 8004ad4:	20000000 	.word	0x20000000

08004ad8 <SPI_WaitFifoStateUntilTimeout>:
  * @param  Tickstart tick start value
  * @retval HAL status
  */
static HAL_StatusTypeDef SPI_WaitFifoStateUntilTimeout(SPI_HandleTypeDef *hspi, uint32_t Fifo, uint32_t State,
                                                       uint32_t Timeout, uint32_t Tickstart)
{
 8004ad8:	b580      	push	{r7, lr}
 8004ada:	b08a      	sub	sp, #40	; 0x28
 8004adc:	af00      	add	r7, sp, #0
 8004ade:	60f8      	str	r0, [r7, #12]
 8004ae0:	60b9      	str	r1, [r7, #8]
 8004ae2:	607a      	str	r2, [r7, #4]
 8004ae4:	603b      	str	r3, [r7, #0]
  __IO uint32_t count;
  uint32_t tmp_timeout;
  uint32_t tmp_tickstart;
  __IO uint8_t  *ptmpreg8;
  __IO uint8_t  tmpreg8 = 0;
 8004ae6:	2300      	movs	r3, #0
 8004ae8:	75fb      	strb	r3, [r7, #23]

  /* Adjust Timeout value  in case of end of transfer */
  tmp_timeout = Timeout - (HAL_GetTick() - Tickstart);
 8004aea:	f7fd fabd 	bl	8002068 <HAL_GetTick>
 8004aee:	4602      	mov	r2, r0
 8004af0:	6b3b      	ldr	r3, [r7, #48]	; 0x30
 8004af2:	1a9b      	subs	r3, r3, r2
 8004af4:	683a      	ldr	r2, [r7, #0]
 8004af6:	4413      	add	r3, r2
 8004af8:	627b      	str	r3, [r7, #36]	; 0x24
  tmp_tickstart = HAL_GetTick();
 8004afa:	f7fd fab5 	bl	8002068 <HAL_GetTick>
 8004afe:	6238      	str	r0, [r7, #32]

  /* Initialize the 8bit temporary pointer */
  ptmpreg8 = (__IO uint8_t *)&hspi->Instance->DR;
 8004b00:	68fb      	ldr	r3, [r7, #12]
 8004b02:	681b      	ldr	r3, [r3, #0]
 8004b04:	330c      	adds	r3, #12
 8004b06:	61fb      	str	r3, [r7, #28]

  /* Calculate Timeout based on a software loop to avoid blocking issue if Systick is disabled */
  count = tmp_timeout * ((SystemCoreClock * 35U) >> 20U);
 8004b08:	4b3d      	ldr	r3, [pc, #244]	; (8004c00 <SPI_WaitFifoStateUntilTimeout+0x128>)
 8004b0a:	681a      	ldr	r2, [r3, #0]
 8004b0c:	4613      	mov	r3, r2
 8004b0e:	009b      	lsls	r3, r3, #2
 8004b10:	4413      	add	r3, r2
 8004b12:	00da      	lsls	r2, r3, #3
 8004b14:	1ad3      	subs	r3, r2, r3
 8004b16:	0d1b      	lsrs	r3, r3, #20
 8004b18:	6a7a      	ldr	r2, [r7, #36]	; 0x24
 8004b1a:	fb02 f303 	mul.w	r3, r2, r3
 8004b1e:	61bb      	str	r3, [r7, #24]

  while ((hspi->Instance->SR & Fifo) != State)
 8004b20:	e060      	b.n	8004be4 <SPI_WaitFifoStateUntilTimeout+0x10c>
  {
    if ((Fifo == SPI_SR_FRLVL) && (State == SPI_FRLVL_EMPTY))
 8004b22:	68bb      	ldr	r3, [r7, #8]
 8004b24:	f5b3 6fc0 	cmp.w	r3, #1536	; 0x600
 8004b28:	d107      	bne.n	8004b3a <SPI_WaitFifoStateUntilTimeout+0x62>
 8004b2a:	687b      	ldr	r3, [r7, #4]
 8004b2c:	2b00      	cmp	r3, #0
 8004b2e:	d104      	bne.n	8004b3a <SPI_WaitFifoStateUntilTimeout+0x62>
    {
      /* Flush Data Register by a blank read */
      tmpreg8 = *ptmpreg8;
 8004b30:	69fb      	ldr	r3, [r7, #28]
 8004b32:	781b      	ldrb	r3, [r3, #0]
 8004b34:	b2db      	uxtb	r3, r3
 8004b36:	75fb      	strb	r3, [r7, #23]
      /* To avoid GCC warning */
      UNUSED(tmpreg8);
 8004b38:	7dfb      	ldrb	r3, [r7, #23]
    }

    if (Timeout != HAL_MAX_DELAY)
 8004b3a:	683b      	ldr	r3, [r7, #0]
 8004b3c:	f1b3 3fff 	cmp.w	r3, #4294967295
 8004b40:	d050      	beq.n	8004be4 <SPI_WaitFifoStateUntilTimeout+0x10c>
    {
      if (((HAL_GetTick() - tmp_tickstart) >= tmp_timeout) || (tmp_timeout == 0U))
 8004b42:	f7fd fa91 	bl	8002068 <HAL_GetTick>
 8004b46:	4602      	mov	r2, r0
 8004b48:	6a3b      	ldr	r3, [r7, #32]
 8004b4a:	1ad3      	subs	r3, r2, r3
 8004b4c:	6a7a      	ldr	r2, [r7, #36]	; 0x24
 8004b4e:	429a      	cmp	r2, r3
 8004b50:	d902      	bls.n	8004b58 <SPI_WaitFifoStateUntilTimeout+0x80>
 8004b52:	6a7b      	ldr	r3, [r7, #36]	; 0x24
 8004b54:	2b00      	cmp	r3, #0
 8004b56:	d13d      	bne.n	8004bd4 <SPI_WaitFifoStateUntilTimeout+0xfc>
        /* Disable the SPI and reset the CRC: the CRC value should be cleared
           on both master and slave sides in order to resynchronize the master
           and slave for their respective CRC calculation */

        /* Disable TXE, RXNE and ERR interrupts for the interrupt process */
        __HAL_SPI_DISABLE_IT(hspi, (SPI_IT_TXE | SPI_IT_RXNE | SPI_IT_ERR));
 8004b58:	68fb      	ldr	r3, [r7, #12]
 8004b5a:	681b      	ldr	r3, [r3, #0]
 8004b5c:	685a      	ldr	r2, [r3, #4]
 8004b5e:	68fb      	ldr	r3, [r7, #12]
 8004b60:	681b      	ldr	r3, [r3, #0]
 8004b62:	f022 02e0 	bic.w	r2, r2, #224	; 0xe0
 8004b66:	605a      	str	r2, [r3, #4]

        if ((hspi->Init.Mode == SPI_MODE_MASTER) && ((hspi->Init.Direction == SPI_DIRECTION_1LINE)
 8004b68:	68fb      	ldr	r3, [r7, #12]
 8004b6a:	685b      	ldr	r3, [r3, #4]
 8004b6c:	f5b3 7f82 	cmp.w	r3, #260	; 0x104
 8004b70:	d111      	bne.n	8004b96 <SPI_WaitFifoStateUntilTimeout+0xbe>
 8004b72:	68fb      	ldr	r3, [r7, #12]
 8004b74:	689b      	ldr	r3, [r3, #8]
 8004b76:	f5b3 4f00 	cmp.w	r3, #32768	; 0x8000
 8004b7a:	d004      	beq.n	8004b86 <SPI_WaitFifoStateUntilTimeout+0xae>
                                                     || (hspi->Init.Direction == SPI_DIRECTION_2LINES_RXONLY)))
 8004b7c:	68fb      	ldr	r3, [r7, #12]
 8004b7e:	689b      	ldr	r3, [r3, #8]
 8004b80:	f5b3 6f80 	cmp.w	r3, #1024	; 0x400
 8004b84:	d107      	bne.n	8004b96 <SPI_WaitFifoStateUntilTimeout+0xbe>
        {
          /* Disable SPI peripheral */
          __HAL_SPI_DISABLE(hspi);
 8004b86:	68fb      	ldr	r3, [r7, #12]
 8004b88:	681b      	ldr	r3, [r3, #0]
 8004b8a:	681a      	ldr	r2, [r3, #0]
 8004b8c:	68fb      	ldr	r3, [r7, #12]
 8004b8e:	681b      	ldr	r3, [r3, #0]
 8004b90:	f022 0240 	bic.w	r2, r2, #64	; 0x40
 8004b94:	601a      	str	r2, [r3, #0]
        }

        /* Reset CRC Calculation */
        if (hspi->Init.CRCCalculation == SPI_CRCCALCULATION_ENABLE)
 8004b96:	68fb      	ldr	r3, [r7, #12]
 8004b98:	6a9b      	ldr	r3, [r3, #40]	; 0x28
 8004b9a:	f5b3 5f00 	cmp.w	r3, #8192	; 0x2000
 8004b9e:	d10f      	bne.n	8004bc0 <SPI_WaitFifoStateUntilTimeout+0xe8>
        {
          SPI_RESET_CRC(hspi);
 8004ba0:	68fb      	ldr	r3, [r7, #12]
 8004ba2:	681b      	ldr	r3, [r3, #0]
 8004ba4:	681a      	ldr	r2, [r3, #0]
 8004ba6:	68fb      	ldr	r3, [r7, #12]
 8004ba8:	681b      	ldr	r3, [r3, #0]
 8004baa:	f422 5200 	bic.w	r2, r2, #8192	; 0x2000
 8004bae:	601a      	str	r2, [r3, #0]
 8004bb0:	68fb      	ldr	r3, [r7, #12]
 8004bb2:	681b      	ldr	r3, [r3, #0]
 8004bb4:	681a      	ldr	r2, [r3, #0]
 8004bb6:	68fb      	ldr	r3, [r7, #12]
 8004bb8:	681b      	ldr	r3, [r3, #0]
 8004bba:	f442 5200 	orr.w	r2, r2, #8192	; 0x2000
 8004bbe:	601a      	str	r2, [r3, #0]
        }

        hspi->State = HAL_SPI_STATE_READY;
 8004bc0:	68fb      	ldr	r3, [r7, #12]
 8004bc2:	2201      	movs	r2, #1
 8004bc4:	f883 205d 	strb.w	r2, [r3, #93]	; 0x5d

        /* Process Unlocked */
        __HAL_UNLOCK(hspi);
 8004bc8:	68fb      	ldr	r3, [r7, #12]
 8004bca:	2200      	movs	r2, #0
 8004bcc:	f883 205c 	strb.w	r2, [r3, #92]	; 0x5c

        return HAL_TIMEOUT;
 8004bd0:	2303      	movs	r3, #3
 8004bd2:	e010      	b.n	8004bf6 <SPI_WaitFifoStateUntilTimeout+0x11e>
      }
      /* If Systick is disabled or not incremented, deactivate timeout to go in disable loop procedure */
      if (count == 0U)
 8004bd4:	69bb      	ldr	r3, [r7, #24]
 8004bd6:	2b00      	cmp	r3, #0
 8004bd8:	d101      	bne.n	8004bde <SPI_WaitFifoStateUntilTimeout+0x106>
      {
        tmp_timeout = 0U;
 8004bda:	2300      	movs	r3, #0
 8004bdc:	627b      	str	r3, [r7, #36]	; 0x24
      }
      count--;
 8004bde:	69bb      	ldr	r3, [r7, #24]
 8004be0:	3b01      	subs	r3, #1
 8004be2:	61bb      	str	r3, [r7, #24]
  while ((hspi->Instance->SR & Fifo) != State)
 8004be4:	68fb      	ldr	r3, [r7, #12]
 8004be6:	681b      	ldr	r3, [r3, #0]
 8004be8:	689a      	ldr	r2, [r3, #8]
 8004bea:	68bb      	ldr	r3, [r7, #8]
 8004bec:	4013      	ands	r3, r2
 8004bee:	687a      	ldr	r2, [r7, #4]
 8004bf0:	429a      	cmp	r2, r3
 8004bf2:	d196      	bne.n	8004b22 <SPI_WaitFifoStateUntilTimeout+0x4a>
    }
  }

  return HAL_OK;
 8004bf4:	2300      	movs	r3, #0
}
 8004bf6:	4618      	mov	r0, r3
 8004bf8:	3728      	adds	r7, #40	; 0x28
 8004bfa:	46bd      	mov	sp, r7
 8004bfc:	bd80      	pop	{r7, pc}
 8004bfe:	bf00      	nop
 8004c00:	20000000 	.word	0x20000000

08004c04 <SPI_EndRxTxTransaction>:
  * @param  Timeout Timeout duration
  * @param  Tickstart tick start value
  * @retval HAL status
  */
static HAL_StatusTypeDef SPI_EndRxTxTransaction(SPI_HandleTypeDef *hspi, uint32_t Timeout, uint32_t Tickstart)
{
 8004c04:	b580      	push	{r7, lr}
 8004c06:	b088      	sub	sp, #32
 8004c08:	af02      	add	r7, sp, #8
 8004c0a:	60f8      	str	r0, [r7, #12]
 8004c0c:	60b9      	str	r1, [r7, #8]
 8004c0e:	607a      	str	r2, [r7, #4]
  /* Control if the TX fifo is empty */
  if (SPI_WaitFifoStateUntilTimeout(hspi, SPI_FLAG_FTLVL, SPI_FTLVL_EMPTY, Timeout, Tickstart) != HAL_OK)
 8004c10:	687b      	ldr	r3, [r7, #4]
 8004c12:	9300      	str	r3, [sp, #0]
 8004c14:	68bb      	ldr	r3, [r7, #8]
 8004c16:	2200      	movs	r2, #0
 8004c18:	f44f 51c0 	mov.w	r1, #6144	; 0x1800
 8004c1c:	68f8      	ldr	r0, [r7, #12]
 8004c1e:	f7ff ff5b 	bl	8004ad8 <SPI_WaitFifoStateUntilTimeout>
 8004c22:	4603      	mov	r3, r0
 8004c24:	2b00      	cmp	r3, #0
 8004c26:	d007      	beq.n	8004c38 <SPI_EndRxTxTransaction+0x34>
  {
    SET_BIT(hspi->ErrorCode, HAL_SPI_ERROR_FLAG);
 8004c28:	68fb      	ldr	r3, [r7, #12]
 8004c2a:	6e1b      	ldr	r3, [r3, #96]	; 0x60
 8004c2c:	f043 0220 	orr.w	r2, r3, #32
 8004c30:	68fb      	ldr	r3, [r7, #12]
 8004c32:	661a      	str	r2, [r3, #96]	; 0x60
    return HAL_TIMEOUT;
 8004c34:	2303      	movs	r3, #3
 8004c36:	e046      	b.n	8004cc6 <SPI_EndRxTxTransaction+0xc2>
  }

  /* Timeout in s */
  __IO uint32_t count = SPI_BSY_FLAG_WORKAROUND_TIMEOUT * (SystemCoreClock / 24U / 1000000U);
 8004c38:	4b25      	ldr	r3, [pc, #148]	; (8004cd0 <SPI_EndRxTxTransaction+0xcc>)
 8004c3a:	681b      	ldr	r3, [r3, #0]
 8004c3c:	4a25      	ldr	r2, [pc, #148]	; (8004cd4 <SPI_EndRxTxTransaction+0xd0>)
 8004c3e:	fba2 2303 	umull	r2, r3, r2, r3
 8004c42:	0d5b      	lsrs	r3, r3, #21
 8004c44:	f44f 727a 	mov.w	r2, #1000	; 0x3e8
 8004c48:	fb02 f303 	mul.w	r3, r2, r3
 8004c4c:	617b      	str	r3, [r7, #20]
  /* Erratasheet: BSY bit may stay high at the end of a data transfer in Slave mode */
  if (hspi->Init.Mode == SPI_MODE_MASTER)
 8004c4e:	68fb      	ldr	r3, [r7, #12]
 8004c50:	685b      	ldr	r3, [r3, #4]
 8004c52:	f5b3 7f82 	cmp.w	r3, #260	; 0x104
 8004c56:	d112      	bne.n	8004c7e <SPI_EndRxTxTransaction+0x7a>
  {
    /* Control the BSY flag */
    if (SPI_WaitFlagStateUntilTimeout(hspi, SPI_FLAG_BSY, RESET, Timeout, Tickstart) != HAL_OK)
 8004c58:	687b      	ldr	r3, [r7, #4]
 8004c5a:	9300      	str	r3, [sp, #0]
 8004c5c:	68bb      	ldr	r3, [r7, #8]
 8004c5e:	2200      	movs	r2, #0
 8004c60:	2180      	movs	r1, #128	; 0x80
 8004c62:	68f8      	ldr	r0, [r7, #12]
 8004c64:	f7ff feb0 	bl	80049c8 <SPI_WaitFlagStateUntilTimeout>
 8004c68:	4603      	mov	r3, r0
 8004c6a:	2b00      	cmp	r3, #0
 8004c6c:	d016      	beq.n	8004c9c <SPI_EndRxTxTransaction+0x98>
    {
      SET_BIT(hspi->ErrorCode, HAL_SPI_ERROR_FLAG);
 8004c6e:	68fb      	ldr	r3, [r7, #12]
 8004c70:	6e1b      	ldr	r3, [r3, #96]	; 0x60
 8004c72:	f043 0220 	orr.w	r2, r3, #32
 8004c76:	68fb      	ldr	r3, [r7, #12]
 8004c78:	661a      	str	r2, [r3, #96]	; 0x60
      return HAL_TIMEOUT;
 8004c7a:	2303      	movs	r3, #3
 8004c7c:	e023      	b.n	8004cc6 <SPI_EndRxTxTransaction+0xc2>
    * User have to calculate the timeout value to fit with the time of 1 byte transfer.
    * This time is directly link with the SPI clock from Master device.
    */
    do
    {
      if (count == 0U)
 8004c7e:	697b      	ldr	r3, [r7, #20]
 8004c80:	2b00      	cmp	r3, #0
 8004c82:	d00a      	beq.n	8004c9a <SPI_EndRxTxTransaction+0x96>
      {
        break;
      }
      count--;
 8004c84:	697b      	ldr	r3, [r7, #20]
 8004c86:	3b01      	subs	r3, #1
 8004c88:	617b      	str	r3, [r7, #20]
    } while (__HAL_SPI_GET_FLAG(hspi, SPI_FLAG_BSY) != RESET);
 8004c8a:	68fb      	ldr	r3, [r7, #12]
 8004c8c:	681b      	ldr	r3, [r3, #0]
 8004c8e:	689b      	ldr	r3, [r3, #8]
 8004c90:	f003 0380 	and.w	r3, r3, #128	; 0x80
 8004c94:	2b80      	cmp	r3, #128	; 0x80
 8004c96:	d0f2      	beq.n	8004c7e <SPI_EndRxTxTransaction+0x7a>
 8004c98:	e000      	b.n	8004c9c <SPI_EndRxTxTransaction+0x98>
        break;
 8004c9a:	bf00      	nop
  }


  /* Control if the RX fifo is empty */
  if (SPI_WaitFifoStateUntilTimeout(hspi, SPI_FLAG_FRLVL, SPI_FRLVL_EMPTY, Timeout, Tickstart) != HAL_OK)
 8004c9c:	687b      	ldr	r3, [r7, #4]
 8004c9e:	9300      	str	r3, [sp, #0]
 8004ca0:	68bb      	ldr	r3, [r7, #8]
 8004ca2:	2200      	movs	r2, #0
 8004ca4:	f44f 61c0 	mov.w	r1, #1536	; 0x600
 8004ca8:	68f8      	ldr	r0, [r7, #12]
 8004caa:	f7ff ff15 	bl	8004ad8 <SPI_WaitFifoStateUntilTimeout>
 8004cae:	4603      	mov	r3, r0
 8004cb0:	2b00      	cmp	r3, #0
 8004cb2:	d007      	beq.n	8004cc4 <SPI_EndRxTxTransaction+0xc0>
  {
    SET_BIT(hspi->ErrorCode, HAL_SPI_ERROR_FLAG);
 8004cb4:	68fb      	ldr	r3, [r7, #12]
 8004cb6:	6e1b      	ldr	r3, [r3, #96]	; 0x60
 8004cb8:	f043 0220 	orr.w	r2, r3, #32
 8004cbc:	68fb      	ldr	r3, [r7, #12]
 8004cbe:	661a      	str	r2, [r3, #96]	; 0x60
    return HAL_TIMEOUT;
 8004cc0:	2303      	movs	r3, #3
 8004cc2:	e000      	b.n	8004cc6 <SPI_EndRxTxTransaction+0xc2>
  }

  return HAL_OK;
 8004cc4:	2300      	movs	r3, #0
}
 8004cc6:	4618      	mov	r0, r3
 8004cc8:	3718      	adds	r7, #24
 8004cca:	46bd      	mov	sp, r7
 8004ccc:	bd80      	pop	{r7, pc}
 8004cce:	bf00      	nop
 8004cd0:	20000000 	.word	0x20000000
 8004cd4:	165e9f81 	.word	0x165e9f81

08004cd8 <HAL_TIM_Base_Init>:
  *         Ex: call @ref HAL_TIM_Base_DeInit() before HAL_TIM_Base_Init()
  * @param  htim TIM Base handle
  * @retval HAL status
  */
HAL_StatusTypeDef HAL_TIM_Base_Init(TIM_HandleTypeDef *htim)
{
 8004cd8:	b580      	push	{r7, lr}
 8004cda:	b082      	sub	sp, #8
 8004cdc:	af00      	add	r7, sp, #0
 8004cde:	6078      	str	r0, [r7, #4]
  /* Check the TIM handle allocation */
  if (htim == NULL)
 8004ce0:	687b      	ldr	r3, [r7, #4]
 8004ce2:	2b00      	cmp	r3, #0
 8004ce4:	d101      	bne.n	8004cea <HAL_TIM_Base_Init+0x12>
  {
    return HAL_ERROR;
 8004ce6:	2301      	movs	r3, #1
 8004ce8:	e049      	b.n	8004d7e <HAL_TIM_Base_Init+0xa6>
  assert_param(IS_TIM_COUNTER_MODE(htim->Init.CounterMode));
  assert_param(IS_TIM_CLOCKDIVISION_DIV(htim->Init.ClockDivision));
  assert_param(IS_TIM_PERIOD(htim, htim->Init.Period));
  assert_param(IS_TIM_AUTORELOAD_PRELOAD(htim->Init.AutoReloadPreload));

  if (htim->State == HAL_TIM_STATE_RESET)
 8004cea:	687b      	ldr	r3, [r7, #4]
 8004cec:	f893 303d 	ldrb.w	r3, [r3, #61]	; 0x3d
 8004cf0:	b2db      	uxtb	r3, r3
 8004cf2:	2b00      	cmp	r3, #0
 8004cf4:	d106      	bne.n	8004d04 <HAL_TIM_Base_Init+0x2c>
  {
    /* Allocate lock resource and initialize it */
    htim->Lock = HAL_UNLOCKED;
 8004cf6:	687b      	ldr	r3, [r7, #4]
 8004cf8:	2200      	movs	r2, #0
 8004cfa:	f883 203c 	strb.w	r2, [r3, #60]	; 0x3c
    }
    /* Init the low level hardware : GPIO, CLOCK, NVIC */
    htim->Base_MspInitCallback(htim);
#else
    /* Init the low level hardware : GPIO, CLOCK, NVIC */
    HAL_TIM_Base_MspInit(htim);
 8004cfe:	6878      	ldr	r0, [r7, #4]
 8004d00:	f000 f841 	bl	8004d86 <HAL_TIM_Base_MspInit>
#endif /* USE_HAL_TIM_REGISTER_CALLBACKS */
  }

  /* Set the TIM state */
  htim->State = HAL_TIM_STATE_BUSY;
 8004d04:	687b      	ldr	r3, [r7, #4]
 8004d06:	2202      	movs	r2, #2
 8004d08:	f883 203d 	strb.w	r2, [r3, #61]	; 0x3d

  /* Set the Time Base configuration */
  TIM_Base_SetConfig(htim->Instance, &htim->Init);
 8004d0c:	687b      	ldr	r3, [r7, #4]
 8004d0e:	681a      	ldr	r2, [r3, #0]
 8004d10:	687b      	ldr	r3, [r7, #4]
 8004d12:	3304      	adds	r3, #4
 8004d14:	4619      	mov	r1, r3
 8004d16:	4610      	mov	r0, r2
 8004d18:	f000 faa6 	bl	8005268 <TIM_Base_SetConfig>

  /* Initialize the DMA burst operation state */
  htim->DMABurstState = HAL_DMA_BURST_STATE_READY;
 8004d1c:	687b      	ldr	r3, [r7, #4]
 8004d1e:	2201      	movs	r2, #1
 8004d20:	f883 2048 	strb.w	r2, [r3, #72]	; 0x48

  /* Initialize the TIM channels state */
  TIM_CHANNEL_STATE_SET_ALL(htim, HAL_TIM_CHANNEL_STATE_READY);
 8004d24:	687b      	ldr	r3, [r7, #4]
 8004d26:	2201      	movs	r2, #1
 8004d28:	f883 203e 	strb.w	r2, [r3, #62]	; 0x3e
 8004d2c:	687b      	ldr	r3, [r7, #4]
 8004d2e:	2201      	movs	r2, #1
 8004d30:	f883 203f 	strb.w	r2, [r3, #63]	; 0x3f
 8004d34:	687b      	ldr	r3, [r7, #4]
 8004d36:	2201      	movs	r2, #1
 8004d38:	f883 2040 	strb.w	r2, [r3, #64]	; 0x40
 8004d3c:	687b      	ldr	r3, [r7, #4]
 8004d3e:	2201      	movs	r2, #1
 8004d40:	f883 2041 	strb.w	r2, [r3, #65]	; 0x41
 8004d44:	687b      	ldr	r3, [r7, #4]
 8004d46:	2201      	movs	r2, #1
 8004d48:	f883 2042 	strb.w	r2, [r3, #66]	; 0x42
 8004d4c:	687b      	ldr	r3, [r7, #4]
 8004d4e:	2201      	movs	r2, #1
 8004d50:	f883 2043 	strb.w	r2, [r3, #67]	; 0x43
  TIM_CHANNEL_N_STATE_SET_ALL(htim, HAL_TIM_CHANNEL_STATE_READY);
 8004d54:	687b      	ldr	r3, [r7, #4]
 8004d56:	2201      	movs	r2, #1
 8004d58:	f883 2044 	strb.w	r2, [r3, #68]	; 0x44
 8004d5c:	687b      	ldr	r3, [r7, #4]
 8004d5e:	2201      	movs	r2, #1
 8004d60:	f883 2045 	strb.w	r2, [r3, #69]	; 0x45
 8004d64:	687b      	ldr	r3, [r7, #4]
 8004d66:	2201      	movs	r2, #1
 8004d68:	f883 2046 	strb.w	r2, [r3, #70]	; 0x46
 8004d6c:	687b      	ldr	r3, [r7, #4]
 8004d6e:	2201      	movs	r2, #1
 8004d70:	f883 2047 	strb.w	r2, [r3, #71]	; 0x47

  /* Initialize the TIM state*/
  htim->State = HAL_TIM_STATE_READY;
 8004d74:	687b      	ldr	r3, [r7, #4]
 8004d76:	2201      	movs	r2, #1
 8004d78:	f883 203d 	strb.w	r2, [r3, #61]	; 0x3d

  return HAL_OK;
 8004d7c:	2300      	movs	r3, #0
}
 8004d7e:	4618      	mov	r0, r3
 8004d80:	3708      	adds	r7, #8
 8004d82:	46bd      	mov	sp, r7
 8004d84:	bd80      	pop	{r7, pc}

08004d86 <HAL_TIM_Base_MspInit>:
  * @brief  Initializes the TIM Base MSP.
  * @param  htim TIM Base handle
  * @retval None
  */
__weak void HAL_TIM_Base_MspInit(TIM_HandleTypeDef *htim)
{
 8004d86:	b480      	push	{r7}
 8004d88:	b083      	sub	sp, #12
 8004d8a:	af00      	add	r7, sp, #0
 8004d8c:	6078      	str	r0, [r7, #4]
  UNUSED(htim);

  /* NOTE : This function should not be modified, when the callback is needed,
            the HAL_TIM_Base_MspInit could be implemented in the user file
   */
}
 8004d8e:	bf00      	nop
 8004d90:	370c      	adds	r7, #12
 8004d92:	46bd      	mov	sp, r7
 8004d94:	f85d 7b04 	ldr.w	r7, [sp], #4
 8004d98:	4770      	bx	lr
	...

08004d9c <HAL_TIM_Base_Start_IT>:
  * @brief  Starts the TIM Base generation in interrupt mode.
  * @param  htim TIM Base handle
  * @retval HAL status
  */
HAL_StatusTypeDef HAL_TIM_Base_Start_IT(TIM_HandleTypeDef *htim)
{
 8004d9c:	b480      	push	{r7}
 8004d9e:	b085      	sub	sp, #20
 8004da0:	af00      	add	r7, sp, #0
 8004da2:	6078      	str	r0, [r7, #4]

  /* Check the parameters */
  assert_param(IS_TIM_INSTANCE(htim->Instance));

  /* Check the TIM state */
  if (htim->State != HAL_TIM_STATE_READY)
 8004da4:	687b      	ldr	r3, [r7, #4]
 8004da6:	f893 303d 	ldrb.w	r3, [r3, #61]	; 0x3d
 8004daa:	b2db      	uxtb	r3, r3
 8004dac:	2b01      	cmp	r3, #1
 8004dae:	d001      	beq.n	8004db4 <HAL_TIM_Base_Start_IT+0x18>
  {
    return HAL_ERROR;
 8004db0:	2301      	movs	r3, #1
 8004db2:	e054      	b.n	8004e5e <HAL_TIM_Base_Start_IT+0xc2>
  }

  /* Set the TIM state */
  htim->State = HAL_TIM_STATE_BUSY;
 8004db4:	687b      	ldr	r3, [r7, #4]
 8004db6:	2202      	movs	r2, #2
 8004db8:	f883 203d 	strb.w	r2, [r3, #61]	; 0x3d

  /* Enable the TIM Update interrupt */
  __HAL_TIM_ENABLE_IT(htim, TIM_IT_UPDATE);
 8004dbc:	687b      	ldr	r3, [r7, #4]
 8004dbe:	681b      	ldr	r3, [r3, #0]
 8004dc0:	68da      	ldr	r2, [r3, #12]
 8004dc2:	687b      	ldr	r3, [r7, #4]
 8004dc4:	681b      	ldr	r3, [r3, #0]
 8004dc6:	f042 0201 	orr.w	r2, r2, #1
 8004dca:	60da      	str	r2, [r3, #12]

  /* Enable the Peripheral, except in trigger mode where enable is automatically done with trigger */
  if (IS_TIM_SLAVE_INSTANCE(htim->Instance))
 8004dcc:	687b      	ldr	r3, [r7, #4]
 8004dce:	681b      	ldr	r3, [r3, #0]
 8004dd0:	4a26      	ldr	r2, [pc, #152]	; (8004e6c <HAL_TIM_Base_Start_IT+0xd0>)
 8004dd2:	4293      	cmp	r3, r2
 8004dd4:	d022      	beq.n	8004e1c <HAL_TIM_Base_Start_IT+0x80>
 8004dd6:	687b      	ldr	r3, [r7, #4]
 8004dd8:	681b      	ldr	r3, [r3, #0]
 8004dda:	f1b3 4f80 	cmp.w	r3, #1073741824	; 0x40000000
 8004dde:	d01d      	beq.n	8004e1c <HAL_TIM_Base_Start_IT+0x80>
 8004de0:	687b      	ldr	r3, [r7, #4]
 8004de2:	681b      	ldr	r3, [r3, #0]
 8004de4:	4a22      	ldr	r2, [pc, #136]	; (8004e70 <HAL_TIM_Base_Start_IT+0xd4>)
 8004de6:	4293      	cmp	r3, r2
 8004de8:	d018      	beq.n	8004e1c <HAL_TIM_Base_Start_IT+0x80>
 8004dea:	687b      	ldr	r3, [r7, #4]
 8004dec:	681b      	ldr	r3, [r3, #0]
 8004dee:	4a21      	ldr	r2, [pc, #132]	; (8004e74 <HAL_TIM_Base_Start_IT+0xd8>)
 8004df0:	4293      	cmp	r3, r2
 8004df2:	d013      	beq.n	8004e1c <HAL_TIM_Base_Start_IT+0x80>
 8004df4:	687b      	ldr	r3, [r7, #4]
 8004df6:	681b      	ldr	r3, [r3, #0]
 8004df8:	4a1f      	ldr	r2, [pc, #124]	; (8004e78 <HAL_TIM_Base_Start_IT+0xdc>)
 8004dfa:	4293      	cmp	r3, r2
 8004dfc:	d00e      	beq.n	8004e1c <HAL_TIM_Base_Start_IT+0x80>
 8004dfe:	687b      	ldr	r3, [r7, #4]
 8004e00:	681b      	ldr	r3, [r3, #0]
 8004e02:	4a1e      	ldr	r2, [pc, #120]	; (8004e7c <HAL_TIM_Base_Start_IT+0xe0>)
 8004e04:	4293      	cmp	r3, r2
 8004e06:	d009      	beq.n	8004e1c <HAL_TIM_Base_Start_IT+0x80>
 8004e08:	687b      	ldr	r3, [r7, #4]
 8004e0a:	681b      	ldr	r3, [r3, #0]
 8004e0c:	4a1c      	ldr	r2, [pc, #112]	; (8004e80 <HAL_TIM_Base_Start_IT+0xe4>)
 8004e0e:	4293      	cmp	r3, r2
 8004e10:	d004      	beq.n	8004e1c <HAL_TIM_Base_Start_IT+0x80>
 8004e12:	687b      	ldr	r3, [r7, #4]
 8004e14:	681b      	ldr	r3, [r3, #0]
 8004e16:	4a1b      	ldr	r2, [pc, #108]	; (8004e84 <HAL_TIM_Base_Start_IT+0xe8>)
 8004e18:	4293      	cmp	r3, r2
 8004e1a:	d115      	bne.n	8004e48 <HAL_TIM_Base_Start_IT+0xac>
  {
    tmpsmcr = htim->Instance->SMCR & TIM_SMCR_SMS;
 8004e1c:	687b      	ldr	r3, [r7, #4]
 8004e1e:	681b      	ldr	r3, [r3, #0]
 8004e20:	689a      	ldr	r2, [r3, #8]
 8004e22:	4b19      	ldr	r3, [pc, #100]	; (8004e88 <HAL_TIM_Base_Start_IT+0xec>)
 8004e24:	4013      	ands	r3, r2
 8004e26:	60fb      	str	r3, [r7, #12]
    if (!IS_TIM_SLAVEMODE_TRIGGER_ENABLED(tmpsmcr))
 8004e28:	68fb      	ldr	r3, [r7, #12]
 8004e2a:	2b06      	cmp	r3, #6
 8004e2c:	d015      	beq.n	8004e5a <HAL_TIM_Base_Start_IT+0xbe>
 8004e2e:	68fb      	ldr	r3, [r7, #12]
 8004e30:	f5b3 3f80 	cmp.w	r3, #65536	; 0x10000
 8004e34:	d011      	beq.n	8004e5a <HAL_TIM_Base_Start_IT+0xbe>
    {
      __HAL_TIM_ENABLE(htim);
 8004e36:	687b      	ldr	r3, [r7, #4]
 8004e38:	681b      	ldr	r3, [r3, #0]
 8004e3a:	681a      	ldr	r2, [r3, #0]
 8004e3c:	687b      	ldr	r3, [r7, #4]
 8004e3e:	681b      	ldr	r3, [r3, #0]
 8004e40:	f042 0201 	orr.w	r2, r2, #1
 8004e44:	601a      	str	r2, [r3, #0]
    if (!IS_TIM_SLAVEMODE_TRIGGER_ENABLED(tmpsmcr))
 8004e46:	e008      	b.n	8004e5a <HAL_TIM_Base_Start_IT+0xbe>
    }
  }
  else
  {
    __HAL_TIM_ENABLE(htim);
 8004e48:	687b      	ldr	r3, [r7, #4]
 8004e4a:	681b      	ldr	r3, [r3, #0]
 8004e4c:	681a      	ldr	r2, [r3, #0]
 8004e4e:	687b      	ldr	r3, [r7, #4]
 8004e50:	681b      	ldr	r3, [r3, #0]
 8004e52:	f042 0201 	orr.w	r2, r2, #1
 8004e56:	601a      	str	r2, [r3, #0]
 8004e58:	e000      	b.n	8004e5c <HAL_TIM_Base_Start_IT+0xc0>
    if (!IS_TIM_SLAVEMODE_TRIGGER_ENABLED(tmpsmcr))
 8004e5a:	bf00      	nop
  }

  /* Return function status */
  return HAL_OK;
 8004e5c:	2300      	movs	r3, #0
}
 8004e5e:	4618      	mov	r0, r3
 8004e60:	3714      	adds	r7, #20
 8004e62:	46bd      	mov	sp, r7
 8004e64:	f85d 7b04 	ldr.w	r7, [sp], #4
 8004e68:	4770      	bx	lr
 8004e6a:	bf00      	nop
 8004e6c:	40010000 	.word	0x40010000
 8004e70:	40000400 	.word	0x40000400
 8004e74:	40000800 	.word	0x40000800
 8004e78:	40000c00 	.word	0x40000c00
 8004e7c:	40010400 	.word	0x40010400
 8004e80:	40014000 	.word	0x40014000
 8004e84:	40001800 	.word	0x40001800
 8004e88:	00010007 	.word	0x00010007

08004e8c <HAL_TIM_Encoder_Init>:
  * @param  htim TIM Encoder Interface handle
  * @param  sConfig TIM Encoder Interface configuration structure
  * @retval HAL status
  */
HAL_StatusTypeDef HAL_TIM_Encoder_Init(TIM_HandleTypeDef *htim,  TIM_Encoder_InitTypeDef *sConfig)
{
 8004e8c:	b580      	push	{r7, lr}
 8004e8e:	b086      	sub	sp, #24
 8004e90:	af00      	add	r7, sp, #0
 8004e92:	6078      	str	r0, [r7, #4]
 8004e94:	6039      	str	r1, [r7, #0]
  uint32_t tmpsmcr;
  uint32_t tmpccmr1;
  uint32_t tmpccer;

  /* Check the TIM handle allocation */
  if (htim == NULL)
 8004e96:	687b      	ldr	r3, [r7, #4]
 8004e98:	2b00      	cmp	r3, #0
 8004e9a:	d101      	bne.n	8004ea0 <HAL_TIM_Encoder_Init+0x14>
  {
    return HAL_ERROR;
 8004e9c:	2301      	movs	r3, #1
 8004e9e:	e08f      	b.n	8004fc0 <HAL_TIM_Encoder_Init+0x134>
  assert_param(IS_TIM_IC_PRESCALER(sConfig->IC2Prescaler));
  assert_param(IS_TIM_IC_FILTER(sConfig->IC1Filter));
  assert_param(IS_TIM_IC_FILTER(sConfig->IC2Filter));
  assert_param(IS_TIM_PERIOD(htim, htim->Init.Period));

  if (htim->State == HAL_TIM_STATE_RESET)
 8004ea0:	687b      	ldr	r3, [r7, #4]
 8004ea2:	f893 303d 	ldrb.w	r3, [r3, #61]	; 0x3d
 8004ea6:	b2db      	uxtb	r3, r3
 8004ea8:	2b00      	cmp	r3, #0
 8004eaa:	d106      	bne.n	8004eba <HAL_TIM_Encoder_Init+0x2e>
  {
    /* Allocate lock resource and initialize it */
    htim->Lock = HAL_UNLOCKED;
 8004eac:	687b      	ldr	r3, [r7, #4]
 8004eae:	2200      	movs	r2, #0
 8004eb0:	f883 203c 	strb.w	r2, [r3, #60]	; 0x3c
    }
    /* Init the low level hardware : GPIO, CLOCK, NVIC */
    htim->Encoder_MspInitCallback(htim);
#else
    /* Init the low level hardware : GPIO, CLOCK, NVIC and DMA */
    HAL_TIM_Encoder_MspInit(htim);
 8004eb4:	6878      	ldr	r0, [r7, #4]
 8004eb6:	f7fc fee9 	bl	8001c8c <HAL_TIM_Encoder_MspInit>
#endif /* USE_HAL_TIM_REGISTER_CALLBACKS */
  }

  /* Set the TIM state */
  htim->State = HAL_TIM_STATE_BUSY;
 8004eba:	687b      	ldr	r3, [r7, #4]
 8004ebc:	2202      	movs	r2, #2
 8004ebe:	f883 203d 	strb.w	r2, [r3, #61]	; 0x3d

  /* Reset the SMS and ECE bits */
  htim->Instance->SMCR &= ~(TIM_SMCR_SMS | TIM_SMCR_ECE);
 8004ec2:	687b      	ldr	r3, [r7, #4]
 8004ec4:	681b      	ldr	r3, [r3, #0]
 8004ec6:	6899      	ldr	r1, [r3, #8]
 8004ec8:	687b      	ldr	r3, [r7, #4]
 8004eca:	681a      	ldr	r2, [r3, #0]
 8004ecc:	4b3e      	ldr	r3, [pc, #248]	; (8004fc8 <HAL_TIM_Encoder_Init+0x13c>)
 8004ece:	400b      	ands	r3, r1
 8004ed0:	6093      	str	r3, [r2, #8]

  /* Configure the Time base in the Encoder Mode */
  TIM_Base_SetConfig(htim->Instance, &htim->Init);
 8004ed2:	687b      	ldr	r3, [r7, #4]
 8004ed4:	681a      	ldr	r2, [r3, #0]
 8004ed6:	687b      	ldr	r3, [r7, #4]
 8004ed8:	3304      	adds	r3, #4
 8004eda:	4619      	mov	r1, r3
 8004edc:	4610      	mov	r0, r2
 8004ede:	f000 f9c3 	bl	8005268 <TIM_Base_SetConfig>

  /* Get the TIMx SMCR register value */
  tmpsmcr = htim->Instance->SMCR;
 8004ee2:	687b      	ldr	r3, [r7, #4]
 8004ee4:	681b      	ldr	r3, [r3, #0]
 8004ee6:	689b      	ldr	r3, [r3, #8]
 8004ee8:	617b      	str	r3, [r7, #20]

  /* Get the TIMx CCMR1 register value */
  tmpccmr1 = htim->Instance->CCMR1;
 8004eea:	687b      	ldr	r3, [r7, #4]
 8004eec:	681b      	ldr	r3, [r3, #0]
 8004eee:	699b      	ldr	r3, [r3, #24]
 8004ef0:	613b      	str	r3, [r7, #16]

  /* Get the TIMx CCER register value */
  tmpccer = htim->Instance->CCER;
 8004ef2:	687b      	ldr	r3, [r7, #4]
 8004ef4:	681b      	ldr	r3, [r3, #0]
 8004ef6:	6a1b      	ldr	r3, [r3, #32]
 8004ef8:	60fb      	str	r3, [r7, #12]

  /* Set the encoder Mode */
  tmpsmcr |= sConfig->EncoderMode;
 8004efa:	683b      	ldr	r3, [r7, #0]
 8004efc:	681b      	ldr	r3, [r3, #0]
 8004efe:	697a      	ldr	r2, [r7, #20]
 8004f00:	4313      	orrs	r3, r2
 8004f02:	617b      	str	r3, [r7, #20]

  /* Select the Capture Compare 1 and the Capture Compare 2 as input */
  tmpccmr1 &= ~(TIM_CCMR1_CC1S | TIM_CCMR1_CC2S);
 8004f04:	693a      	ldr	r2, [r7, #16]
 8004f06:	4b31      	ldr	r3, [pc, #196]	; (8004fcc <HAL_TIM_Encoder_Init+0x140>)
 8004f08:	4013      	ands	r3, r2
 8004f0a:	613b      	str	r3, [r7, #16]
  tmpccmr1 |= (sConfig->IC1Selection | (sConfig->IC2Selection << 8U));
 8004f0c:	683b      	ldr	r3, [r7, #0]
 8004f0e:	689a      	ldr	r2, [r3, #8]
 8004f10:	683b      	ldr	r3, [r7, #0]
 8004f12:	699b      	ldr	r3, [r3, #24]
 8004f14:	021b      	lsls	r3, r3, #8
 8004f16:	4313      	orrs	r3, r2
 8004f18:	693a      	ldr	r2, [r7, #16]
 8004f1a:	4313      	orrs	r3, r2
 8004f1c:	613b      	str	r3, [r7, #16]

  /* Set the Capture Compare 1 and the Capture Compare 2 prescalers and filters */
  tmpccmr1 &= ~(TIM_CCMR1_IC1PSC | TIM_CCMR1_IC2PSC);
 8004f1e:	693a      	ldr	r2, [r7, #16]
 8004f20:	4b2b      	ldr	r3, [pc, #172]	; (8004fd0 <HAL_TIM_Encoder_Init+0x144>)
 8004f22:	4013      	ands	r3, r2
 8004f24:	613b      	str	r3, [r7, #16]
  tmpccmr1 &= ~(TIM_CCMR1_IC1F | TIM_CCMR1_IC2F);
 8004f26:	693a      	ldr	r2, [r7, #16]
 8004f28:	4b2a      	ldr	r3, [pc, #168]	; (8004fd4 <HAL_TIM_Encoder_Init+0x148>)
 8004f2a:	4013      	ands	r3, r2
 8004f2c:	613b      	str	r3, [r7, #16]
  tmpccmr1 |= sConfig->IC1Prescaler | (sConfig->IC2Prescaler << 8U);
 8004f2e:	683b      	ldr	r3, [r7, #0]
 8004f30:	68da      	ldr	r2, [r3, #12]
 8004f32:	683b      	ldr	r3, [r7, #0]
 8004f34:	69db      	ldr	r3, [r3, #28]
 8004f36:	021b      	lsls	r3, r3, #8
 8004f38:	4313      	orrs	r3, r2
 8004f3a:	693a      	ldr	r2, [r7, #16]
 8004f3c:	4313      	orrs	r3, r2
 8004f3e:	613b      	str	r3, [r7, #16]
  tmpccmr1 |= (sConfig->IC1Filter << 4U) | (sConfig->IC2Filter << 12U);
 8004f40:	683b      	ldr	r3, [r7, #0]
 8004f42:	691b      	ldr	r3, [r3, #16]
 8004f44:	011a      	lsls	r2, r3, #4
 8004f46:	683b      	ldr	r3, [r7, #0]
 8004f48:	6a1b      	ldr	r3, [r3, #32]
 8004f4a:	031b      	lsls	r3, r3, #12
 8004f4c:	4313      	orrs	r3, r2
 8004f4e:	693a      	ldr	r2, [r7, #16]
 8004f50:	4313      	orrs	r3, r2
 8004f52:	613b      	str	r3, [r7, #16]

  /* Set the TI1 and the TI2 Polarities */
  tmpccer &= ~(TIM_CCER_CC1P | TIM_CCER_CC2P);
 8004f54:	68fb      	ldr	r3, [r7, #12]
 8004f56:	f023 0322 	bic.w	r3, r3, #34	; 0x22
 8004f5a:	60fb      	str	r3, [r7, #12]
  tmpccer &= ~(TIM_CCER_CC1NP | TIM_CCER_CC2NP);
 8004f5c:	68fb      	ldr	r3, [r7, #12]
 8004f5e:	f023 0388 	bic.w	r3, r3, #136	; 0x88
 8004f62:	60fb      	str	r3, [r7, #12]
  tmpccer |= sConfig->IC1Polarity | (sConfig->IC2Polarity << 4U);
 8004f64:	683b      	ldr	r3, [r7, #0]
 8004f66:	685a      	ldr	r2, [r3, #4]
 8004f68:	683b      	ldr	r3, [r7, #0]
 8004f6a:	695b      	ldr	r3, [r3, #20]
 8004f6c:	011b      	lsls	r3, r3, #4
 8004f6e:	4313      	orrs	r3, r2
 8004f70:	68fa      	ldr	r2, [r7, #12]
 8004f72:	4313      	orrs	r3, r2
 8004f74:	60fb      	str	r3, [r7, #12]

  /* Write to TIMx SMCR */
  htim->Instance->SMCR = tmpsmcr;
 8004f76:	687b      	ldr	r3, [r7, #4]
 8004f78:	681b      	ldr	r3, [r3, #0]
 8004f7a:	697a      	ldr	r2, [r7, #20]
 8004f7c:	609a      	str	r2, [r3, #8]

  /* Write to TIMx CCMR1 */
  htim->Instance->CCMR1 = tmpccmr1;
 8004f7e:	687b      	ldr	r3, [r7, #4]
 8004f80:	681b      	ldr	r3, [r3, #0]
 8004f82:	693a      	ldr	r2, [r7, #16]
 8004f84:	619a      	str	r2, [r3, #24]

  /* Write to TIMx CCER */
  htim->Instance->CCER = tmpccer;
 8004f86:	687b      	ldr	r3, [r7, #4]
 8004f88:	681b      	ldr	r3, [r3, #0]
 8004f8a:	68fa      	ldr	r2, [r7, #12]
 8004f8c:	621a      	str	r2, [r3, #32]

  /* Initialize the DMA burst operation state */
  htim->DMABurstState = HAL_DMA_BURST_STATE_READY;
 8004f8e:	687b      	ldr	r3, [r7, #4]
 8004f90:	2201      	movs	r2, #1
 8004f92:	f883 2048 	strb.w	r2, [r3, #72]	; 0x48

  /* Set the TIM channels state */
  TIM_CHANNEL_STATE_SET(htim, TIM_CHANNEL_1, HAL_TIM_CHANNEL_STATE_READY);
 8004f96:	687b      	ldr	r3, [r7, #4]
 8004f98:	2201      	movs	r2, #1
 8004f9a:	f883 203e 	strb.w	r2, [r3, #62]	; 0x3e
  TIM_CHANNEL_STATE_SET(htim, TIM_CHANNEL_2, HAL_TIM_CHANNEL_STATE_READY);
 8004f9e:	687b      	ldr	r3, [r7, #4]
 8004fa0:	2201      	movs	r2, #1
 8004fa2:	f883 203f 	strb.w	r2, [r3, #63]	; 0x3f
  TIM_CHANNEL_N_STATE_SET(htim, TIM_CHANNEL_1, HAL_TIM_CHANNEL_STATE_READY);
 8004fa6:	687b      	ldr	r3, [r7, #4]
 8004fa8:	2201      	movs	r2, #1
 8004faa:	f883 2044 	strb.w	r2, [r3, #68]	; 0x44
  TIM_CHANNEL_N_STATE_SET(htim, TIM_CHANNEL_2, HAL_TIM_CHANNEL_STATE_READY);
 8004fae:	687b      	ldr	r3, [r7, #4]
 8004fb0:	2201      	movs	r2, #1
 8004fb2:	f883 2045 	strb.w	r2, [r3, #69]	; 0x45

  /* Initialize the TIM state*/
  htim->State = HAL_TIM_STATE_READY;
 8004fb6:	687b      	ldr	r3, [r7, #4]
 8004fb8:	2201      	movs	r2, #1
 8004fba:	f883 203d 	strb.w	r2, [r3, #61]	; 0x3d

  return HAL_OK;
 8004fbe:	2300      	movs	r3, #0
}
 8004fc0:	4618      	mov	r0, r3
 8004fc2:	3718      	adds	r7, #24
 8004fc4:	46bd      	mov	sp, r7
 8004fc6:	bd80      	pop	{r7, pc}
 8004fc8:	fffebff8 	.word	0xfffebff8
 8004fcc:	fffffcfc 	.word	0xfffffcfc
 8004fd0:	fffff3f3 	.word	0xfffff3f3
 8004fd4:	ffff0f0f 	.word	0xffff0f0f

08004fd8 <HAL_TIM_IRQHandler>:
  * @brief  This function handles TIM interrupts requests.
  * @param  htim TIM  handle
  * @retval None
  */
void HAL_TIM_IRQHandler(TIM_HandleTypeDef *htim)
{
 8004fd8:	b580      	push	{r7, lr}
 8004fda:	b082      	sub	sp, #8
 8004fdc:	af00      	add	r7, sp, #0
 8004fde:	6078      	str	r0, [r7, #4]
  /* Capture compare 1 event */
  if (__HAL_TIM_GET_FLAG(htim, TIM_FLAG_CC1) != RESET)
 8004fe0:	687b      	ldr	r3, [r7, #4]
 8004fe2:	681b      	ldr	r3, [r3, #0]
 8004fe4:	691b      	ldr	r3, [r3, #16]
 8004fe6:	f003 0302 	and.w	r3, r3, #2
 8004fea:	2b02      	cmp	r3, #2
 8004fec:	d122      	bne.n	8005034 <HAL_TIM_IRQHandler+0x5c>
  {
    if (__HAL_TIM_GET_IT_SOURCE(htim, TIM_IT_CC1) != RESET)
 8004fee:	687b      	ldr	r3, [r7, #4]
 8004ff0:	681b      	ldr	r3, [r3, #0]
 8004ff2:	68db      	ldr	r3, [r3, #12]
 8004ff4:	f003 0302 	and.w	r3, r3, #2
 8004ff8:	2b02      	cmp	r3, #2
 8004ffa:	d11b      	bne.n	8005034 <HAL_TIM_IRQHandler+0x5c>
    {
      {
        __HAL_TIM_CLEAR_IT(htim, TIM_IT_CC1);
 8004ffc:	687b      	ldr	r3, [r7, #4]
 8004ffe:	681b      	ldr	r3, [r3, #0]
 8005000:	f06f 0202 	mvn.w	r2, #2
 8005004:	611a      	str	r2, [r3, #16]
        htim->Channel = HAL_TIM_ACTIVE_CHANNEL_1;
 8005006:	687b      	ldr	r3, [r7, #4]
 8005008:	2201      	movs	r2, #1
 800500a:	771a      	strb	r2, [r3, #28]

        /* Input capture event */
        if ((htim->Instance->CCMR1 & TIM_CCMR1_CC1S) != 0x00U)
 800500c:	687b      	ldr	r3, [r7, #4]
 800500e:	681b      	ldr	r3, [r3, #0]
 8005010:	699b      	ldr	r3, [r3, #24]
 8005012:	f003 0303 	and.w	r3, r3, #3
 8005016:	2b00      	cmp	r3, #0
 8005018:	d003      	beq.n	8005022 <HAL_TIM_IRQHandler+0x4a>
        {
#if (USE_HAL_TIM_REGISTER_CALLBACKS == 1)
          htim->IC_CaptureCallback(htim);
#else
          HAL_TIM_IC_CaptureCallback(htim);
 800501a:	6878      	ldr	r0, [r7, #4]
 800501c:	f000 f905 	bl	800522a <HAL_TIM_IC_CaptureCallback>
 8005020:	e005      	b.n	800502e <HAL_TIM_IRQHandler+0x56>
        {
#if (USE_HAL_TIM_REGISTER_CALLBACKS == 1)
          htim->OC_DelayElapsedCallback(htim);
          htim->PWM_PulseFinishedCallback(htim);
#else
          HAL_TIM_OC_DelayElapsedCallback(htim);
 8005022:	6878      	ldr	r0, [r7, #4]
 8005024:	f000 f8f7 	bl	8005216 <HAL_TIM_OC_DelayElapsedCallback>
          HAL_TIM_PWM_PulseFinishedCallback(htim);
 8005028:	6878      	ldr	r0, [r7, #4]
 800502a:	f000 f908 	bl	800523e <HAL_TIM_PWM_PulseFinishedCallback>
#endif /* USE_HAL_TIM_REGISTER_CALLBACKS */
        }
        htim->Channel = HAL_TIM_ACTIVE_CHANNEL_CLEARED;
 800502e:	687b      	ldr	r3, [r7, #4]
 8005030:	2200      	movs	r2, #0
 8005032:	771a      	strb	r2, [r3, #28]
      }
    }
  }
  /* Capture compare 2 event */
  if (__HAL_TIM_GET_FLAG(htim, TIM_FLAG_CC2) != RESET)
 8005034:	687b      	ldr	r3, [r7, #4]
 8005036:	681b      	ldr	r3, [r3, #0]
 8005038:	691b      	ldr	r3, [r3, #16]
 800503a:	f003 0304 	and.w	r3, r3, #4
 800503e:	2b04      	cmp	r3, #4
 8005040:	d122      	bne.n	8005088 <HAL_TIM_IRQHandler+0xb0>
  {
    if (__HAL_TIM_GET_IT_SOURCE(htim, TIM_IT_CC2) != RESET)
 8005042:	687b      	ldr	r3, [r7, #4]
 8005044:	681b      	ldr	r3, [r3, #0]
 8005046:	68db      	ldr	r3, [r3, #12]
 8005048:	f003 0304 	and.w	r3, r3, #4
 800504c:	2b04      	cmp	r3, #4
 800504e:	d11b      	bne.n	8005088 <HAL_TIM_IRQHandler+0xb0>
    {
      __HAL_TIM_CLEAR_IT(htim, TIM_IT_CC2);
 8005050:	687b      	ldr	r3, [r7, #4]
 8005052:	681b      	ldr	r3, [r3, #0]
 8005054:	f06f 0204 	mvn.w	r2, #4
 8005058:	611a      	str	r2, [r3, #16]
      htim->Channel = HAL_TIM_ACTIVE_CHANNEL_2;
 800505a:	687b      	ldr	r3, [r7, #4]
 800505c:	2202      	movs	r2, #2
 800505e:	771a      	strb	r2, [r3, #28]
      /* Input capture event */
      if ((htim->Instance->CCMR1 & TIM_CCMR1_CC2S) != 0x00U)
 8005060:	687b      	ldr	r3, [r7, #4]
 8005062:	681b      	ldr	r3, [r3, #0]
 8005064:	699b      	ldr	r3, [r3, #24]
 8005066:	f403 7340 	and.w	r3, r3, #768	; 0x300
 800506a:	2b00      	cmp	r3, #0
 800506c:	d003      	beq.n	8005076 <HAL_TIM_IRQHandler+0x9e>
      {
#if (USE_HAL_TIM_REGISTER_CALLBACKS == 1)
        htim->IC_CaptureCallback(htim);
#else
        HAL_TIM_IC_CaptureCallback(htim);
 800506e:	6878      	ldr	r0, [r7, #4]
 8005070:	f000 f8db 	bl	800522a <HAL_TIM_IC_CaptureCallback>
 8005074:	e005      	b.n	8005082 <HAL_TIM_IRQHandler+0xaa>
      {
#if (USE_HAL_TIM_REGISTER_CALLBACKS == 1)
        htim->OC_DelayElapsedCallback(htim);
        htim->PWM_PulseFinishedCallback(htim);
#else
        HAL_TIM_OC_DelayElapsedCallback(htim);
 8005076:	6878      	ldr	r0, [r7, #4]
 8005078:	f000 f8cd 	bl	8005216 <HAL_TIM_OC_DelayElapsedCallback>
        HAL_TIM_PWM_PulseFinishedCallback(htim);
 800507c:	6878      	ldr	r0, [r7, #4]
 800507e:	f000 f8de 	bl	800523e <HAL_TIM_PWM_PulseFinishedCallback>
#endif /* USE_HAL_TIM_REGISTER_CALLBACKS */
      }
      htim->Channel = HAL_TIM_ACTIVE_CHANNEL_CLEARED;
 8005082:	687b      	ldr	r3, [r7, #4]
 8005084:	2200      	movs	r2, #0
 8005086:	771a      	strb	r2, [r3, #28]
    }
  }
  /* Capture compare 3 event */
  if (__HAL_TIM_GET_FLAG(htim, TIM_FLAG_CC3) != RESET)
 8005088:	687b      	ldr	r3, [r7, #4]
 800508a:	681b      	ldr	r3, [r3, #0]
 800508c:	691b      	ldr	r3, [r3, #16]
 800508e:	f003 0308 	and.w	r3, r3, #8
 8005092:	2b08      	cmp	r3, #8
 8005094:	d122      	bne.n	80050dc <HAL_TIM_IRQHandler+0x104>
  {
    if (__HAL_TIM_GET_IT_SOURCE(htim, TIM_IT_CC3) != RESET)
 8005096:	687b      	ldr	r3, [r7, #4]
 8005098:	681b      	ldr	r3, [r3, #0]
 800509a:	68db      	ldr	r3, [r3, #12]
 800509c:	f003 0308 	and.w	r3, r3, #8
 80050a0:	2b08      	cmp	r3, #8
 80050a2:	d11b      	bne.n	80050dc <HAL_TIM_IRQHandler+0x104>
    {
      __HAL_TIM_CLEAR_IT(htim, TIM_IT_CC3);
 80050a4:	687b      	ldr	r3, [r7, #4]
 80050a6:	681b      	ldr	r3, [r3, #0]
 80050a8:	f06f 0208 	mvn.w	r2, #8
 80050ac:	611a      	str	r2, [r3, #16]
      htim->Channel = HAL_TIM_ACTIVE_CHANNEL_3;
 80050ae:	687b      	ldr	r3, [r7, #4]
 80050b0:	2204      	movs	r2, #4
 80050b2:	771a      	strb	r2, [r3, #28]
      /* Input capture event */
      if ((htim->Instance->CCMR2 & TIM_CCMR2_CC3S) != 0x00U)
 80050b4:	687b      	ldr	r3, [r7, #4]
 80050b6:	681b      	ldr	r3, [r3, #0]
 80050b8:	69db      	ldr	r3, [r3, #28]
 80050ba:	f003 0303 	and.w	r3, r3, #3
 80050be:	2b00      	cmp	r3, #0
 80050c0:	d003      	beq.n	80050ca <HAL_TIM_IRQHandler+0xf2>
      {
#if (USE_HAL_TIM_REGISTER_CALLBACKS == 1)
        htim->IC_CaptureCallback(htim);
#else
        HAL_TIM_IC_CaptureCallback(htim);
 80050c2:	6878      	ldr	r0, [r7, #4]
 80050c4:	f000 f8b1 	bl	800522a <HAL_TIM_IC_CaptureCallback>
 80050c8:	e005      	b.n	80050d6 <HAL_TIM_IRQHandler+0xfe>
      {
#if (USE_HAL_TIM_REGISTER_CALLBACKS == 1)
        htim->OC_DelayElapsedCallback(htim);
        htim->PWM_PulseFinishedCallback(htim);
#else
        HAL_TIM_OC_DelayElapsedCallback(htim);
 80050ca:	6878      	ldr	r0, [r7, #4]
 80050cc:	f000 f8a3 	bl	8005216 <HAL_TIM_OC_DelayElapsedCallback>
        HAL_TIM_PWM_PulseFinishedCallback(htim);
 80050d0:	6878      	ldr	r0, [r7, #4]
 80050d2:	f000 f8b4 	bl	800523e <HAL_TIM_PWM_PulseFinishedCallback>
#endif /* USE_HAL_TIM_REGISTER_CALLBACKS */
      }
      htim->Channel = HAL_TIM_ACTIVE_CHANNEL_CLEARED;
 80050d6:	687b      	ldr	r3, [r7, #4]
 80050d8:	2200      	movs	r2, #0
 80050da:	771a      	strb	r2, [r3, #28]
    }
  }
  /* Capture compare 4 event */
  if (__HAL_TIM_GET_FLAG(htim, TIM_FLAG_CC4) != RESET)
 80050dc:	687b      	ldr	r3, [r7, #4]
 80050de:	681b      	ldr	r3, [r3, #0]
 80050e0:	691b      	ldr	r3, [r3, #16]
 80050e2:	f003 0310 	and.w	r3, r3, #16
 80050e6:	2b10      	cmp	r3, #16
 80050e8:	d122      	bne.n	8005130 <HAL_TIM_IRQHandler+0x158>
  {
    if (__HAL_TIM_GET_IT_SOURCE(htim, TIM_IT_CC4) != RESET)
 80050ea:	687b      	ldr	r3, [r7, #4]
 80050ec:	681b      	ldr	r3, [r3, #0]
 80050ee:	68db      	ldr	r3, [r3, #12]
 80050f0:	f003 0310 	and.w	r3, r3, #16
 80050f4:	2b10      	cmp	r3, #16
 80050f6:	d11b      	bne.n	8005130 <HAL_TIM_IRQHandler+0x158>
    {
      __HAL_TIM_CLEAR_IT(htim, TIM_IT_CC4);
 80050f8:	687b      	ldr	r3, [r7, #4]
 80050fa:	681b      	ldr	r3, [r3, #0]
 80050fc:	f06f 0210 	mvn.w	r2, #16
 8005100:	611a      	str	r2, [r3, #16]
      htim->Channel = HAL_TIM_ACTIVE_CHANNEL_4;
 8005102:	687b      	ldr	r3, [r7, #4]
 8005104:	2208      	movs	r2, #8
 8005106:	771a      	strb	r2, [r3, #28]
      /* Input capture event */
      if ((htim->Instance->CCMR2 & TIM_CCMR2_CC4S) != 0x00U)
 8005108:	687b      	ldr	r3, [r7, #4]
 800510a:	681b      	ldr	r3, [r3, #0]
 800510c:	69db      	ldr	r3, [r3, #28]
 800510e:	f403 7340 	and.w	r3, r3, #768	; 0x300
 8005112:	2b00      	cmp	r3, #0
 8005114:	d003      	beq.n	800511e <HAL_TIM_IRQHandler+0x146>
      {
#if (USE_HAL_TIM_REGISTER_CALLBACKS == 1)
        htim->IC_CaptureCallback(htim);
#else
        HAL_TIM_IC_CaptureCallback(htim);
 8005116:	6878      	ldr	r0, [r7, #4]
 8005118:	f000 f887 	bl	800522a <HAL_TIM_IC_CaptureCallback>
 800511c:	e005      	b.n	800512a <HAL_TIM_IRQHandler+0x152>
      {
#if (USE_HAL_TIM_REGISTER_CALLBACKS == 1)
        htim->OC_DelayElapsedCallback(htim);
        htim->PWM_PulseFinishedCallback(htim);
#else
        HAL_TIM_OC_DelayElapsedCallback(htim);
 800511e:	6878      	ldr	r0, [r7, #4]
 8005120:	f000 f879 	bl	8005216 <HAL_TIM_OC_DelayElapsedCallback>
        HAL_TIM_PWM_PulseFinishedCallback(htim);
 8005124:	6878      	ldr	r0, [r7, #4]
 8005126:	f000 f88a 	bl	800523e <HAL_TIM_PWM_PulseFinishedCallback>
#endif /* USE_HAL_TIM_REGISTER_CALLBACKS */
      }
      htim->Channel = HAL_TIM_ACTIVE_CHANNEL_CLEARED;
 800512a:	687b      	ldr	r3, [r7, #4]
 800512c:	2200      	movs	r2, #0
 800512e:	771a      	strb	r2, [r3, #28]
    }
  }
  /* TIM Update event */
  if (__HAL_TIM_GET_FLAG(htim, TIM_FLAG_UPDATE) != RESET)
 8005130:	687b      	ldr	r3, [r7, #4]
 8005132:	681b      	ldr	r3, [r3, #0]
 8005134:	691b      	ldr	r3, [r3, #16]
 8005136:	f003 0301 	and.w	r3, r3, #1
 800513a:	2b01      	cmp	r3, #1
 800513c:	d10e      	bne.n	800515c <HAL_TIM_IRQHandler+0x184>
  {
    if (__HAL_TIM_GET_IT_SOURCE(htim, TIM_IT_UPDATE) != RESET)
 800513e:	687b      	ldr	r3, [r7, #4]
 8005140:	681b      	ldr	r3, [r3, #0]
 8005142:	68db      	ldr	r3, [r3, #12]
 8005144:	f003 0301 	and.w	r3, r3, #1
 8005148:	2b01      	cmp	r3, #1
 800514a:	d107      	bne.n	800515c <HAL_TIM_IRQHandler+0x184>
    {
      __HAL_TIM_CLEAR_IT(htim, TIM_IT_UPDATE);
 800514c:	687b      	ldr	r3, [r7, #4]
 800514e:	681b      	ldr	r3, [r3, #0]
 8005150:	f06f 0201 	mvn.w	r2, #1
 8005154:	611a      	str	r2, [r3, #16]
#if (USE_HAL_TIM_REGISTER_CALLBACKS == 1)
      htim->PeriodElapsedCallback(htim);
#else
      HAL_TIM_PeriodElapsedCallback(htim);
 8005156:	6878      	ldr	r0, [r7, #4]
 8005158:	f7fc fc24 	bl	80019a4 <HAL_TIM_PeriodElapsedCallback>
#endif /* USE_HAL_TIM_REGISTER_CALLBACKS */
    }
  }
  /* TIM Break input event */
  if (__HAL_TIM_GET_FLAG(htim, TIM_FLAG_BREAK) != RESET)
 800515c:	687b      	ldr	r3, [r7, #4]
 800515e:	681b      	ldr	r3, [r3, #0]
 8005160:	691b      	ldr	r3, [r3, #16]
 8005162:	f003 0380 	and.w	r3, r3, #128	; 0x80
 8005166:	2b80      	cmp	r3, #128	; 0x80
 8005168:	d10e      	bne.n	8005188 <HAL_TIM_IRQHandler+0x1b0>
  {
    if (__HAL_TIM_GET_IT_SOURCE(htim, TIM_IT_BREAK) != RESET)
 800516a:	687b      	ldr	r3, [r7, #4]
 800516c:	681b      	ldr	r3, [r3, #0]
 800516e:	68db      	ldr	r3, [r3, #12]
 8005170:	f003 0380 	and.w	r3, r3, #128	; 0x80
 8005174:	2b80      	cmp	r3, #128	; 0x80
 8005176:	d107      	bne.n	8005188 <HAL_TIM_IRQHandler+0x1b0>
    {
      __HAL_TIM_CLEAR_IT(htim, TIM_IT_BREAK);
 8005178:	687b      	ldr	r3, [r7, #4]
 800517a:	681b      	ldr	r3, [r3, #0]
 800517c:	f06f 0280 	mvn.w	r2, #128	; 0x80
 8005180:	611a      	str	r2, [r3, #16]
#if (USE_HAL_TIM_REGISTER_CALLBACKS == 1)
      htim->BreakCallback(htim);
#else
      HAL_TIMEx_BreakCallback(htim);
 8005182:	6878      	ldr	r0, [r7, #4]
 8005184:	f000 f9a8 	bl	80054d8 <HAL_TIMEx_BreakCallback>
#endif /* USE_HAL_TIM_REGISTER_CALLBACKS */
    }
  }
  /* TIM Break2 input event */
  if (__HAL_TIM_GET_FLAG(htim, TIM_FLAG_BREAK2) != RESET)
 8005188:	687b      	ldr	r3, [r7, #4]
 800518a:	681b      	ldr	r3, [r3, #0]
 800518c:	691b      	ldr	r3, [r3, #16]
 800518e:	f403 7380 	and.w	r3, r3, #256	; 0x100
 8005192:	f5b3 7f80 	cmp.w	r3, #256	; 0x100
 8005196:	d10e      	bne.n	80051b6 <HAL_TIM_IRQHandler+0x1de>
  {
    if (__HAL_TIM_GET_IT_SOURCE(htim, TIM_IT_BREAK) != RESET)
 8005198:	687b      	ldr	r3, [r7, #4]
 800519a:	681b      	ldr	r3, [r3, #0]
 800519c:	68db      	ldr	r3, [r3, #12]
 800519e:	f003 0380 	and.w	r3, r3, #128	; 0x80
 80051a2:	2b80      	cmp	r3, #128	; 0x80
 80051a4:	d107      	bne.n	80051b6 <HAL_TIM_IRQHandler+0x1de>
    {
      __HAL_TIM_CLEAR_FLAG(htim, TIM_FLAG_BREAK2);
 80051a6:	687b      	ldr	r3, [r7, #4]
 80051a8:	681b      	ldr	r3, [r3, #0]
 80051aa:	f46f 7280 	mvn.w	r2, #256	; 0x100
 80051ae:	611a      	str	r2, [r3, #16]
#if (USE_HAL_TIM_REGISTER_CALLBACKS == 1)
      htim->Break2Callback(htim);
#else
      HAL_TIMEx_Break2Callback(htim);
 80051b0:	6878      	ldr	r0, [r7, #4]
 80051b2:	f000 f99b 	bl	80054ec <HAL_TIMEx_Break2Callback>
#endif /* USE_HAL_TIM_REGISTER_CALLBACKS */
    }
  }
  /* TIM Trigger detection event */
  if (__HAL_TIM_GET_FLAG(htim, TIM_FLAG_TRIGGER) != RESET)
 80051b6:	687b      	ldr	r3, [r7, #4]
 80051b8:	681b      	ldr	r3, [r3, #0]
 80051ba:	691b      	ldr	r3, [r3, #16]
 80051bc:	f003 0340 	and.w	r3, r3, #64	; 0x40
 80051c0:	2b40      	cmp	r3, #64	; 0x40
 80051c2:	d10e      	bne.n	80051e2 <HAL_TIM_IRQHandler+0x20a>
  {
    if (__HAL_TIM_GET_IT_SOURCE(htim, TIM_IT_TRIGGER) != RESET)
 80051c4:	687b      	ldr	r3, [r7, #4]
 80051c6:	681b      	ldr	r3, [r3, #0]
 80051c8:	68db      	ldr	r3, [r3, #12]
 80051ca:	f003 0340 	and.w	r3, r3, #64	; 0x40
 80051ce:	2b40      	cmp	r3, #64	; 0x40
 80051d0:	d107      	bne.n	80051e2 <HAL_TIM_IRQHandler+0x20a>
    {
      __HAL_TIM_CLEAR_IT(htim, TIM_IT_TRIGGER);
 80051d2:	687b      	ldr	r3, [r7, #4]
 80051d4:	681b      	ldr	r3, [r3, #0]
 80051d6:	f06f 0240 	mvn.w	r2, #64	; 0x40
 80051da:	611a      	str	r2, [r3, #16]
#if (USE_HAL_TIM_REGISTER_CALLBACKS == 1)
      htim->TriggerCallback(htim);
#else
      HAL_TIM_TriggerCallback(htim);
 80051dc:	6878      	ldr	r0, [r7, #4]
 80051de:	f000 f838 	bl	8005252 <HAL_TIM_TriggerCallback>
#endif /* USE_HAL_TIM_REGISTER_CALLBACKS */
    }
  }
  /* TIM commutation event */
  if (__HAL_TIM_GET_FLAG(htim, TIM_FLAG_COM) != RESET)
 80051e2:	687b      	ldr	r3, [r7, #4]
 80051e4:	681b      	ldr	r3, [r3, #0]
 80051e6:	691b      	ldr	r3, [r3, #16]
 80051e8:	f003 0320 	and.w	r3, r3, #32
 80051ec:	2b20      	cmp	r3, #32
 80051ee:	d10e      	bne.n	800520e <HAL_TIM_IRQHandler+0x236>
  {
    if (__HAL_TIM_GET_IT_SOURCE(htim, TIM_IT_COM) != RESET)
 80051f0:	687b      	ldr	r3, [r7, #4]
 80051f2:	681b      	ldr	r3, [r3, #0]
 80051f4:	68db      	ldr	r3, [r3, #12]
 80051f6:	f003 0320 	and.w	r3, r3, #32
 80051fa:	2b20      	cmp	r3, #32
 80051fc:	d107      	bne.n	800520e <HAL_TIM_IRQHandler+0x236>
    {
      __HAL_TIM_CLEAR_IT(htim, TIM_FLAG_COM);
 80051fe:	687b      	ldr	r3, [r7, #4]
 8005200:	681b      	ldr	r3, [r3, #0]
 8005202:	f06f 0220 	mvn.w	r2, #32
 8005206:	611a      	str	r2, [r3, #16]
#if (USE_HAL_TIM_REGISTER_CALLBACKS == 1)
      htim->CommutationCallback(htim);
#else
      HAL_TIMEx_CommutCallback(htim);
 8005208:	6878      	ldr	r0, [r7, #4]
 800520a:	f000 f95b 	bl	80054c4 <HAL_TIMEx_CommutCallback>
#endif /* USE_HAL_TIM_REGISTER_CALLBACKS */
    }
  }
}
 800520e:	bf00      	nop
 8005210:	3708      	adds	r7, #8
 8005212:	46bd      	mov	sp, r7
 8005214:	bd80      	pop	{r7, pc}

08005216 <HAL_TIM_OC_DelayElapsedCallback>:
  * @brief  Output Compare callback in non-blocking mode
  * @param  htim TIM OC handle
  * @retval None
  */
__weak void HAL_TIM_OC_DelayElapsedCallback(TIM_HandleTypeDef *htim)
{
 8005216:	b480      	push	{r7}
 8005218:	b083      	sub	sp, #12
 800521a:	af00      	add	r7, sp, #0
 800521c:	6078      	str	r0, [r7, #4]
  UNUSED(htim);

  /* NOTE : This function should not be modified, when the callback is needed,
            the HAL_TIM_OC_DelayElapsedCallback could be implemented in the user file
   */
}
 800521e:	bf00      	nop
 8005220:	370c      	adds	r7, #12
 8005222:	46bd      	mov	sp, r7
 8005224:	f85d 7b04 	ldr.w	r7, [sp], #4
 8005228:	4770      	bx	lr

0800522a <HAL_TIM_IC_CaptureCallback>:
  * @brief  Input Capture callback in non-blocking mode
  * @param  htim TIM IC handle
  * @retval None
  */
__weak void HAL_TIM_IC_CaptureCallback(TIM_HandleTypeDef *htim)
{
 800522a:	b480      	push	{r7}
 800522c:	b083      	sub	sp, #12
 800522e:	af00      	add	r7, sp, #0
 8005230:	6078      	str	r0, [r7, #4]
  UNUSED(htim);

  /* NOTE : This function should not be modified, when the callback is needed,
            the HAL_TIM_IC_CaptureCallback could be implemented in the user file
   */
}
 8005232:	bf00      	nop
 8005234:	370c      	adds	r7, #12
 8005236:	46bd      	mov	sp, r7
 8005238:	f85d 7b04 	ldr.w	r7, [sp], #4
 800523c:	4770      	bx	lr

0800523e <HAL_TIM_PWM_PulseFinishedCallback>:
  * @brief  PWM Pulse finished callback in non-blocking mode
  * @param  htim TIM handle
  * @retval None
  */
__weak void HAL_TIM_PWM_PulseFinishedCallback(TIM_HandleTypeDef *htim)
{
 800523e:	b480      	push	{r7}
 8005240:	b083      	sub	sp, #12
 8005242:	af00      	add	r7, sp, #0
 8005244:	6078      	str	r0, [r7, #4]
  UNUSED(htim);

  /* NOTE : This function should not be modified, when the callback is needed,
            the HAL_TIM_PWM_PulseFinishedCallback could be implemented in the user file
   */
}
 8005246:	bf00      	nop
 8005248:	370c      	adds	r7, #12
 800524a:	46bd      	mov	sp, r7
 800524c:	f85d 7b04 	ldr.w	r7, [sp], #4
 8005250:	4770      	bx	lr

08005252 <HAL_TIM_TriggerCallback>:
  * @brief  Hall Trigger detection callback in non-blocking mode
  * @param  htim TIM handle
  * @retval None
  */
__weak void HAL_TIM_TriggerCallback(TIM_HandleTypeDef *htim)
{
 8005252:	b480      	push	{r7}
 8005254:	b083      	sub	sp, #12
 8005256:	af00      	add	r7, sp, #0
 8005258:	6078      	str	r0, [r7, #4]
  UNUSED(htim);

  /* NOTE : This function should not be modified, when the callback is needed,
            the HAL_TIM_TriggerCallback could be implemented in the user file
   */
}
 800525a:	bf00      	nop
 800525c:	370c      	adds	r7, #12
 800525e:	46bd      	mov	sp, r7
 8005260:	f85d 7b04 	ldr.w	r7, [sp], #4
 8005264:	4770      	bx	lr
	...

08005268 <TIM_Base_SetConfig>:
  * @param  TIMx TIM peripheral
  * @param  Structure TIM Base configuration structure
  * @retval None
  */
void TIM_Base_SetConfig(TIM_TypeDef *TIMx, const TIM_Base_InitTypeDef *Structure)
{
 8005268:	b480      	push	{r7}
 800526a:	b085      	sub	sp, #20
 800526c:	af00      	add	r7, sp, #0
 800526e:	6078      	str	r0, [r7, #4]
 8005270:	6039      	str	r1, [r7, #0]
  uint32_t tmpcr1;
  tmpcr1 = TIMx->CR1;
 8005272:	687b      	ldr	r3, [r7, #4]
 8005274:	681b      	ldr	r3, [r3, #0]
 8005276:	60fb      	str	r3, [r7, #12]

  /* Set TIM Time Base Unit parameters ---------------------------------------*/
  if (IS_TIM_COUNTER_MODE_SELECT_INSTANCE(TIMx))
 8005278:	687b      	ldr	r3, [r7, #4]
 800527a:	4a40      	ldr	r2, [pc, #256]	; (800537c <TIM_Base_SetConfig+0x114>)
 800527c:	4293      	cmp	r3, r2
 800527e:	d013      	beq.n	80052a8 <TIM_Base_SetConfig+0x40>
 8005280:	687b      	ldr	r3, [r7, #4]
 8005282:	f1b3 4f80 	cmp.w	r3, #1073741824	; 0x40000000
 8005286:	d00f      	beq.n	80052a8 <TIM_Base_SetConfig+0x40>
 8005288:	687b      	ldr	r3, [r7, #4]
 800528a:	4a3d      	ldr	r2, [pc, #244]	; (8005380 <TIM_Base_SetConfig+0x118>)
 800528c:	4293      	cmp	r3, r2
 800528e:	d00b      	beq.n	80052a8 <TIM_Base_SetConfig+0x40>
 8005290:	687b      	ldr	r3, [r7, #4]
 8005292:	4a3c      	ldr	r2, [pc, #240]	; (8005384 <TIM_Base_SetConfig+0x11c>)
 8005294:	4293      	cmp	r3, r2
 8005296:	d007      	beq.n	80052a8 <TIM_Base_SetConfig+0x40>
 8005298:	687b      	ldr	r3, [r7, #4]
 800529a:	4a3b      	ldr	r2, [pc, #236]	; (8005388 <TIM_Base_SetConfig+0x120>)
 800529c:	4293      	cmp	r3, r2
 800529e:	d003      	beq.n	80052a8 <TIM_Base_SetConfig+0x40>
 80052a0:	687b      	ldr	r3, [r7, #4]
 80052a2:	4a3a      	ldr	r2, [pc, #232]	; (800538c <TIM_Base_SetConfig+0x124>)
 80052a4:	4293      	cmp	r3, r2
 80052a6:	d108      	bne.n	80052ba <TIM_Base_SetConfig+0x52>
  {
    /* Select the Counter Mode */
    tmpcr1 &= ~(TIM_CR1_DIR | TIM_CR1_CMS);
 80052a8:	68fb      	ldr	r3, [r7, #12]
 80052aa:	f023 0370 	bic.w	r3, r3, #112	; 0x70
 80052ae:	60fb      	str	r3, [r7, #12]
    tmpcr1 |= Structure->CounterMode;
 80052b0:	683b      	ldr	r3, [r7, #0]
 80052b2:	685b      	ldr	r3, [r3, #4]
 80052b4:	68fa      	ldr	r2, [r7, #12]
 80052b6:	4313      	orrs	r3, r2
 80052b8:	60fb      	str	r3, [r7, #12]
  }

  if (IS_TIM_CLOCK_DIVISION_INSTANCE(TIMx))
 80052ba:	687b      	ldr	r3, [r7, #4]
 80052bc:	4a2f      	ldr	r2, [pc, #188]	; (800537c <TIM_Base_SetConfig+0x114>)
 80052be:	4293      	cmp	r3, r2
 80052c0:	d02b      	beq.n	800531a <TIM_Base_SetConfig+0xb2>
 80052c2:	687b      	ldr	r3, [r7, #4]
 80052c4:	f1b3 4f80 	cmp.w	r3, #1073741824	; 0x40000000
 80052c8:	d027      	beq.n	800531a <TIM_Base_SetConfig+0xb2>
 80052ca:	687b      	ldr	r3, [r7, #4]
 80052cc:	4a2c      	ldr	r2, [pc, #176]	; (8005380 <TIM_Base_SetConfig+0x118>)
 80052ce:	4293      	cmp	r3, r2
 80052d0:	d023      	beq.n	800531a <TIM_Base_SetConfig+0xb2>
 80052d2:	687b      	ldr	r3, [r7, #4]
 80052d4:	4a2b      	ldr	r2, [pc, #172]	; (8005384 <TIM_Base_SetConfig+0x11c>)
 80052d6:	4293      	cmp	r3, r2
 80052d8:	d01f      	beq.n	800531a <TIM_Base_SetConfig+0xb2>
 80052da:	687b      	ldr	r3, [r7, #4]
 80052dc:	4a2a      	ldr	r2, [pc, #168]	; (8005388 <TIM_Base_SetConfig+0x120>)
 80052de:	4293      	cmp	r3, r2
 80052e0:	d01b      	beq.n	800531a <TIM_Base_SetConfig+0xb2>
 80052e2:	687b      	ldr	r3, [r7, #4]
 80052e4:	4a29      	ldr	r2, [pc, #164]	; (800538c <TIM_Base_SetConfig+0x124>)
 80052e6:	4293      	cmp	r3, r2
 80052e8:	d017      	beq.n	800531a <TIM_Base_SetConfig+0xb2>
 80052ea:	687b      	ldr	r3, [r7, #4]
 80052ec:	4a28      	ldr	r2, [pc, #160]	; (8005390 <TIM_Base_SetConfig+0x128>)
 80052ee:	4293      	cmp	r3, r2
 80052f0:	d013      	beq.n	800531a <TIM_Base_SetConfig+0xb2>
 80052f2:	687b      	ldr	r3, [r7, #4]
 80052f4:	4a27      	ldr	r2, [pc, #156]	; (8005394 <TIM_Base_SetConfig+0x12c>)
 80052f6:	4293      	cmp	r3, r2
 80052f8:	d00f      	beq.n	800531a <TIM_Base_SetConfig+0xb2>
 80052fa:	687b      	ldr	r3, [r7, #4]
 80052fc:	4a26      	ldr	r2, [pc, #152]	; (8005398 <TIM_Base_SetConfig+0x130>)
 80052fe:	4293      	cmp	r3, r2
 8005300:	d00b      	beq.n	800531a <TIM_Base_SetConfig+0xb2>
 8005302:	687b      	ldr	r3, [r7, #4]
 8005304:	4a25      	ldr	r2, [pc, #148]	; (800539c <TIM_Base_SetConfig+0x134>)
 8005306:	4293      	cmp	r3, r2
 8005308:	d007      	beq.n	800531a <TIM_Base_SetConfig+0xb2>
 800530a:	687b      	ldr	r3, [r7, #4]
 800530c:	4a24      	ldr	r2, [pc, #144]	; (80053a0 <TIM_Base_SetConfig+0x138>)
 800530e:	4293      	cmp	r3, r2
 8005310:	d003      	beq.n	800531a <TIM_Base_SetConfig+0xb2>
 8005312:	687b      	ldr	r3, [r7, #4]
 8005314:	4a23      	ldr	r2, [pc, #140]	; (80053a4 <TIM_Base_SetConfig+0x13c>)
 8005316:	4293      	cmp	r3, r2
 8005318:	d108      	bne.n	800532c <TIM_Base_SetConfig+0xc4>
  {
    /* Set the clock division */
    tmpcr1 &= ~TIM_CR1_CKD;
 800531a:	68fb      	ldr	r3, [r7, #12]
 800531c:	f423 7340 	bic.w	r3, r3, #768	; 0x300
 8005320:	60fb      	str	r3, [r7, #12]
    tmpcr1 |= (uint32_t)Structure->ClockDivision;
 8005322:	683b      	ldr	r3, [r7, #0]
 8005324:	68db      	ldr	r3, [r3, #12]
 8005326:	68fa      	ldr	r2, [r7, #12]
 8005328:	4313      	orrs	r3, r2
 800532a:	60fb      	str	r3, [r7, #12]
  }

  /* Set the auto-reload preload */
  MODIFY_REG(tmpcr1, TIM_CR1_ARPE, Structure->AutoReloadPreload);
 800532c:	68fb      	ldr	r3, [r7, #12]
 800532e:	f023 0280 	bic.w	r2, r3, #128	; 0x80
 8005332:	683b      	ldr	r3, [r7, #0]
 8005334:	695b      	ldr	r3, [r3, #20]
 8005336:	4313      	orrs	r3, r2
 8005338:	60fb      	str	r3, [r7, #12]

  TIMx->CR1 = tmpcr1;
 800533a:	687b      	ldr	r3, [r7, #4]
 800533c:	68fa      	ldr	r2, [r7, #12]
 800533e:	601a      	str	r2, [r3, #0]

  /* Set the Autoreload value */
  TIMx->ARR = (uint32_t)Structure->Period ;
 8005340:	683b      	ldr	r3, [r7, #0]
 8005342:	689a      	ldr	r2, [r3, #8]
 8005344:	687b      	ldr	r3, [r7, #4]
 8005346:	62da      	str	r2, [r3, #44]	; 0x2c

  /* Set the Prescaler value */
  TIMx->PSC = Structure->Prescaler;
 8005348:	683b      	ldr	r3, [r7, #0]
 800534a:	681a      	ldr	r2, [r3, #0]
 800534c:	687b      	ldr	r3, [r7, #4]
 800534e:	629a      	str	r2, [r3, #40]	; 0x28

  if (IS_TIM_REPETITION_COUNTER_INSTANCE(TIMx))
 8005350:	687b      	ldr	r3, [r7, #4]
 8005352:	4a0a      	ldr	r2, [pc, #40]	; (800537c <TIM_Base_SetConfig+0x114>)
 8005354:	4293      	cmp	r3, r2
 8005356:	d003      	beq.n	8005360 <TIM_Base_SetConfig+0xf8>
 8005358:	687b      	ldr	r3, [r7, #4]
 800535a:	4a0c      	ldr	r2, [pc, #48]	; (800538c <TIM_Base_SetConfig+0x124>)
 800535c:	4293      	cmp	r3, r2
 800535e:	d103      	bne.n	8005368 <TIM_Base_SetConfig+0x100>
  {
    /* Set the Repetition Counter value */
    TIMx->RCR = Structure->RepetitionCounter;
 8005360:	683b      	ldr	r3, [r7, #0]
 8005362:	691a      	ldr	r2, [r3, #16]
 8005364:	687b      	ldr	r3, [r7, #4]
 8005366:	631a      	str	r2, [r3, #48]	; 0x30
  }

  /* Generate an update event to reload the Prescaler
     and the repetition counter (only for advanced timer) value immediately */
  TIMx->EGR = TIM_EGR_UG;
 8005368:	687b      	ldr	r3, [r7, #4]
 800536a:	2201      	movs	r2, #1
 800536c:	615a      	str	r2, [r3, #20]
}
 800536e:	bf00      	nop
 8005370:	3714      	adds	r7, #20
 8005372:	46bd      	mov	sp, r7
 8005374:	f85d 7b04 	ldr.w	r7, [sp], #4
 8005378:	4770      	bx	lr
 800537a:	bf00      	nop
 800537c:	40010000 	.word	0x40010000
 8005380:	40000400 	.word	0x40000400
 8005384:	40000800 	.word	0x40000800
 8005388:	40000c00 	.word	0x40000c00
 800538c:	40010400 	.word	0x40010400
 8005390:	40014000 	.word	0x40014000
 8005394:	40014400 	.word	0x40014400
 8005398:	40014800 	.word	0x40014800
 800539c:	40001800 	.word	0x40001800
 80053a0:	40001c00 	.word	0x40001c00
 80053a4:	40002000 	.word	0x40002000

080053a8 <HAL_TIMEx_MasterConfigSynchronization>:
  *         mode.
  * @retval HAL status
  */
HAL_StatusTypeDef HAL_TIMEx_MasterConfigSynchronization(TIM_HandleTypeDef *htim,
                                                        const TIM_MasterConfigTypeDef *sMasterConfig)
{
 80053a8:	b480      	push	{r7}
 80053aa:	b085      	sub	sp, #20
 80053ac:	af00      	add	r7, sp, #0
 80053ae:	6078      	str	r0, [r7, #4]
 80053b0:	6039      	str	r1, [r7, #0]
  assert_param(IS_TIM_MASTER_INSTANCE(htim->Instance));
  assert_param(IS_TIM_TRGO_SOURCE(sMasterConfig->MasterOutputTrigger));
  assert_param(IS_TIM_MSM_STATE(sMasterConfig->MasterSlaveMode));

  /* Check input state */
  __HAL_LOCK(htim);
 80053b2:	687b      	ldr	r3, [r7, #4]
 80053b4:	f893 303c 	ldrb.w	r3, [r3, #60]	; 0x3c
 80053b8:	2b01      	cmp	r3, #1
 80053ba:	d101      	bne.n	80053c0 <HAL_TIMEx_MasterConfigSynchronization+0x18>
 80053bc:	2302      	movs	r3, #2
 80053be:	e06d      	b.n	800549c <HAL_TIMEx_MasterConfigSynchronization+0xf4>
 80053c0:	687b      	ldr	r3, [r7, #4]
 80053c2:	2201      	movs	r2, #1
 80053c4:	f883 203c 	strb.w	r2, [r3, #60]	; 0x3c

  /* Change the handler state */
  htim->State = HAL_TIM_STATE_BUSY;
 80053c8:	687b      	ldr	r3, [r7, #4]
 80053ca:	2202      	movs	r2, #2
 80053cc:	f883 203d 	strb.w	r2, [r3, #61]	; 0x3d

  /* Get the TIMx CR2 register value */
  tmpcr2 = htim->Instance->CR2;
 80053d0:	687b      	ldr	r3, [r7, #4]
 80053d2:	681b      	ldr	r3, [r3, #0]
 80053d4:	685b      	ldr	r3, [r3, #4]
 80053d6:	60fb      	str	r3, [r7, #12]

  /* Get the TIMx SMCR register value */
  tmpsmcr = htim->Instance->SMCR;
 80053d8:	687b      	ldr	r3, [r7, #4]
 80053da:	681b      	ldr	r3, [r3, #0]
 80053dc:	689b      	ldr	r3, [r3, #8]
 80053de:	60bb      	str	r3, [r7, #8]

  /* If the timer supports ADC synchronization through TRGO2, set the master mode selection 2 */
  if (IS_TIM_TRGO2_INSTANCE(htim->Instance))
 80053e0:	687b      	ldr	r3, [r7, #4]
 80053e2:	681b      	ldr	r3, [r3, #0]
 80053e4:	4a30      	ldr	r2, [pc, #192]	; (80054a8 <HAL_TIMEx_MasterConfigSynchronization+0x100>)
 80053e6:	4293      	cmp	r3, r2
 80053e8:	d004      	beq.n	80053f4 <HAL_TIMEx_MasterConfigSynchronization+0x4c>
 80053ea:	687b      	ldr	r3, [r7, #4]
 80053ec:	681b      	ldr	r3, [r3, #0]
 80053ee:	4a2f      	ldr	r2, [pc, #188]	; (80054ac <HAL_TIMEx_MasterConfigSynchronization+0x104>)
 80053f0:	4293      	cmp	r3, r2
 80053f2:	d108      	bne.n	8005406 <HAL_TIMEx_MasterConfigSynchronization+0x5e>
  {
    /* Check the parameters */
    assert_param(IS_TIM_TRGO2_SOURCE(sMasterConfig->MasterOutputTrigger2));

    /* Clear the MMS2 bits */
    tmpcr2 &= ~TIM_CR2_MMS2;
 80053f4:	68fb      	ldr	r3, [r7, #12]
 80053f6:	f423 0370 	bic.w	r3, r3, #15728640	; 0xf00000
 80053fa:	60fb      	str	r3, [r7, #12]
    /* Select the TRGO2 source*/
    tmpcr2 |= sMasterConfig->MasterOutputTrigger2;
 80053fc:	683b      	ldr	r3, [r7, #0]
 80053fe:	685b      	ldr	r3, [r3, #4]
 8005400:	68fa      	ldr	r2, [r7, #12]
 8005402:	4313      	orrs	r3, r2
 8005404:	60fb      	str	r3, [r7, #12]
  }

  /* Reset the MMS Bits */
  tmpcr2 &= ~TIM_CR2_MMS;
 8005406:	68fb      	ldr	r3, [r7, #12]
 8005408:	f023 0370 	bic.w	r3, r3, #112	; 0x70
 800540c:	60fb      	str	r3, [r7, #12]
  /* Select the TRGO source */
  tmpcr2 |=  sMasterConfig->MasterOutputTrigger;
 800540e:	683b      	ldr	r3, [r7, #0]
 8005410:	681b      	ldr	r3, [r3, #0]
 8005412:	68fa      	ldr	r2, [r7, #12]
 8005414:	4313      	orrs	r3, r2
 8005416:	60fb      	str	r3, [r7, #12]

  /* Update TIMx CR2 */
  htim->Instance->CR2 = tmpcr2;
 8005418:	687b      	ldr	r3, [r7, #4]
 800541a:	681b      	ldr	r3, [r3, #0]
 800541c:	68fa      	ldr	r2, [r7, #12]
 800541e:	605a      	str	r2, [r3, #4]

  if (IS_TIM_SLAVE_INSTANCE(htim->Instance))
 8005420:	687b      	ldr	r3, [r7, #4]
 8005422:	681b      	ldr	r3, [r3, #0]
 8005424:	4a20      	ldr	r2, [pc, #128]	; (80054a8 <HAL_TIMEx_MasterConfigSynchronization+0x100>)
 8005426:	4293      	cmp	r3, r2
 8005428:	d022      	beq.n	8005470 <HAL_TIMEx_MasterConfigSynchronization+0xc8>
 800542a:	687b      	ldr	r3, [r7, #4]
 800542c:	681b      	ldr	r3, [r3, #0]
 800542e:	f1b3 4f80 	cmp.w	r3, #1073741824	; 0x40000000
 8005432:	d01d      	beq.n	8005470 <HAL_TIMEx_MasterConfigSynchronization+0xc8>
 8005434:	687b      	ldr	r3, [r7, #4]
 8005436:	681b      	ldr	r3, [r3, #0]
 8005438:	4a1d      	ldr	r2, [pc, #116]	; (80054b0 <HAL_TIMEx_MasterConfigSynchronization+0x108>)
 800543a:	4293      	cmp	r3, r2
 800543c:	d018      	beq.n	8005470 <HAL_TIMEx_MasterConfigSynchronization+0xc8>
 800543e:	687b      	ldr	r3, [r7, #4]
 8005440:	681b      	ldr	r3, [r3, #0]
 8005442:	4a1c      	ldr	r2, [pc, #112]	; (80054b4 <HAL_TIMEx_MasterConfigSynchronization+0x10c>)
 8005444:	4293      	cmp	r3, r2
 8005446:	d013      	beq.n	8005470 <HAL_TIMEx_MasterConfigSynchronization+0xc8>
 8005448:	687b      	ldr	r3, [r7, #4]
 800544a:	681b      	ldr	r3, [r3, #0]
 800544c:	4a1a      	ldr	r2, [pc, #104]	; (80054b8 <HAL_TIMEx_MasterConfigSynchronization+0x110>)
 800544e:	4293      	cmp	r3, r2
 8005450:	d00e      	beq.n	8005470 <HAL_TIMEx_MasterConfigSynchronization+0xc8>
 8005452:	687b      	ldr	r3, [r7, #4]
 8005454:	681b      	ldr	r3, [r3, #0]
 8005456:	4a15      	ldr	r2, [pc, #84]	; (80054ac <HAL_TIMEx_MasterConfigSynchronization+0x104>)
 8005458:	4293      	cmp	r3, r2
 800545a:	d009      	beq.n	8005470 <HAL_TIMEx_MasterConfigSynchronization+0xc8>
 800545c:	687b      	ldr	r3, [r7, #4]
 800545e:	681b      	ldr	r3, [r3, #0]
 8005460:	4a16      	ldr	r2, [pc, #88]	; (80054bc <HAL_TIMEx_MasterConfigSynchronization+0x114>)
 8005462:	4293      	cmp	r3, r2
 8005464:	d004      	beq.n	8005470 <HAL_TIMEx_MasterConfigSynchronization+0xc8>
 8005466:	687b      	ldr	r3, [r7, #4]
 8005468:	681b      	ldr	r3, [r3, #0]
 800546a:	4a15      	ldr	r2, [pc, #84]	; (80054c0 <HAL_TIMEx_MasterConfigSynchronization+0x118>)
 800546c:	4293      	cmp	r3, r2
 800546e:	d10c      	bne.n	800548a <HAL_TIMEx_MasterConfigSynchronization+0xe2>
  {
    /* Reset the MSM Bit */
    tmpsmcr &= ~TIM_SMCR_MSM;
 8005470:	68bb      	ldr	r3, [r7, #8]
 8005472:	f023 0380 	bic.w	r3, r3, #128	; 0x80
 8005476:	60bb      	str	r3, [r7, #8]
    /* Set master mode */
    tmpsmcr |= sMasterConfig->MasterSlaveMode;
 8005478:	683b      	ldr	r3, [r7, #0]
 800547a:	689b      	ldr	r3, [r3, #8]
 800547c:	68ba      	ldr	r2, [r7, #8]
 800547e:	4313      	orrs	r3, r2
 8005480:	60bb      	str	r3, [r7, #8]

    /* Update TIMx SMCR */
    htim->Instance->SMCR = tmpsmcr;
 8005482:	687b      	ldr	r3, [r7, #4]
 8005484:	681b      	ldr	r3, [r3, #0]
 8005486:	68ba      	ldr	r2, [r7, #8]
 8005488:	609a      	str	r2, [r3, #8]
  }

  /* Change the htim state */
  htim->State = HAL_TIM_STATE_READY;
 800548a:	687b      	ldr	r3, [r7, #4]
 800548c:	2201      	movs	r2, #1
 800548e:	f883 203d 	strb.w	r2, [r3, #61]	; 0x3d

  __HAL_UNLOCK(htim);
 8005492:	687b      	ldr	r3, [r7, #4]
 8005494:	2200      	movs	r2, #0
 8005496:	f883 203c 	strb.w	r2, [r3, #60]	; 0x3c

  return HAL_OK;
 800549a:	2300      	movs	r3, #0
}
 800549c:	4618      	mov	r0, r3
 800549e:	3714      	adds	r7, #20
 80054a0:	46bd      	mov	sp, r7
 80054a2:	f85d 7b04 	ldr.w	r7, [sp], #4
 80054a6:	4770      	bx	lr
 80054a8:	40010000 	.word	0x40010000
 80054ac:	40010400 	.word	0x40010400
 80054b0:	40000400 	.word	0x40000400
 80054b4:	40000800 	.word	0x40000800
 80054b8:	40000c00 	.word	0x40000c00
 80054bc:	40014000 	.word	0x40014000
 80054c0:	40001800 	.word	0x40001800

080054c4 <HAL_TIMEx_CommutCallback>:
  * @brief  Hall commutation changed callback in non-blocking mode
  * @param  htim TIM handle
  * @retval None
  */
__weak void HAL_TIMEx_CommutCallback(TIM_HandleTypeDef *htim)
{
 80054c4:	b480      	push	{r7}
 80054c6:	b083      	sub	sp, #12
 80054c8:	af00      	add	r7, sp, #0
 80054ca:	6078      	str	r0, [r7, #4]
  UNUSED(htim);

  /* NOTE : This function should not be modified, when the callback is needed,
            the HAL_TIMEx_CommutCallback could be implemented in the user file
   */
}
 80054cc:	bf00      	nop
 80054ce:	370c      	adds	r7, #12
 80054d0:	46bd      	mov	sp, r7
 80054d2:	f85d 7b04 	ldr.w	r7, [sp], #4
 80054d6:	4770      	bx	lr

080054d8 <HAL_TIMEx_BreakCallback>:
  * @brief  Hall Break detection callback in non-blocking mode
  * @param  htim TIM handle
  * @retval None
  */
__weak void HAL_TIMEx_BreakCallback(TIM_HandleTypeDef *htim)
{
 80054d8:	b480      	push	{r7}
 80054da:	b083      	sub	sp, #12
 80054dc:	af00      	add	r7, sp, #0
 80054de:	6078      	str	r0, [r7, #4]
  UNUSED(htim);

  /* NOTE : This function should not be modified, when the callback is needed,
            the HAL_TIMEx_BreakCallback could be implemented in the user file
   */
}
 80054e0:	bf00      	nop
 80054e2:	370c      	adds	r7, #12
 80054e4:	46bd      	mov	sp, r7
 80054e6:	f85d 7b04 	ldr.w	r7, [sp], #4
 80054ea:	4770      	bx	lr

080054ec <HAL_TIMEx_Break2Callback>:
  * @brief  Hall Break2 detection callback in non blocking mode
  * @param  htim: TIM handle
  * @retval None
  */
__weak void HAL_TIMEx_Break2Callback(TIM_HandleTypeDef *htim)
{
 80054ec:	b480      	push	{r7}
 80054ee:	b083      	sub	sp, #12
 80054f0:	af00      	add	r7, sp, #0
 80054f2:	6078      	str	r0, [r7, #4]
  UNUSED(htim);

  /* NOTE : This function Should not be modified, when the callback is needed,
            the HAL_TIMEx_Break2Callback could be implemented in the user file
   */
}
 80054f4:	bf00      	nop
 80054f6:	370c      	adds	r7, #12
 80054f8:	46bd      	mov	sp, r7
 80054fa:	f85d 7b04 	ldr.w	r7, [sp], #4
 80054fe:	4770      	bx	lr

08005500 <makeFreeRtosPriority>:

extern void xPortSysTickHandler(void);

/* Convert from CMSIS type osPriority to FreeRTOS priority number */
static unsigned portBASE_TYPE makeFreeRtosPriority (osPriority priority)
{
 8005500:	b480      	push	{r7}
 8005502:	b085      	sub	sp, #20
 8005504:	af00      	add	r7, sp, #0
 8005506:	4603      	mov	r3, r0
 8005508:	80fb      	strh	r3, [r7, #6]
  unsigned portBASE_TYPE fpriority = tskIDLE_PRIORITY;
 800550a:	2300      	movs	r3, #0
 800550c:	60fb      	str	r3, [r7, #12]
  
  if (priority != osPriorityError) {
 800550e:	f9b7 3006 	ldrsh.w	r3, [r7, #6]
 8005512:	2b84      	cmp	r3, #132	; 0x84
 8005514:	d005      	beq.n	8005522 <makeFreeRtosPriority+0x22>
    fpriority += (priority - osPriorityIdle);
 8005516:	f9b7 2006 	ldrsh.w	r2, [r7, #6]
 800551a:	68fb      	ldr	r3, [r7, #12]
 800551c:	4413      	add	r3, r2
 800551e:	3303      	adds	r3, #3
 8005520:	60fb      	str	r3, [r7, #12]
  }
  
  return fpriority;
 8005522:	68fb      	ldr	r3, [r7, #12]
}
 8005524:	4618      	mov	r0, r3
 8005526:	3714      	adds	r7, #20
 8005528:	46bd      	mov	sp, r7
 800552a:	f85d 7b04 	ldr.w	r7, [sp], #4
 800552e:	4770      	bx	lr

08005530 <inHandlerMode>:
#endif


/* Determine whether we are in thread mode or handler mode. */
static int inHandlerMode (void)
{
 8005530:	b480      	push	{r7}
 8005532:	b083      	sub	sp, #12
 8005534:	af00      	add	r7, sp, #0
 */
__STATIC_FORCEINLINE uint32_t __get_IPSR(void)
{
  uint32_t result;

  __ASM volatile ("MRS %0, ipsr" : "=r" (result) );
 8005536:	f3ef 8305 	mrs	r3, IPSR
 800553a:	607b      	str	r3, [r7, #4]
  return(result);
 800553c:	687b      	ldr	r3, [r7, #4]
  return __get_IPSR() != 0;
 800553e:	2b00      	cmp	r3, #0
 8005540:	bf14      	ite	ne
 8005542:	2301      	movne	r3, #1
 8005544:	2300      	moveq	r3, #0
 8005546:	b2db      	uxtb	r3, r3
}
 8005548:	4618      	mov	r0, r3
 800554a:	370c      	adds	r7, #12
 800554c:	46bd      	mov	sp, r7
 800554e:	f85d 7b04 	ldr.w	r7, [sp], #4
 8005552:	4770      	bx	lr

08005554 <osKernelStart>:
* @param  argument      pointer that is passed to the thread function as start argument.
* @retval status code that indicates the execution status of the function
* @note   MUST REMAIN UNCHANGED: \b osKernelStart shall be consistent in every CMSIS-RTOS.
*/
osStatus osKernelStart (void)
{
 8005554:	b580      	push	{r7, lr}
 8005556:	af00      	add	r7, sp, #0
  vTaskStartScheduler();
 8005558:	f001 f8b6 	bl	80066c8 <vTaskStartScheduler>
  
  return osOK;
 800555c:	2300      	movs	r3, #0
}
 800555e:	4618      	mov	r0, r3
 8005560:	bd80      	pop	{r7, pc}

08005562 <osKernelSysTick>:
* @param  None
* @retval None
* @note   MUST REMAIN UNCHANGED: \b osKernelSysTick shall be consistent in every CMSIS-RTOS.
*/
uint32_t osKernelSysTick(void)
{
 8005562:	b580      	push	{r7, lr}
 8005564:	af00      	add	r7, sp, #0
  if (inHandlerMode()) {
 8005566:	f7ff ffe3 	bl	8005530 <inHandlerMode>
 800556a:	4603      	mov	r3, r0
 800556c:	2b00      	cmp	r3, #0
 800556e:	d003      	beq.n	8005578 <osKernelSysTick+0x16>
    return xTaskGetTickCountFromISR();
 8005570:	f001 f9b2 	bl	80068d8 <xTaskGetTickCountFromISR>
 8005574:	4603      	mov	r3, r0
 8005576:	e002      	b.n	800557e <osKernelSysTick+0x1c>
  }
  else {
    return xTaskGetTickCount();
 8005578:	f001 f99e 	bl	80068b8 <xTaskGetTickCount>
 800557c:	4603      	mov	r3, r0
  }
}
 800557e:	4618      	mov	r0, r3
 8005580:	bd80      	pop	{r7, pc}

08005582 <osThreadCreate>:
* @param  argument      pointer that is passed to the thread function as start argument.
* @retval thread ID for reference by other functions or NULL in case of error.
* @note   MUST REMAIN UNCHANGED: \b osThreadCreate shall be consistent in every CMSIS-RTOS.
*/
osThreadId osThreadCreate (const osThreadDef_t *thread_def, void *argument)
{
 8005582:	b5f0      	push	{r4, r5, r6, r7, lr}
 8005584:	b087      	sub	sp, #28
 8005586:	af02      	add	r7, sp, #8
 8005588:	6078      	str	r0, [r7, #4]
 800558a:	6039      	str	r1, [r7, #0]

    handle = xTaskCreateStatic((TaskFunction_t)thread_def->pthread,(const portCHAR *)thread_def->name,
              thread_def->stacksize, argument, makeFreeRtosPriority(thread_def->tpriority),
              thread_def->buffer, thread_def->controlblock);
#else
  if (xTaskCreate((TaskFunction_t)thread_def->pthread,(const portCHAR *)thread_def->name,
 800558c:	687b      	ldr	r3, [r7, #4]
 800558e:	685c      	ldr	r4, [r3, #4]
 8005590:	687b      	ldr	r3, [r7, #4]
 8005592:	681d      	ldr	r5, [r3, #0]
                   thread_def->stacksize, argument, makeFreeRtosPriority(thread_def->tpriority),
 8005594:	687b      	ldr	r3, [r7, #4]
 8005596:	691b      	ldr	r3, [r3, #16]
  if (xTaskCreate((TaskFunction_t)thread_def->pthread,(const portCHAR *)thread_def->name,
 8005598:	b29e      	uxth	r6, r3
 800559a:	687b      	ldr	r3, [r7, #4]
 800559c:	f9b3 3008 	ldrsh.w	r3, [r3, #8]
 80055a0:	4618      	mov	r0, r3
 80055a2:	f7ff ffad 	bl	8005500 <makeFreeRtosPriority>
 80055a6:	4602      	mov	r2, r0
 80055a8:	f107 030c 	add.w	r3, r7, #12
 80055ac:	9301      	str	r3, [sp, #4]
 80055ae:	9200      	str	r2, [sp, #0]
 80055b0:	683b      	ldr	r3, [r7, #0]
 80055b2:	4632      	mov	r2, r6
 80055b4:	4629      	mov	r1, r5
 80055b6:	4620      	mov	r0, r4
 80055b8:	f000 fe98 	bl	80062ec <xTaskCreate>
 80055bc:	4603      	mov	r3, r0
 80055be:	2b01      	cmp	r3, #1
 80055c0:	d001      	beq.n	80055c6 <osThreadCreate+0x44>
                   &handle) != pdPASS)  {
    return NULL;
 80055c2:	2300      	movs	r3, #0
 80055c4:	e000      	b.n	80055c8 <osThreadCreate+0x46>
  }     
#endif
  
  return handle;
 80055c6:	68fb      	ldr	r3, [r7, #12]
}
 80055c8:	4618      	mov	r0, r3
 80055ca:	3714      	adds	r7, #20
 80055cc:	46bd      	mov	sp, r7
 80055ce:	bdf0      	pop	{r4, r5, r6, r7, pc}

080055d0 <osDelay>:
* @brief   Wait for Timeout (Time Delay)
* @param   millisec      time delay value
* @retval  status code that indicates the execution status of the function.
*/
osStatus osDelay (uint32_t millisec)
{
 80055d0:	b580      	push	{r7, lr}
 80055d2:	b084      	sub	sp, #16
 80055d4:	af00      	add	r7, sp, #0
 80055d6:	6078      	str	r0, [r7, #4]
#if INCLUDE_vTaskDelay
  TickType_t ticks = millisec / portTICK_PERIOD_MS;
 80055d8:	687b      	ldr	r3, [r7, #4]
 80055da:	60fb      	str	r3, [r7, #12]
  
  vTaskDelay(ticks ? ticks : 1);          /* Minimum delay = 1 tick */
 80055dc:	68fb      	ldr	r3, [r7, #12]
 80055de:	2b00      	cmp	r3, #0
 80055e0:	d001      	beq.n	80055e6 <osDelay+0x16>
 80055e2:	68fb      	ldr	r3, [r7, #12]
 80055e4:	e000      	b.n	80055e8 <osDelay+0x18>
 80055e6:	2301      	movs	r3, #1
 80055e8:	4618      	mov	r0, r3
 80055ea:	f001 f837 	bl	800665c <vTaskDelay>
  
  return osOK;
 80055ee:	2300      	movs	r3, #0
#else
  (void) millisec;
  
  return osErrorResource;
#endif
}
 80055f0:	4618      	mov	r0, r3
 80055f2:	3710      	adds	r7, #16
 80055f4:	46bd      	mov	sp, r7
 80055f6:	bd80      	pop	{r7, pc}

080055f8 <osMessageCreate>:
* @param  thread_id     thread ID (obtained by \ref osThreadCreate or \ref osThreadGetId) or NULL.
* @retval  message queue ID for reference by other functions or NULL in case of error.
* @note   MUST REMAIN UNCHANGED: \b osMessageCreate shall be consistent in every CMSIS-RTOS.
*/
osMessageQId osMessageCreate (const osMessageQDef_t *queue_def, osThreadId thread_id)
{
 80055f8:	b580      	push	{r7, lr}
 80055fa:	b082      	sub	sp, #8
 80055fc:	af00      	add	r7, sp, #0
 80055fe:	6078      	str	r0, [r7, #4]
 8005600:	6039      	str	r1, [r7, #0]
    return xQueueCreate(queue_def->queue_sz, queue_def->item_sz);
  }
#elif ( configSUPPORT_STATIC_ALLOCATION == 1 )
  return xQueueCreateStatic(queue_def->queue_sz, queue_def->item_sz, queue_def->buffer, queue_def->controlblock);
#else  
  return xQueueCreate(queue_def->queue_sz, queue_def->item_sz);
 8005602:	687b      	ldr	r3, [r7, #4]
 8005604:	6818      	ldr	r0, [r3, #0]
 8005606:	687b      	ldr	r3, [r7, #4]
 8005608:	685b      	ldr	r3, [r3, #4]
 800560a:	2200      	movs	r2, #0
 800560c:	4619      	mov	r1, r3
 800560e:	f000 f9ed 	bl	80059ec <xQueueGenericCreate>
 8005612:	4603      	mov	r3, r0
#endif
}
 8005614:	4618      	mov	r0, r3
 8005616:	3708      	adds	r7, #8
 8005618:	46bd      	mov	sp, r7
 800561a:	bd80      	pop	{r7, pc}

0800561c <osMessagePut>:
* @param  millisec  timeout value or 0 in case of no time-out.
* @retval status code that indicates the execution status of the function.
* @note   MUST REMAIN UNCHANGED: \b osMessagePut shall be consistent in every CMSIS-RTOS.
*/
osStatus osMessagePut (osMessageQId queue_id, uint32_t info, uint32_t millisec)
{
 800561c:	b580      	push	{r7, lr}
 800561e:	b086      	sub	sp, #24
 8005620:	af00      	add	r7, sp, #0
 8005622:	60f8      	str	r0, [r7, #12]
 8005624:	60b9      	str	r1, [r7, #8]
 8005626:	607a      	str	r2, [r7, #4]
  portBASE_TYPE taskWoken = pdFALSE;
 8005628:	2300      	movs	r3, #0
 800562a:	613b      	str	r3, [r7, #16]
  TickType_t ticks;
  
  ticks = millisec / portTICK_PERIOD_MS;
 800562c:	687b      	ldr	r3, [r7, #4]
 800562e:	617b      	str	r3, [r7, #20]
  if (ticks == 0) {
 8005630:	697b      	ldr	r3, [r7, #20]
 8005632:	2b00      	cmp	r3, #0
 8005634:	d101      	bne.n	800563a <osMessagePut+0x1e>
    ticks = 1;
 8005636:	2301      	movs	r3, #1
 8005638:	617b      	str	r3, [r7, #20]
  }
  
  if (inHandlerMode()) {
 800563a:	f7ff ff79 	bl	8005530 <inHandlerMode>
 800563e:	4603      	mov	r3, r0
 8005640:	2b00      	cmp	r3, #0
 8005642:	d018      	beq.n	8005676 <osMessagePut+0x5a>
    if (xQueueSendFromISR(queue_id, &info, &taskWoken) != pdTRUE) {
 8005644:	f107 0210 	add.w	r2, r7, #16
 8005648:	f107 0108 	add.w	r1, r7, #8
 800564c:	2300      	movs	r3, #0
 800564e:	68f8      	ldr	r0, [r7, #12]
 8005650:	f000 fb30 	bl	8005cb4 <xQueueGenericSendFromISR>
 8005654:	4603      	mov	r3, r0
 8005656:	2b01      	cmp	r3, #1
 8005658:	d001      	beq.n	800565e <osMessagePut+0x42>
      return osErrorOS;
 800565a:	23ff      	movs	r3, #255	; 0xff
 800565c:	e018      	b.n	8005690 <osMessagePut+0x74>
    }
    portEND_SWITCHING_ISR(taskWoken);
 800565e:	693b      	ldr	r3, [r7, #16]
 8005660:	2b00      	cmp	r3, #0
 8005662:	d014      	beq.n	800568e <osMessagePut+0x72>
 8005664:	4b0c      	ldr	r3, [pc, #48]	; (8005698 <osMessagePut+0x7c>)
 8005666:	f04f 5280 	mov.w	r2, #268435456	; 0x10000000
 800566a:	601a      	str	r2, [r3, #0]
 800566c:	f3bf 8f4f 	dsb	sy
 8005670:	f3bf 8f6f 	isb	sy
 8005674:	e00b      	b.n	800568e <osMessagePut+0x72>
  }
  else {
    if (xQueueSend(queue_id, &info, ticks) != pdTRUE) {
 8005676:	f107 0108 	add.w	r1, r7, #8
 800567a:	2300      	movs	r3, #0
 800567c:	697a      	ldr	r2, [r7, #20]
 800567e:	68f8      	ldr	r0, [r7, #12]
 8005680:	f000 fa12 	bl	8005aa8 <xQueueGenericSend>
 8005684:	4603      	mov	r3, r0
 8005686:	2b01      	cmp	r3, #1
 8005688:	d001      	beq.n	800568e <osMessagePut+0x72>
      return osErrorOS;
 800568a:	23ff      	movs	r3, #255	; 0xff
 800568c:	e000      	b.n	8005690 <osMessagePut+0x74>
    }
  }
  
  return osOK;
 800568e:	2300      	movs	r3, #0
}
 8005690:	4618      	mov	r0, r3
 8005692:	3718      	adds	r7, #24
 8005694:	46bd      	mov	sp, r7
 8005696:	bd80      	pop	{r7, pc}
 8005698:	e000ed04 	.word	0xe000ed04

0800569c <osMessageGet>:
* @param  millisec  timeout value or 0 in case of no time-out.
* @retval event information that includes status code.
* @note   MUST REMAIN UNCHANGED: \b osMessageGet shall be consistent in every CMSIS-RTOS.
*/
osEvent osMessageGet (osMessageQId queue_id, uint32_t millisec)
{
 800569c:	b590      	push	{r4, r7, lr}
 800569e:	b08b      	sub	sp, #44	; 0x2c
 80056a0:	af00      	add	r7, sp, #0
 80056a2:	60f8      	str	r0, [r7, #12]
 80056a4:	60b9      	str	r1, [r7, #8]
 80056a6:	607a      	str	r2, [r7, #4]
  portBASE_TYPE taskWoken;
  TickType_t ticks;
  osEvent event;
  
  event.def.message_id = queue_id;
 80056a8:	68bb      	ldr	r3, [r7, #8]
 80056aa:	61fb      	str	r3, [r7, #28]
  event.value.v = 0;
 80056ac:	2300      	movs	r3, #0
 80056ae:	61bb      	str	r3, [r7, #24]
  
  if (queue_id == NULL) {
 80056b0:	68bb      	ldr	r3, [r7, #8]
 80056b2:	2b00      	cmp	r3, #0
 80056b4:	d10a      	bne.n	80056cc <osMessageGet+0x30>
    event.status = osErrorParameter;
 80056b6:	2380      	movs	r3, #128	; 0x80
 80056b8:	617b      	str	r3, [r7, #20]
    return event;
 80056ba:	68fb      	ldr	r3, [r7, #12]
 80056bc:	461c      	mov	r4, r3
 80056be:	f107 0314 	add.w	r3, r7, #20
 80056c2:	e893 0007 	ldmia.w	r3, {r0, r1, r2}
 80056c6:	e884 0007 	stmia.w	r4, {r0, r1, r2}
 80056ca:	e054      	b.n	8005776 <osMessageGet+0xda>
  }
  
  taskWoken = pdFALSE;
 80056cc:	2300      	movs	r3, #0
 80056ce:	623b      	str	r3, [r7, #32]
  
  ticks = 0;
 80056d0:	2300      	movs	r3, #0
 80056d2:	627b      	str	r3, [r7, #36]	; 0x24
  if (millisec == osWaitForever) {
 80056d4:	687b      	ldr	r3, [r7, #4]
 80056d6:	f1b3 3fff 	cmp.w	r3, #4294967295
 80056da:	d103      	bne.n	80056e4 <osMessageGet+0x48>
    ticks = portMAX_DELAY;
 80056dc:	f04f 33ff 	mov.w	r3, #4294967295
 80056e0:	627b      	str	r3, [r7, #36]	; 0x24
 80056e2:	e009      	b.n	80056f8 <osMessageGet+0x5c>
  }
  else if (millisec != 0) {
 80056e4:	687b      	ldr	r3, [r7, #4]
 80056e6:	2b00      	cmp	r3, #0
 80056e8:	d006      	beq.n	80056f8 <osMessageGet+0x5c>
    ticks = millisec / portTICK_PERIOD_MS;
 80056ea:	687b      	ldr	r3, [r7, #4]
 80056ec:	627b      	str	r3, [r7, #36]	; 0x24
    if (ticks == 0) {
 80056ee:	6a7b      	ldr	r3, [r7, #36]	; 0x24
 80056f0:	2b00      	cmp	r3, #0
 80056f2:	d101      	bne.n	80056f8 <osMessageGet+0x5c>
      ticks = 1;
 80056f4:	2301      	movs	r3, #1
 80056f6:	627b      	str	r3, [r7, #36]	; 0x24
    }
  }
  
  if (inHandlerMode()) {
 80056f8:	f7ff ff1a 	bl	8005530 <inHandlerMode>
 80056fc:	4603      	mov	r3, r0
 80056fe:	2b00      	cmp	r3, #0
 8005700:	d01c      	beq.n	800573c <osMessageGet+0xa0>
    if (xQueueReceiveFromISR(queue_id, &event.value.v, &taskWoken) == pdTRUE) {
 8005702:	f107 0220 	add.w	r2, r7, #32
 8005706:	f107 0314 	add.w	r3, r7, #20
 800570a:	3304      	adds	r3, #4
 800570c:	4619      	mov	r1, r3
 800570e:	68b8      	ldr	r0, [r7, #8]
 8005710:	f000 fc56 	bl	8005fc0 <xQueueReceiveFromISR>
 8005714:	4603      	mov	r3, r0
 8005716:	2b01      	cmp	r3, #1
 8005718:	d102      	bne.n	8005720 <osMessageGet+0x84>
      /* We have mail */
      event.status = osEventMessage;
 800571a:	2310      	movs	r3, #16
 800571c:	617b      	str	r3, [r7, #20]
 800571e:	e001      	b.n	8005724 <osMessageGet+0x88>
    }
    else {
      event.status = osOK;
 8005720:	2300      	movs	r3, #0
 8005722:	617b      	str	r3, [r7, #20]
    }
    portEND_SWITCHING_ISR(taskWoken);
 8005724:	6a3b      	ldr	r3, [r7, #32]
 8005726:	2b00      	cmp	r3, #0
 8005728:	d01d      	beq.n	8005766 <osMessageGet+0xca>
 800572a:	4b15      	ldr	r3, [pc, #84]	; (8005780 <osMessageGet+0xe4>)
 800572c:	f04f 5280 	mov.w	r2, #268435456	; 0x10000000
 8005730:	601a      	str	r2, [r3, #0]
 8005732:	f3bf 8f4f 	dsb	sy
 8005736:	f3bf 8f6f 	isb	sy
 800573a:	e014      	b.n	8005766 <osMessageGet+0xca>
  }
  else {
    if (xQueueReceive(queue_id, &event.value.v, ticks) == pdTRUE) {
 800573c:	f107 0314 	add.w	r3, r7, #20
 8005740:	3304      	adds	r3, #4
 8005742:	6a7a      	ldr	r2, [r7, #36]	; 0x24
 8005744:	4619      	mov	r1, r3
 8005746:	68b8      	ldr	r0, [r7, #8]
 8005748:	f000 fb54 	bl	8005df4 <xQueueReceive>
 800574c:	4603      	mov	r3, r0
 800574e:	2b01      	cmp	r3, #1
 8005750:	d102      	bne.n	8005758 <osMessageGet+0xbc>
      /* We have mail */
      event.status = osEventMessage;
 8005752:	2310      	movs	r3, #16
 8005754:	617b      	str	r3, [r7, #20]
 8005756:	e006      	b.n	8005766 <osMessageGet+0xca>
    }
    else {
      event.status = (ticks == 0) ? osOK : osEventTimeout;
 8005758:	6a7b      	ldr	r3, [r7, #36]	; 0x24
 800575a:	2b00      	cmp	r3, #0
 800575c:	d101      	bne.n	8005762 <osMessageGet+0xc6>
 800575e:	2300      	movs	r3, #0
 8005760:	e000      	b.n	8005764 <osMessageGet+0xc8>
 8005762:	2340      	movs	r3, #64	; 0x40
 8005764:	617b      	str	r3, [r7, #20]
    }
  }
  
  return event;
 8005766:	68fb      	ldr	r3, [r7, #12]
 8005768:	461c      	mov	r4, r3
 800576a:	f107 0314 	add.w	r3, r7, #20
 800576e:	e893 0007 	ldmia.w	r3, {r0, r1, r2}
 8005772:	e884 0007 	stmia.w	r4, {r0, r1, r2}
}
 8005776:	68f8      	ldr	r0, [r7, #12]
 8005778:	372c      	adds	r7, #44	; 0x2c
 800577a:	46bd      	mov	sp, r7
 800577c:	bd90      	pop	{r4, r7, pc}
 800577e:	bf00      	nop
 8005780:	e000ed04 	.word	0xe000ed04

08005784 <osDelayUntil>:
*          prior to its first use (PreviousWakeTime = osKernelSysTick() )
* @param   millisec    time delay value
* @retval  status code that indicates the execution status of the function.
*/
osStatus osDelayUntil (uint32_t *PreviousWakeTime, uint32_t millisec)
{
 8005784:	b580      	push	{r7, lr}
 8005786:	b084      	sub	sp, #16
 8005788:	af00      	add	r7, sp, #0
 800578a:	6078      	str	r0, [r7, #4]
 800578c:	6039      	str	r1, [r7, #0]
#if INCLUDE_vTaskDelayUntil
  TickType_t ticks = (millisec / portTICK_PERIOD_MS);
 800578e:	683b      	ldr	r3, [r7, #0]
 8005790:	60fb      	str	r3, [r7, #12]
  vTaskDelayUntil((TickType_t *) PreviousWakeTime, ticks ? ticks : 1);
 8005792:	68fb      	ldr	r3, [r7, #12]
 8005794:	2b00      	cmp	r3, #0
 8005796:	d001      	beq.n	800579c <osDelayUntil+0x18>
 8005798:	68fb      	ldr	r3, [r7, #12]
 800579a:	e000      	b.n	800579e <osDelayUntil+0x1a>
 800579c:	2301      	movs	r3, #1
 800579e:	4619      	mov	r1, r3
 80057a0:	6878      	ldr	r0, [r7, #4]
 80057a2:	f000 fed7 	bl	8006554 <vTaskDelayUntil>
  
  return osOK;
 80057a6:	2300      	movs	r3, #0
  (void) millisec;
  (void) PreviousWakeTime;
  
  return osErrorResource;
#endif
}
 80057a8:	4618      	mov	r0, r3
 80057aa:	3710      	adds	r7, #16
 80057ac:	46bd      	mov	sp, r7
 80057ae:	bd80      	pop	{r7, pc}

080057b0 <vListInitialise>:
/*-----------------------------------------------------------
 * PUBLIC LIST API documented in list.h
 *----------------------------------------------------------*/

void vListInitialise( List_t * const pxList )
{
 80057b0:	b480      	push	{r7}
 80057b2:	b083      	sub	sp, #12
 80057b4:	af00      	add	r7, sp, #0
 80057b6:	6078      	str	r0, [r7, #4]
	/* The list structure contains a list item which is used to mark the
	end of the list.  To initialise the list the list end is inserted
	as the only list entry. */
	pxList->pxIndex = ( ListItem_t * ) &( pxList->xListEnd );			/*lint !e826 !e740 !e9087 The mini list structure is used as the list end to save RAM.  This is checked and valid. */
 80057b8:	687b      	ldr	r3, [r7, #4]
 80057ba:	f103 0208 	add.w	r2, r3, #8
 80057be:	687b      	ldr	r3, [r7, #4]
 80057c0:	605a      	str	r2, [r3, #4]

	/* The list end value is the highest possible value in the list to
	ensure it remains at the end of the list. */
	pxList->xListEnd.xItemValue = portMAX_DELAY;
 80057c2:	687b      	ldr	r3, [r7, #4]
 80057c4:	f04f 32ff 	mov.w	r2, #4294967295
 80057c8:	609a      	str	r2, [r3, #8]

	/* The list end next and previous pointers point to itself so we know
	when the list is empty. */
	pxList->xListEnd.pxNext = ( ListItem_t * ) &( pxList->xListEnd );	/*lint !e826 !e740 !e9087 The mini list structure is used as the list end to save RAM.  This is checked and valid. */
 80057ca:	687b      	ldr	r3, [r7, #4]
 80057cc:	f103 0208 	add.w	r2, r3, #8
 80057d0:	687b      	ldr	r3, [r7, #4]
 80057d2:	60da      	str	r2, [r3, #12]
	pxList->xListEnd.pxPrevious = ( ListItem_t * ) &( pxList->xListEnd );/*lint !e826 !e740 !e9087 The mini list structure is used as the list end to save RAM.  This is checked and valid. */
 80057d4:	687b      	ldr	r3, [r7, #4]
 80057d6:	f103 0208 	add.w	r2, r3, #8
 80057da:	687b      	ldr	r3, [r7, #4]
 80057dc:	611a      	str	r2, [r3, #16]

	pxList->uxNumberOfItems = ( UBaseType_t ) 0U;
 80057de:	687b      	ldr	r3, [r7, #4]
 80057e0:	2200      	movs	r2, #0
 80057e2:	601a      	str	r2, [r3, #0]

	/* Write known values into the list if
	configUSE_LIST_DATA_INTEGRITY_CHECK_BYTES is set to 1. */
	listSET_LIST_INTEGRITY_CHECK_1_VALUE( pxList );
	listSET_LIST_INTEGRITY_CHECK_2_VALUE( pxList );
}
 80057e4:	bf00      	nop
 80057e6:	370c      	adds	r7, #12
 80057e8:	46bd      	mov	sp, r7
 80057ea:	f85d 7b04 	ldr.w	r7, [sp], #4
 80057ee:	4770      	bx	lr

080057f0 <vListInitialiseItem>:
/*-----------------------------------------------------------*/

void vListInitialiseItem( ListItem_t * const pxItem )
{
 80057f0:	b480      	push	{r7}
 80057f2:	b083      	sub	sp, #12
 80057f4:	af00      	add	r7, sp, #0
 80057f6:	6078      	str	r0, [r7, #4]
	/* Make sure the list item is not recorded as being on a list. */
	pxItem->pxContainer = NULL;
 80057f8:	687b      	ldr	r3, [r7, #4]
 80057fa:	2200      	movs	r2, #0
 80057fc:	611a      	str	r2, [r3, #16]

	/* Write known values into the list item if
	configUSE_LIST_DATA_INTEGRITY_CHECK_BYTES is set to 1. */
	listSET_FIRST_LIST_ITEM_INTEGRITY_CHECK_VALUE( pxItem );
	listSET_SECOND_LIST_ITEM_INTEGRITY_CHECK_VALUE( pxItem );
}
 80057fe:	bf00      	nop
 8005800:	370c      	adds	r7, #12
 8005802:	46bd      	mov	sp, r7
 8005804:	f85d 7b04 	ldr.w	r7, [sp], #4
 8005808:	4770      	bx	lr

0800580a <vListInsertEnd>:
/*-----------------------------------------------------------*/

void vListInsertEnd( List_t * const pxList, ListItem_t * const pxNewListItem )
{
 800580a:	b480      	push	{r7}
 800580c:	b085      	sub	sp, #20
 800580e:	af00      	add	r7, sp, #0
 8005810:	6078      	str	r0, [r7, #4]
 8005812:	6039      	str	r1, [r7, #0]
ListItem_t * const pxIndex = pxList->pxIndex;
 8005814:	687b      	ldr	r3, [r7, #4]
 8005816:	685b      	ldr	r3, [r3, #4]
 8005818:	60fb      	str	r3, [r7, #12]
	listTEST_LIST_ITEM_INTEGRITY( pxNewListItem );

	/* Insert a new list item into pxList, but rather than sort the list,
	makes the new list item the last item to be removed by a call to
	listGET_OWNER_OF_NEXT_ENTRY(). */
	pxNewListItem->pxNext = pxIndex;
 800581a:	683b      	ldr	r3, [r7, #0]
 800581c:	68fa      	ldr	r2, [r7, #12]
 800581e:	605a      	str	r2, [r3, #4]
	pxNewListItem->pxPrevious = pxIndex->pxPrevious;
 8005820:	68fb      	ldr	r3, [r7, #12]
 8005822:	689a      	ldr	r2, [r3, #8]
 8005824:	683b      	ldr	r3, [r7, #0]
 8005826:	609a      	str	r2, [r3, #8]

	/* Only used during decision coverage testing. */
	mtCOVERAGE_TEST_DELAY();

	pxIndex->pxPrevious->pxNext = pxNewListItem;
 8005828:	68fb      	ldr	r3, [r7, #12]
 800582a:	689b      	ldr	r3, [r3, #8]
 800582c:	683a      	ldr	r2, [r7, #0]
 800582e:	605a      	str	r2, [r3, #4]
	pxIndex->pxPrevious = pxNewListItem;
 8005830:	68fb      	ldr	r3, [r7, #12]
 8005832:	683a      	ldr	r2, [r7, #0]
 8005834:	609a      	str	r2, [r3, #8]

	/* Remember which list the item is in. */
	pxNewListItem->pxContainer = pxList;
 8005836:	683b      	ldr	r3, [r7, #0]
 8005838:	687a      	ldr	r2, [r7, #4]
 800583a:	611a      	str	r2, [r3, #16]

	( pxList->uxNumberOfItems )++;
 800583c:	687b      	ldr	r3, [r7, #4]
 800583e:	681b      	ldr	r3, [r3, #0]
 8005840:	1c5a      	adds	r2, r3, #1
 8005842:	687b      	ldr	r3, [r7, #4]
 8005844:	601a      	str	r2, [r3, #0]
}
 8005846:	bf00      	nop
 8005848:	3714      	adds	r7, #20
 800584a:	46bd      	mov	sp, r7
 800584c:	f85d 7b04 	ldr.w	r7, [sp], #4
 8005850:	4770      	bx	lr

08005852 <vListInsert>:
/*-----------------------------------------------------------*/

void vListInsert( List_t * const pxList, ListItem_t * const pxNewListItem )
{
 8005852:	b480      	push	{r7}
 8005854:	b085      	sub	sp, #20
 8005856:	af00      	add	r7, sp, #0
 8005858:	6078      	str	r0, [r7, #4]
 800585a:	6039      	str	r1, [r7, #0]
ListItem_t *pxIterator;
const TickType_t xValueOfInsertion = pxNewListItem->xItemValue;
 800585c:	683b      	ldr	r3, [r7, #0]
 800585e:	681b      	ldr	r3, [r3, #0]
 8005860:	60bb      	str	r3, [r7, #8]
	new list item should be placed after it.  This ensures that TCBs which are
	stored in ready lists (all of which have the same xItemValue value) get a
	share of the CPU.  However, if the xItemValue is the same as the back marker
	the iteration loop below will not end.  Therefore the value is checked
	first, and the algorithm slightly modified if necessary. */
	if( xValueOfInsertion == portMAX_DELAY )
 8005862:	68bb      	ldr	r3, [r7, #8]
 8005864:	f1b3 3fff 	cmp.w	r3, #4294967295
 8005868:	d103      	bne.n	8005872 <vListInsert+0x20>
	{
		pxIterator = pxList->xListEnd.pxPrevious;
 800586a:	687b      	ldr	r3, [r7, #4]
 800586c:	691b      	ldr	r3, [r3, #16]
 800586e:	60fb      	str	r3, [r7, #12]
 8005870:	e00c      	b.n	800588c <vListInsert+0x3a>
			4) Using a queue or semaphore before it has been initialised or
			   before the scheduler has been started (are interrupts firing
			   before vTaskStartScheduler() has been called?).
		**********************************************************************/

		for( pxIterator = ( ListItem_t * ) &( pxList->xListEnd ); pxIterator->pxNext->xItemValue <= xValueOfInsertion; pxIterator = pxIterator->pxNext ) /*lint !e826 !e740 !e9087 The mini list structure is used as the list end to save RAM.  This is checked and valid. *//*lint !e440 The iterator moves to a different value, not xValueOfInsertion. */
 8005872:	687b      	ldr	r3, [r7, #4]
 8005874:	3308      	adds	r3, #8
 8005876:	60fb      	str	r3, [r7, #12]
 8005878:	e002      	b.n	8005880 <vListInsert+0x2e>
 800587a:	68fb      	ldr	r3, [r7, #12]
 800587c:	685b      	ldr	r3, [r3, #4]
 800587e:	60fb      	str	r3, [r7, #12]
 8005880:	68fb      	ldr	r3, [r7, #12]
 8005882:	685b      	ldr	r3, [r3, #4]
 8005884:	681b      	ldr	r3, [r3, #0]
 8005886:	68ba      	ldr	r2, [r7, #8]
 8005888:	429a      	cmp	r2, r3
 800588a:	d2f6      	bcs.n	800587a <vListInsert+0x28>
			/* There is nothing to do here, just iterating to the wanted
			insertion position. */
		}
	}

	pxNewListItem->pxNext = pxIterator->pxNext;
 800588c:	68fb      	ldr	r3, [r7, #12]
 800588e:	685a      	ldr	r2, [r3, #4]
 8005890:	683b      	ldr	r3, [r7, #0]
 8005892:	605a      	str	r2, [r3, #4]
	pxNewListItem->pxNext->pxPrevious = pxNewListItem;
 8005894:	683b      	ldr	r3, [r7, #0]
 8005896:	685b      	ldr	r3, [r3, #4]
 8005898:	683a      	ldr	r2, [r7, #0]
 800589a:	609a      	str	r2, [r3, #8]
	pxNewListItem->pxPrevious = pxIterator;
 800589c:	683b      	ldr	r3, [r7, #0]
 800589e:	68fa      	ldr	r2, [r7, #12]
 80058a0:	609a      	str	r2, [r3, #8]
	pxIterator->pxNext = pxNewListItem;
 80058a2:	68fb      	ldr	r3, [r7, #12]
 80058a4:	683a      	ldr	r2, [r7, #0]
 80058a6:	605a      	str	r2, [r3, #4]

	/* Remember which list the item is in.  This allows fast removal of the
	item later. */
	pxNewListItem->pxContainer = pxList;
 80058a8:	683b      	ldr	r3, [r7, #0]
 80058aa:	687a      	ldr	r2, [r7, #4]
 80058ac:	611a      	str	r2, [r3, #16]

	( pxList->uxNumberOfItems )++;
 80058ae:	687b      	ldr	r3, [r7, #4]
 80058b0:	681b      	ldr	r3, [r3, #0]
 80058b2:	1c5a      	adds	r2, r3, #1
 80058b4:	687b      	ldr	r3, [r7, #4]
 80058b6:	601a      	str	r2, [r3, #0]
}
 80058b8:	bf00      	nop
 80058ba:	3714      	adds	r7, #20
 80058bc:	46bd      	mov	sp, r7
 80058be:	f85d 7b04 	ldr.w	r7, [sp], #4
 80058c2:	4770      	bx	lr

080058c4 <uxListRemove>:
/*-----------------------------------------------------------*/

UBaseType_t uxListRemove( ListItem_t * const pxItemToRemove )
{
 80058c4:	b480      	push	{r7}
 80058c6:	b085      	sub	sp, #20
 80058c8:	af00      	add	r7, sp, #0
 80058ca:	6078      	str	r0, [r7, #4]
/* The list item knows which list it is in.  Obtain the list from the list
item. */
List_t * const pxList = pxItemToRemove->pxContainer;
 80058cc:	687b      	ldr	r3, [r7, #4]
 80058ce:	691b      	ldr	r3, [r3, #16]
 80058d0:	60fb      	str	r3, [r7, #12]

	pxItemToRemove->pxNext->pxPrevious = pxItemToRemove->pxPrevious;
 80058d2:	687b      	ldr	r3, [r7, #4]
 80058d4:	685b      	ldr	r3, [r3, #4]
 80058d6:	687a      	ldr	r2, [r7, #4]
 80058d8:	6892      	ldr	r2, [r2, #8]
 80058da:	609a      	str	r2, [r3, #8]
	pxItemToRemove->pxPrevious->pxNext = pxItemToRemove->pxNext;
 80058dc:	687b      	ldr	r3, [r7, #4]
 80058de:	689b      	ldr	r3, [r3, #8]
 80058e0:	687a      	ldr	r2, [r7, #4]
 80058e2:	6852      	ldr	r2, [r2, #4]
 80058e4:	605a      	str	r2, [r3, #4]

	/* Only used during decision coverage testing. */
	mtCOVERAGE_TEST_DELAY();

	/* Make sure the index is left pointing to a valid item. */
	if( pxList->pxIndex == pxItemToRemove )
 80058e6:	68fb      	ldr	r3, [r7, #12]
 80058e8:	685b      	ldr	r3, [r3, #4]
 80058ea:	687a      	ldr	r2, [r7, #4]
 80058ec:	429a      	cmp	r2, r3
 80058ee:	d103      	bne.n	80058f8 <uxListRemove+0x34>
	{
		pxList->pxIndex = pxItemToRemove->pxPrevious;
 80058f0:	687b      	ldr	r3, [r7, #4]
 80058f2:	689a      	ldr	r2, [r3, #8]
 80058f4:	68fb      	ldr	r3, [r7, #12]
 80058f6:	605a      	str	r2, [r3, #4]
	else
	{
		mtCOVERAGE_TEST_MARKER();
	}

	pxItemToRemove->pxContainer = NULL;
 80058f8:	687b      	ldr	r3, [r7, #4]
 80058fa:	2200      	movs	r2, #0
 80058fc:	611a      	str	r2, [r3, #16]
	( pxList->uxNumberOfItems )--;
 80058fe:	68fb      	ldr	r3, [r7, #12]
 8005900:	681b      	ldr	r3, [r3, #0]
 8005902:	1e5a      	subs	r2, r3, #1
 8005904:	68fb      	ldr	r3, [r7, #12]
 8005906:	601a      	str	r2, [r3, #0]

	return pxList->uxNumberOfItems;
 8005908:	68fb      	ldr	r3, [r7, #12]
 800590a:	681b      	ldr	r3, [r3, #0]
}
 800590c:	4618      	mov	r0, r3
 800590e:	3714      	adds	r7, #20
 8005910:	46bd      	mov	sp, r7
 8005912:	f85d 7b04 	ldr.w	r7, [sp], #4
 8005916:	4770      	bx	lr

08005918 <xQueueGenericReset>:
	}														\
	taskEXIT_CRITICAL()
/*-----------------------------------------------------------*/

BaseType_t xQueueGenericReset( QueueHandle_t xQueue, BaseType_t xNewQueue )
{
 8005918:	b580      	push	{r7, lr}
 800591a:	b084      	sub	sp, #16
 800591c:	af00      	add	r7, sp, #0
 800591e:	6078      	str	r0, [r7, #4]
 8005920:	6039      	str	r1, [r7, #0]
Queue_t * const pxQueue = xQueue;
 8005922:	687b      	ldr	r3, [r7, #4]
 8005924:	60fb      	str	r3, [r7, #12]

	configASSERT( pxQueue );
 8005926:	68fb      	ldr	r3, [r7, #12]
 8005928:	2b00      	cmp	r3, #0
 800592a:	d10c      	bne.n	8005946 <xQueueGenericReset+0x2e>

portFORCE_INLINE static void vPortRaiseBASEPRI( void )
{
uint32_t ulNewBASEPRI;

	__asm volatile
 800592c:	f04f 0350 	mov.w	r3, #80	; 0x50
 8005930:	b672      	cpsid	i
 8005932:	f383 8811 	msr	BASEPRI, r3
 8005936:	f3bf 8f6f 	isb	sy
 800593a:	f3bf 8f4f 	dsb	sy
 800593e:	b662      	cpsie	i
 8005940:	60bb      	str	r3, [r7, #8]
		"	isb														\n" \
		"	dsb														\n" \
		"	cpsie i													\n" \
		:"=r" (ulNewBASEPRI) : "i" ( configMAX_SYSCALL_INTERRUPT_PRIORITY ) : "memory"
	);
}
 8005942:	bf00      	nop
 8005944:	e7fe      	b.n	8005944 <xQueueGenericReset+0x2c>

	taskENTER_CRITICAL();
 8005946:	f001 fcd1 	bl	80072ec <vPortEnterCritical>
	{
		pxQueue->u.xQueue.pcTail = pxQueue->pcHead + ( pxQueue->uxLength * pxQueue->uxItemSize ); /*lint !e9016 Pointer arithmetic allowed on char types, especially when it assists conveying intent. */
 800594a:	68fb      	ldr	r3, [r7, #12]
 800594c:	681a      	ldr	r2, [r3, #0]
 800594e:	68fb      	ldr	r3, [r7, #12]
 8005950:	6bdb      	ldr	r3, [r3, #60]	; 0x3c
 8005952:	68f9      	ldr	r1, [r7, #12]
 8005954:	6c09      	ldr	r1, [r1, #64]	; 0x40
 8005956:	fb01 f303 	mul.w	r3, r1, r3
 800595a:	441a      	add	r2, r3
 800595c:	68fb      	ldr	r3, [r7, #12]
 800595e:	609a      	str	r2, [r3, #8]
		pxQueue->uxMessagesWaiting = ( UBaseType_t ) 0U;
 8005960:	68fb      	ldr	r3, [r7, #12]
 8005962:	2200      	movs	r2, #0
 8005964:	639a      	str	r2, [r3, #56]	; 0x38
		pxQueue->pcWriteTo = pxQueue->pcHead;
 8005966:	68fb      	ldr	r3, [r7, #12]
 8005968:	681a      	ldr	r2, [r3, #0]
 800596a:	68fb      	ldr	r3, [r7, #12]
 800596c:	605a      	str	r2, [r3, #4]
		pxQueue->u.xQueue.pcReadFrom = pxQueue->pcHead + ( ( pxQueue->uxLength - 1U ) * pxQueue->uxItemSize ); /*lint !e9016 Pointer arithmetic allowed on char types, especially when it assists conveying intent. */
 800596e:	68fb      	ldr	r3, [r7, #12]
 8005970:	681a      	ldr	r2, [r3, #0]
 8005972:	68fb      	ldr	r3, [r7, #12]
 8005974:	6bdb      	ldr	r3, [r3, #60]	; 0x3c
 8005976:	3b01      	subs	r3, #1
 8005978:	68f9      	ldr	r1, [r7, #12]
 800597a:	6c09      	ldr	r1, [r1, #64]	; 0x40
 800597c:	fb01 f303 	mul.w	r3, r1, r3
 8005980:	441a      	add	r2, r3
 8005982:	68fb      	ldr	r3, [r7, #12]
 8005984:	60da      	str	r2, [r3, #12]
		pxQueue->cRxLock = queueUNLOCKED;
 8005986:	68fb      	ldr	r3, [r7, #12]
 8005988:	22ff      	movs	r2, #255	; 0xff
 800598a:	f883 2044 	strb.w	r2, [r3, #68]	; 0x44
		pxQueue->cTxLock = queueUNLOCKED;
 800598e:	68fb      	ldr	r3, [r7, #12]
 8005990:	22ff      	movs	r2, #255	; 0xff
 8005992:	f883 2045 	strb.w	r2, [r3, #69]	; 0x45

		if( xNewQueue == pdFALSE )
 8005996:	683b      	ldr	r3, [r7, #0]
 8005998:	2b00      	cmp	r3, #0
 800599a:	d114      	bne.n	80059c6 <xQueueGenericReset+0xae>
			/* If there are tasks blocked waiting to read from the queue, then
			the tasks will remain blocked as after this function exits the queue
			will still be empty.  If there are tasks blocked waiting to write to
			the queue, then one should be unblocked as after this function exits
			it will be possible to write to it. */
			if( listLIST_IS_EMPTY( &( pxQueue->xTasksWaitingToSend ) ) == pdFALSE )
 800599c:	68fb      	ldr	r3, [r7, #12]
 800599e:	691b      	ldr	r3, [r3, #16]
 80059a0:	2b00      	cmp	r3, #0
 80059a2:	d01a      	beq.n	80059da <xQueueGenericReset+0xc2>
			{
				if( xTaskRemoveFromEventList( &( pxQueue->xTasksWaitingToSend ) ) != pdFALSE )
 80059a4:	68fb      	ldr	r3, [r7, #12]
 80059a6:	3310      	adds	r3, #16
 80059a8:	4618      	mov	r0, r3
 80059aa:	f001 f8e5 	bl	8006b78 <xTaskRemoveFromEventList>
 80059ae:	4603      	mov	r3, r0
 80059b0:	2b00      	cmp	r3, #0
 80059b2:	d012      	beq.n	80059da <xQueueGenericReset+0xc2>
				{
					queueYIELD_IF_USING_PREEMPTION();
 80059b4:	4b0c      	ldr	r3, [pc, #48]	; (80059e8 <xQueueGenericReset+0xd0>)
 80059b6:	f04f 5280 	mov.w	r2, #268435456	; 0x10000000
 80059ba:	601a      	str	r2, [r3, #0]
 80059bc:	f3bf 8f4f 	dsb	sy
 80059c0:	f3bf 8f6f 	isb	sy
 80059c4:	e009      	b.n	80059da <xQueueGenericReset+0xc2>
			}
		}
		else
		{
			/* Ensure the event queues start in the correct state. */
			vListInitialise( &( pxQueue->xTasksWaitingToSend ) );
 80059c6:	68fb      	ldr	r3, [r7, #12]
 80059c8:	3310      	adds	r3, #16
 80059ca:	4618      	mov	r0, r3
 80059cc:	f7ff fef0 	bl	80057b0 <vListInitialise>
			vListInitialise( &( pxQueue->xTasksWaitingToReceive ) );
 80059d0:	68fb      	ldr	r3, [r7, #12]
 80059d2:	3324      	adds	r3, #36	; 0x24
 80059d4:	4618      	mov	r0, r3
 80059d6:	f7ff feeb 	bl	80057b0 <vListInitialise>
		}
	}
	taskEXIT_CRITICAL();
 80059da:	f001 fcbb 	bl	8007354 <vPortExitCritical>

	/* A value is returned for calling semantic consistency with previous
	versions. */
	return pdPASS;
 80059de:	2301      	movs	r3, #1
}
 80059e0:	4618      	mov	r0, r3
 80059e2:	3710      	adds	r7, #16
 80059e4:	46bd      	mov	sp, r7
 80059e6:	bd80      	pop	{r7, pc}
 80059e8:	e000ed04 	.word	0xe000ed04

080059ec <xQueueGenericCreate>:
/*-----------------------------------------------------------*/

#if( configSUPPORT_DYNAMIC_ALLOCATION == 1 )

	QueueHandle_t xQueueGenericCreate( const UBaseType_t uxQueueLength, const UBaseType_t uxItemSize, const uint8_t ucQueueType )
	{
 80059ec:	b580      	push	{r7, lr}
 80059ee:	b08a      	sub	sp, #40	; 0x28
 80059f0:	af02      	add	r7, sp, #8
 80059f2:	60f8      	str	r0, [r7, #12]
 80059f4:	60b9      	str	r1, [r7, #8]
 80059f6:	4613      	mov	r3, r2
 80059f8:	71fb      	strb	r3, [r7, #7]
	Queue_t *pxNewQueue;
	size_t xQueueSizeInBytes;
	uint8_t *pucQueueStorage;

		configASSERT( uxQueueLength > ( UBaseType_t ) 0 );
 80059fa:	68fb      	ldr	r3, [r7, #12]
 80059fc:	2b00      	cmp	r3, #0
 80059fe:	d10c      	bne.n	8005a1a <xQueueGenericCreate+0x2e>
	__asm volatile
 8005a00:	f04f 0350 	mov.w	r3, #80	; 0x50
 8005a04:	b672      	cpsid	i
 8005a06:	f383 8811 	msr	BASEPRI, r3
 8005a0a:	f3bf 8f6f 	isb	sy
 8005a0e:	f3bf 8f4f 	dsb	sy
 8005a12:	b662      	cpsie	i
 8005a14:	613b      	str	r3, [r7, #16]
}
 8005a16:	bf00      	nop
 8005a18:	e7fe      	b.n	8005a18 <xQueueGenericCreate+0x2c>

		if( uxItemSize == ( UBaseType_t ) 0 )
 8005a1a:	68bb      	ldr	r3, [r7, #8]
 8005a1c:	2b00      	cmp	r3, #0
 8005a1e:	d102      	bne.n	8005a26 <xQueueGenericCreate+0x3a>
		{
			/* There is not going to be a queue storage area. */
			xQueueSizeInBytes = ( size_t ) 0;
 8005a20:	2300      	movs	r3, #0
 8005a22:	61fb      	str	r3, [r7, #28]
 8005a24:	e004      	b.n	8005a30 <xQueueGenericCreate+0x44>
		}
		else
		{
			/* Allocate enough space to hold the maximum number of items that
			can be in the queue at any time. */
			xQueueSizeInBytes = ( size_t ) ( uxQueueLength * uxItemSize ); /*lint !e961 MISRA exception as the casts are only redundant for some ports. */
 8005a26:	68fb      	ldr	r3, [r7, #12]
 8005a28:	68ba      	ldr	r2, [r7, #8]
 8005a2a:	fb02 f303 	mul.w	r3, r2, r3
 8005a2e:	61fb      	str	r3, [r7, #28]
		alignment requirements of the Queue_t structure - which in this case
		is an int8_t *.  Therefore, whenever the stack alignment requirements
		are greater than or equal to the pointer to char requirements the cast
		is safe.  In other cases alignment requirements are not strict (one or
		two bytes). */
		pxNewQueue = ( Queue_t * ) pvPortMalloc( sizeof( Queue_t ) + xQueueSizeInBytes ); /*lint !e9087 !e9079 see comment above. */
 8005a30:	69fb      	ldr	r3, [r7, #28]
 8005a32:	3348      	adds	r3, #72	; 0x48
 8005a34:	4618      	mov	r0, r3
 8005a36:	f001 fd85 	bl	8007544 <pvPortMalloc>
 8005a3a:	61b8      	str	r0, [r7, #24]

		if( pxNewQueue != NULL )
 8005a3c:	69bb      	ldr	r3, [r7, #24]
 8005a3e:	2b00      	cmp	r3, #0
 8005a40:	d00d      	beq.n	8005a5e <xQueueGenericCreate+0x72>
		{
			/* Jump past the queue structure to find the location of the queue
			storage area. */
			pucQueueStorage = ( uint8_t * ) pxNewQueue;
 8005a42:	69bb      	ldr	r3, [r7, #24]
 8005a44:	617b      	str	r3, [r7, #20]
			pucQueueStorage += sizeof( Queue_t ); /*lint !e9016 Pointer arithmetic allowed on char types, especially when it assists conveying intent. */
 8005a46:	697b      	ldr	r3, [r7, #20]
 8005a48:	3348      	adds	r3, #72	; 0x48
 8005a4a:	617b      	str	r3, [r7, #20]
				deleted. */
				pxNewQueue->ucStaticallyAllocated = pdFALSE;
			}
			#endif /* configSUPPORT_STATIC_ALLOCATION */

			prvInitialiseNewQueue( uxQueueLength, uxItemSize, pucQueueStorage, ucQueueType, pxNewQueue );
 8005a4c:	79fa      	ldrb	r2, [r7, #7]
 8005a4e:	69bb      	ldr	r3, [r7, #24]
 8005a50:	9300      	str	r3, [sp, #0]
 8005a52:	4613      	mov	r3, r2
 8005a54:	697a      	ldr	r2, [r7, #20]
 8005a56:	68b9      	ldr	r1, [r7, #8]
 8005a58:	68f8      	ldr	r0, [r7, #12]
 8005a5a:	f000 f805 	bl	8005a68 <prvInitialiseNewQueue>
		{
			traceQUEUE_CREATE_FAILED( ucQueueType );
			mtCOVERAGE_TEST_MARKER();
		}

		return pxNewQueue;
 8005a5e:	69bb      	ldr	r3, [r7, #24]
	}
 8005a60:	4618      	mov	r0, r3
 8005a62:	3720      	adds	r7, #32
 8005a64:	46bd      	mov	sp, r7
 8005a66:	bd80      	pop	{r7, pc}

08005a68 <prvInitialiseNewQueue>:

#endif /* configSUPPORT_STATIC_ALLOCATION */
/*-----------------------------------------------------------*/

static void prvInitialiseNewQueue( const UBaseType_t uxQueueLength, const UBaseType_t uxItemSize, uint8_t *pucQueueStorage, const uint8_t ucQueueType, Queue_t *pxNewQueue )
{
 8005a68:	b580      	push	{r7, lr}
 8005a6a:	b084      	sub	sp, #16
 8005a6c:	af00      	add	r7, sp, #0
 8005a6e:	60f8      	str	r0, [r7, #12]
 8005a70:	60b9      	str	r1, [r7, #8]
 8005a72:	607a      	str	r2, [r7, #4]
 8005a74:	70fb      	strb	r3, [r7, #3]
	/* Remove compiler warnings about unused parameters should
	configUSE_TRACE_FACILITY not be set to 1. */
	( void ) ucQueueType;

	if( uxItemSize == ( UBaseType_t ) 0 )
 8005a76:	68bb      	ldr	r3, [r7, #8]
 8005a78:	2b00      	cmp	r3, #0
 8005a7a:	d103      	bne.n	8005a84 <prvInitialiseNewQueue+0x1c>
	{
		/* No RAM was allocated for the queue storage area, but PC head cannot
		be set to NULL because NULL is used as a key to say the queue is used as
		a mutex.  Therefore just set pcHead to point to the queue as a benign
		value that is known to be within the memory map. */
		pxNewQueue->pcHead = ( int8_t * ) pxNewQueue;
 8005a7c:	69bb      	ldr	r3, [r7, #24]
 8005a7e:	69ba      	ldr	r2, [r7, #24]
 8005a80:	601a      	str	r2, [r3, #0]
 8005a82:	e002      	b.n	8005a8a <prvInitialiseNewQueue+0x22>
	}
	else
	{
		/* Set the head to the start of the queue storage area. */
		pxNewQueue->pcHead = ( int8_t * ) pucQueueStorage;
 8005a84:	69bb      	ldr	r3, [r7, #24]
 8005a86:	687a      	ldr	r2, [r7, #4]
 8005a88:	601a      	str	r2, [r3, #0]
	}

	/* Initialise the queue members as described where the queue type is
	defined. */
	pxNewQueue->uxLength = uxQueueLength;
 8005a8a:	69bb      	ldr	r3, [r7, #24]
 8005a8c:	68fa      	ldr	r2, [r7, #12]
 8005a8e:	63da      	str	r2, [r3, #60]	; 0x3c
	pxNewQueue->uxItemSize = uxItemSize;
 8005a90:	69bb      	ldr	r3, [r7, #24]
 8005a92:	68ba      	ldr	r2, [r7, #8]
 8005a94:	641a      	str	r2, [r3, #64]	; 0x40
	( void ) xQueueGenericReset( pxNewQueue, pdTRUE );
 8005a96:	2101      	movs	r1, #1
 8005a98:	69b8      	ldr	r0, [r7, #24]
 8005a9a:	f7ff ff3d 	bl	8005918 <xQueueGenericReset>
		pxNewQueue->pxQueueSetContainer = NULL;
	}
	#endif /* configUSE_QUEUE_SETS */

	traceQUEUE_CREATE( pxNewQueue );
}
 8005a9e:	bf00      	nop
 8005aa0:	3710      	adds	r7, #16
 8005aa2:	46bd      	mov	sp, r7
 8005aa4:	bd80      	pop	{r7, pc}
	...

08005aa8 <xQueueGenericSend>:

#endif /* ( ( configUSE_COUNTING_SEMAPHORES == 1 ) && ( configSUPPORT_DYNAMIC_ALLOCATION == 1 ) ) */
/*-----------------------------------------------------------*/

BaseType_t xQueueGenericSend( QueueHandle_t xQueue, const void * const pvItemToQueue, TickType_t xTicksToWait, const BaseType_t xCopyPosition )
{
 8005aa8:	b580      	push	{r7, lr}
 8005aaa:	b08e      	sub	sp, #56	; 0x38
 8005aac:	af00      	add	r7, sp, #0
 8005aae:	60f8      	str	r0, [r7, #12]
 8005ab0:	60b9      	str	r1, [r7, #8]
 8005ab2:	607a      	str	r2, [r7, #4]
 8005ab4:	603b      	str	r3, [r7, #0]
BaseType_t xEntryTimeSet = pdFALSE, xYieldRequired;
 8005ab6:	2300      	movs	r3, #0
 8005ab8:	637b      	str	r3, [r7, #52]	; 0x34
TimeOut_t xTimeOut;
Queue_t * const pxQueue = xQueue;
 8005aba:	68fb      	ldr	r3, [r7, #12]
 8005abc:	633b      	str	r3, [r7, #48]	; 0x30

	configASSERT( pxQueue );
 8005abe:	6b3b      	ldr	r3, [r7, #48]	; 0x30
 8005ac0:	2b00      	cmp	r3, #0
 8005ac2:	d10c      	bne.n	8005ade <xQueueGenericSend+0x36>
	__asm volatile
 8005ac4:	f04f 0350 	mov.w	r3, #80	; 0x50
 8005ac8:	b672      	cpsid	i
 8005aca:	f383 8811 	msr	BASEPRI, r3
 8005ace:	f3bf 8f6f 	isb	sy
 8005ad2:	f3bf 8f4f 	dsb	sy
 8005ad6:	b662      	cpsie	i
 8005ad8:	62bb      	str	r3, [r7, #40]	; 0x28
}
 8005ada:	bf00      	nop
 8005adc:	e7fe      	b.n	8005adc <xQueueGenericSend+0x34>
	configASSERT( !( ( pvItemToQueue == NULL ) && ( pxQueue->uxItemSize != ( UBaseType_t ) 0U ) ) );
 8005ade:	68bb      	ldr	r3, [r7, #8]
 8005ae0:	2b00      	cmp	r3, #0
 8005ae2:	d103      	bne.n	8005aec <xQueueGenericSend+0x44>
 8005ae4:	6b3b      	ldr	r3, [r7, #48]	; 0x30
 8005ae6:	6c1b      	ldr	r3, [r3, #64]	; 0x40
 8005ae8:	2b00      	cmp	r3, #0
 8005aea:	d101      	bne.n	8005af0 <xQueueGenericSend+0x48>
 8005aec:	2301      	movs	r3, #1
 8005aee:	e000      	b.n	8005af2 <xQueueGenericSend+0x4a>
 8005af0:	2300      	movs	r3, #0
 8005af2:	2b00      	cmp	r3, #0
 8005af4:	d10c      	bne.n	8005b10 <xQueueGenericSend+0x68>
	__asm volatile
 8005af6:	f04f 0350 	mov.w	r3, #80	; 0x50
 8005afa:	b672      	cpsid	i
 8005afc:	f383 8811 	msr	BASEPRI, r3
 8005b00:	f3bf 8f6f 	isb	sy
 8005b04:	f3bf 8f4f 	dsb	sy
 8005b08:	b662      	cpsie	i
 8005b0a:	627b      	str	r3, [r7, #36]	; 0x24
}
 8005b0c:	bf00      	nop
 8005b0e:	e7fe      	b.n	8005b0e <xQueueGenericSend+0x66>
	configASSERT( !( ( xCopyPosition == queueOVERWRITE ) && ( pxQueue->uxLength != 1 ) ) );
 8005b10:	683b      	ldr	r3, [r7, #0]
 8005b12:	2b02      	cmp	r3, #2
 8005b14:	d103      	bne.n	8005b1e <xQueueGenericSend+0x76>
 8005b16:	6b3b      	ldr	r3, [r7, #48]	; 0x30
 8005b18:	6bdb      	ldr	r3, [r3, #60]	; 0x3c
 8005b1a:	2b01      	cmp	r3, #1
 8005b1c:	d101      	bne.n	8005b22 <xQueueGenericSend+0x7a>
 8005b1e:	2301      	movs	r3, #1
 8005b20:	e000      	b.n	8005b24 <xQueueGenericSend+0x7c>
 8005b22:	2300      	movs	r3, #0
 8005b24:	2b00      	cmp	r3, #0
 8005b26:	d10c      	bne.n	8005b42 <xQueueGenericSend+0x9a>
	__asm volatile
 8005b28:	f04f 0350 	mov.w	r3, #80	; 0x50
 8005b2c:	b672      	cpsid	i
 8005b2e:	f383 8811 	msr	BASEPRI, r3
 8005b32:	f3bf 8f6f 	isb	sy
 8005b36:	f3bf 8f4f 	dsb	sy
 8005b3a:	b662      	cpsie	i
 8005b3c:	623b      	str	r3, [r7, #32]
}
 8005b3e:	bf00      	nop
 8005b40:	e7fe      	b.n	8005b40 <xQueueGenericSend+0x98>
	#if ( ( INCLUDE_xTaskGetSchedulerState == 1 ) || ( configUSE_TIMERS == 1 ) )
	{
		configASSERT( !( ( xTaskGetSchedulerState() == taskSCHEDULER_SUSPENDED ) && ( xTicksToWait != 0 ) ) );
 8005b42:	f001 f9bb 	bl	8006ebc <xTaskGetSchedulerState>
 8005b46:	4603      	mov	r3, r0
 8005b48:	2b00      	cmp	r3, #0
 8005b4a:	d102      	bne.n	8005b52 <xQueueGenericSend+0xaa>
 8005b4c:	687b      	ldr	r3, [r7, #4]
 8005b4e:	2b00      	cmp	r3, #0
 8005b50:	d101      	bne.n	8005b56 <xQueueGenericSend+0xae>
 8005b52:	2301      	movs	r3, #1
 8005b54:	e000      	b.n	8005b58 <xQueueGenericSend+0xb0>
 8005b56:	2300      	movs	r3, #0
 8005b58:	2b00      	cmp	r3, #0
 8005b5a:	d10c      	bne.n	8005b76 <xQueueGenericSend+0xce>
	__asm volatile
 8005b5c:	f04f 0350 	mov.w	r3, #80	; 0x50
 8005b60:	b672      	cpsid	i
 8005b62:	f383 8811 	msr	BASEPRI, r3
 8005b66:	f3bf 8f6f 	isb	sy
 8005b6a:	f3bf 8f4f 	dsb	sy
 8005b6e:	b662      	cpsie	i
 8005b70:	61fb      	str	r3, [r7, #28]
}
 8005b72:	bf00      	nop
 8005b74:	e7fe      	b.n	8005b74 <xQueueGenericSend+0xcc>
	/*lint -save -e904 This function relaxes the coding standard somewhat to
	allow return statements within the function itself.  This is done in the
	interest of execution time efficiency. */
	for( ;; )
	{
		taskENTER_CRITICAL();
 8005b76:	f001 fbb9 	bl	80072ec <vPortEnterCritical>
		{
			/* Is there room on the queue now?  The running task must be the
			highest priority task wanting to access the queue.  If the head item
			in the queue is to be overwritten then it does not matter if the
			queue is full. */
			if( ( pxQueue->uxMessagesWaiting < pxQueue->uxLength ) || ( xCopyPosition == queueOVERWRITE ) )
 8005b7a:	6b3b      	ldr	r3, [r7, #48]	; 0x30
 8005b7c:	6b9a      	ldr	r2, [r3, #56]	; 0x38
 8005b7e:	6b3b      	ldr	r3, [r7, #48]	; 0x30
 8005b80:	6bdb      	ldr	r3, [r3, #60]	; 0x3c
 8005b82:	429a      	cmp	r2, r3
 8005b84:	d302      	bcc.n	8005b8c <xQueueGenericSend+0xe4>
 8005b86:	683b      	ldr	r3, [r7, #0]
 8005b88:	2b02      	cmp	r3, #2
 8005b8a:	d129      	bne.n	8005be0 <xQueueGenericSend+0x138>
						}
					}
				}
				#else /* configUSE_QUEUE_SETS */
				{
					xYieldRequired = prvCopyDataToQueue( pxQueue, pvItemToQueue, xCopyPosition );
 8005b8c:	683a      	ldr	r2, [r7, #0]
 8005b8e:	68b9      	ldr	r1, [r7, #8]
 8005b90:	6b38      	ldr	r0, [r7, #48]	; 0x30
 8005b92:	f000 fa9b 	bl	80060cc <prvCopyDataToQueue>
 8005b96:	62f8      	str	r0, [r7, #44]	; 0x2c

					/* If there was a task waiting for data to arrive on the
					queue then unblock it now. */
					if( listLIST_IS_EMPTY( &( pxQueue->xTasksWaitingToReceive ) ) == pdFALSE )
 8005b98:	6b3b      	ldr	r3, [r7, #48]	; 0x30
 8005b9a:	6a5b      	ldr	r3, [r3, #36]	; 0x24
 8005b9c:	2b00      	cmp	r3, #0
 8005b9e:	d010      	beq.n	8005bc2 <xQueueGenericSend+0x11a>
					{
						if( xTaskRemoveFromEventList( &( pxQueue->xTasksWaitingToReceive ) ) != pdFALSE )
 8005ba0:	6b3b      	ldr	r3, [r7, #48]	; 0x30
 8005ba2:	3324      	adds	r3, #36	; 0x24
 8005ba4:	4618      	mov	r0, r3
 8005ba6:	f000 ffe7 	bl	8006b78 <xTaskRemoveFromEventList>
 8005baa:	4603      	mov	r3, r0
 8005bac:	2b00      	cmp	r3, #0
 8005bae:	d013      	beq.n	8005bd8 <xQueueGenericSend+0x130>
						{
							/* The unblocked task has a priority higher than
							our own so yield immediately.  Yes it is ok to do
							this from within the critical section - the kernel
							takes care of that. */
							queueYIELD_IF_USING_PREEMPTION();
 8005bb0:	4b3f      	ldr	r3, [pc, #252]	; (8005cb0 <xQueueGenericSend+0x208>)
 8005bb2:	f04f 5280 	mov.w	r2, #268435456	; 0x10000000
 8005bb6:	601a      	str	r2, [r3, #0]
 8005bb8:	f3bf 8f4f 	dsb	sy
 8005bbc:	f3bf 8f6f 	isb	sy
 8005bc0:	e00a      	b.n	8005bd8 <xQueueGenericSend+0x130>
						else
						{
							mtCOVERAGE_TEST_MARKER();
						}
					}
					else if( xYieldRequired != pdFALSE )
 8005bc2:	6afb      	ldr	r3, [r7, #44]	; 0x2c
 8005bc4:	2b00      	cmp	r3, #0
 8005bc6:	d007      	beq.n	8005bd8 <xQueueGenericSend+0x130>
					{
						/* This path is a special case that will only get
						executed if the task was holding multiple mutexes and
						the mutexes were given back in an order that is
						different to that in which they were taken. */
						queueYIELD_IF_USING_PREEMPTION();
 8005bc8:	4b39      	ldr	r3, [pc, #228]	; (8005cb0 <xQueueGenericSend+0x208>)
 8005bca:	f04f 5280 	mov.w	r2, #268435456	; 0x10000000
 8005bce:	601a      	str	r2, [r3, #0]
 8005bd0:	f3bf 8f4f 	dsb	sy
 8005bd4:	f3bf 8f6f 	isb	sy
						mtCOVERAGE_TEST_MARKER();
					}
				}
				#endif /* configUSE_QUEUE_SETS */

				taskEXIT_CRITICAL();
 8005bd8:	f001 fbbc 	bl	8007354 <vPortExitCritical>
				return pdPASS;
 8005bdc:	2301      	movs	r3, #1
 8005bde:	e063      	b.n	8005ca8 <xQueueGenericSend+0x200>
			}
			else
			{
				if( xTicksToWait == ( TickType_t ) 0 )
 8005be0:	687b      	ldr	r3, [r7, #4]
 8005be2:	2b00      	cmp	r3, #0
 8005be4:	d103      	bne.n	8005bee <xQueueGenericSend+0x146>
				{
					/* The queue was full and no block time is specified (or
					the block time has expired) so leave now. */
					taskEXIT_CRITICAL();
 8005be6:	f001 fbb5 	bl	8007354 <vPortExitCritical>

					/* Return to the original privilege level before exiting
					the function. */
					traceQUEUE_SEND_FAILED( pxQueue );
					return errQUEUE_FULL;
 8005bea:	2300      	movs	r3, #0
 8005bec:	e05c      	b.n	8005ca8 <xQueueGenericSend+0x200>
				}
				else if( xEntryTimeSet == pdFALSE )
 8005bee:	6b7b      	ldr	r3, [r7, #52]	; 0x34
 8005bf0:	2b00      	cmp	r3, #0
 8005bf2:	d106      	bne.n	8005c02 <xQueueGenericSend+0x15a>
				{
					/* The queue was full and a block time was specified so
					configure the timeout structure. */
					vTaskInternalSetTimeOutState( &xTimeOut );
 8005bf4:	f107 0314 	add.w	r3, r7, #20
 8005bf8:	4618      	mov	r0, r3
 8005bfa:	f001 f821 	bl	8006c40 <vTaskInternalSetTimeOutState>
					xEntryTimeSet = pdTRUE;
 8005bfe:	2301      	movs	r3, #1
 8005c00:	637b      	str	r3, [r7, #52]	; 0x34
					/* Entry time was already set. */
					mtCOVERAGE_TEST_MARKER();
				}
			}
		}
		taskEXIT_CRITICAL();
 8005c02:	f001 fba7 	bl	8007354 <vPortExitCritical>

		/* Interrupts and other tasks can send to and receive from the queue
		now the critical section has been exited. */

		vTaskSuspendAll();
 8005c06:	f000 fdab 	bl	8006760 <vTaskSuspendAll>
		prvLockQueue( pxQueue );
 8005c0a:	f001 fb6f 	bl	80072ec <vPortEnterCritical>
 8005c0e:	6b3b      	ldr	r3, [r7, #48]	; 0x30
 8005c10:	f893 3044 	ldrb.w	r3, [r3, #68]	; 0x44
 8005c14:	b25b      	sxtb	r3, r3
 8005c16:	f1b3 3fff 	cmp.w	r3, #4294967295
 8005c1a:	d103      	bne.n	8005c24 <xQueueGenericSend+0x17c>
 8005c1c:	6b3b      	ldr	r3, [r7, #48]	; 0x30
 8005c1e:	2200      	movs	r2, #0
 8005c20:	f883 2044 	strb.w	r2, [r3, #68]	; 0x44
 8005c24:	6b3b      	ldr	r3, [r7, #48]	; 0x30
 8005c26:	f893 3045 	ldrb.w	r3, [r3, #69]	; 0x45
 8005c2a:	b25b      	sxtb	r3, r3
 8005c2c:	f1b3 3fff 	cmp.w	r3, #4294967295
 8005c30:	d103      	bne.n	8005c3a <xQueueGenericSend+0x192>
 8005c32:	6b3b      	ldr	r3, [r7, #48]	; 0x30
 8005c34:	2200      	movs	r2, #0
 8005c36:	f883 2045 	strb.w	r2, [r3, #69]	; 0x45
 8005c3a:	f001 fb8b 	bl	8007354 <vPortExitCritical>

		/* Update the timeout state to see if it has expired yet. */
		if( xTaskCheckForTimeOut( &xTimeOut, &xTicksToWait ) == pdFALSE )
 8005c3e:	1d3a      	adds	r2, r7, #4
 8005c40:	f107 0314 	add.w	r3, r7, #20
 8005c44:	4611      	mov	r1, r2
 8005c46:	4618      	mov	r0, r3
 8005c48:	f001 f810 	bl	8006c6c <xTaskCheckForTimeOut>
 8005c4c:	4603      	mov	r3, r0
 8005c4e:	2b00      	cmp	r3, #0
 8005c50:	d124      	bne.n	8005c9c <xQueueGenericSend+0x1f4>
		{
			if( prvIsQueueFull( pxQueue ) != pdFALSE )
 8005c52:	6b38      	ldr	r0, [r7, #48]	; 0x30
 8005c54:	f000 fb32 	bl	80062bc <prvIsQueueFull>
 8005c58:	4603      	mov	r3, r0
 8005c5a:	2b00      	cmp	r3, #0
 8005c5c:	d018      	beq.n	8005c90 <xQueueGenericSend+0x1e8>
			{
				traceBLOCKING_ON_QUEUE_SEND( pxQueue );
				vTaskPlaceOnEventList( &( pxQueue->xTasksWaitingToSend ), xTicksToWait );
 8005c5e:	6b3b      	ldr	r3, [r7, #48]	; 0x30
 8005c60:	3310      	adds	r3, #16
 8005c62:	687a      	ldr	r2, [r7, #4]
 8005c64:	4611      	mov	r1, r2
 8005c66:	4618      	mov	r0, r3
 8005c68:	f000 ff60 	bl	8006b2c <vTaskPlaceOnEventList>
				/* Unlocking the queue means queue events can effect the
				event list.  It is possible that interrupts occurring now
				remove this task from the event list again - but as the
				scheduler is suspended the task will go onto the pending
				ready last instead of the actual ready list. */
				prvUnlockQueue( pxQueue );
 8005c6c:	6b38      	ldr	r0, [r7, #48]	; 0x30
 8005c6e:	f000 fabd 	bl	80061ec <prvUnlockQueue>
				/* Resuming the scheduler will move tasks from the pending
				ready list into the ready list - so it is feasible that this
				task is already in a ready list before it yields - in which
				case the yield will not cause a context switch unless there
				is also a higher priority task in the pending ready list. */
				if( xTaskResumeAll() == pdFALSE )
 8005c72:	f000 fd83 	bl	800677c <xTaskResumeAll>
 8005c76:	4603      	mov	r3, r0
 8005c78:	2b00      	cmp	r3, #0
 8005c7a:	f47f af7c 	bne.w	8005b76 <xQueueGenericSend+0xce>
				{
					portYIELD_WITHIN_API();
 8005c7e:	4b0c      	ldr	r3, [pc, #48]	; (8005cb0 <xQueueGenericSend+0x208>)
 8005c80:	f04f 5280 	mov.w	r2, #268435456	; 0x10000000
 8005c84:	601a      	str	r2, [r3, #0]
 8005c86:	f3bf 8f4f 	dsb	sy
 8005c8a:	f3bf 8f6f 	isb	sy
 8005c8e:	e772      	b.n	8005b76 <xQueueGenericSend+0xce>
				}
			}
			else
			{
				/* Try again. */
				prvUnlockQueue( pxQueue );
 8005c90:	6b38      	ldr	r0, [r7, #48]	; 0x30
 8005c92:	f000 faab 	bl	80061ec <prvUnlockQueue>
				( void ) xTaskResumeAll();
 8005c96:	f000 fd71 	bl	800677c <xTaskResumeAll>
 8005c9a:	e76c      	b.n	8005b76 <xQueueGenericSend+0xce>
			}
		}
		else
		{
			/* The timeout has expired. */
			prvUnlockQueue( pxQueue );
 8005c9c:	6b38      	ldr	r0, [r7, #48]	; 0x30
 8005c9e:	f000 faa5 	bl	80061ec <prvUnlockQueue>
			( void ) xTaskResumeAll();
 8005ca2:	f000 fd6b 	bl	800677c <xTaskResumeAll>

			traceQUEUE_SEND_FAILED( pxQueue );
			return errQUEUE_FULL;
 8005ca6:	2300      	movs	r3, #0
		}
	} /*lint -restore */
}
 8005ca8:	4618      	mov	r0, r3
 8005caa:	3738      	adds	r7, #56	; 0x38
 8005cac:	46bd      	mov	sp, r7
 8005cae:	bd80      	pop	{r7, pc}
 8005cb0:	e000ed04 	.word	0xe000ed04

08005cb4 <xQueueGenericSendFromISR>:
/*-----------------------------------------------------------*/

BaseType_t xQueueGenericSendFromISR( QueueHandle_t xQueue, const void * const pvItemToQueue, BaseType_t * const pxHigherPriorityTaskWoken, const BaseType_t xCopyPosition )
{
 8005cb4:	b580      	push	{r7, lr}
 8005cb6:	b08e      	sub	sp, #56	; 0x38
 8005cb8:	af00      	add	r7, sp, #0
 8005cba:	60f8      	str	r0, [r7, #12]
 8005cbc:	60b9      	str	r1, [r7, #8]
 8005cbe:	607a      	str	r2, [r7, #4]
 8005cc0:	603b      	str	r3, [r7, #0]
BaseType_t xReturn;
UBaseType_t uxSavedInterruptStatus;
Queue_t * const pxQueue = xQueue;
 8005cc2:	68fb      	ldr	r3, [r7, #12]
 8005cc4:	633b      	str	r3, [r7, #48]	; 0x30

	configASSERT( pxQueue );
 8005cc6:	6b3b      	ldr	r3, [r7, #48]	; 0x30
 8005cc8:	2b00      	cmp	r3, #0
 8005cca:	d10c      	bne.n	8005ce6 <xQueueGenericSendFromISR+0x32>
	__asm volatile
 8005ccc:	f04f 0350 	mov.w	r3, #80	; 0x50
 8005cd0:	b672      	cpsid	i
 8005cd2:	f383 8811 	msr	BASEPRI, r3
 8005cd6:	f3bf 8f6f 	isb	sy
 8005cda:	f3bf 8f4f 	dsb	sy
 8005cde:	b662      	cpsie	i
 8005ce0:	627b      	str	r3, [r7, #36]	; 0x24
}
 8005ce2:	bf00      	nop
 8005ce4:	e7fe      	b.n	8005ce4 <xQueueGenericSendFromISR+0x30>
	configASSERT( !( ( pvItemToQueue == NULL ) && ( pxQueue->uxItemSize != ( UBaseType_t ) 0U ) ) );
 8005ce6:	68bb      	ldr	r3, [r7, #8]
 8005ce8:	2b00      	cmp	r3, #0
 8005cea:	d103      	bne.n	8005cf4 <xQueueGenericSendFromISR+0x40>
 8005cec:	6b3b      	ldr	r3, [r7, #48]	; 0x30
 8005cee:	6c1b      	ldr	r3, [r3, #64]	; 0x40
 8005cf0:	2b00      	cmp	r3, #0
 8005cf2:	d101      	bne.n	8005cf8 <xQueueGenericSendFromISR+0x44>
 8005cf4:	2301      	movs	r3, #1
 8005cf6:	e000      	b.n	8005cfa <xQueueGenericSendFromISR+0x46>
 8005cf8:	2300      	movs	r3, #0
 8005cfa:	2b00      	cmp	r3, #0
 8005cfc:	d10c      	bne.n	8005d18 <xQueueGenericSendFromISR+0x64>
	__asm volatile
 8005cfe:	f04f 0350 	mov.w	r3, #80	; 0x50
 8005d02:	b672      	cpsid	i
 8005d04:	f383 8811 	msr	BASEPRI, r3
 8005d08:	f3bf 8f6f 	isb	sy
 8005d0c:	f3bf 8f4f 	dsb	sy
 8005d10:	b662      	cpsie	i
 8005d12:	623b      	str	r3, [r7, #32]
}
 8005d14:	bf00      	nop
 8005d16:	e7fe      	b.n	8005d16 <xQueueGenericSendFromISR+0x62>
	configASSERT( !( ( xCopyPosition == queueOVERWRITE ) && ( pxQueue->uxLength != 1 ) ) );
 8005d18:	683b      	ldr	r3, [r7, #0]
 8005d1a:	2b02      	cmp	r3, #2
 8005d1c:	d103      	bne.n	8005d26 <xQueueGenericSendFromISR+0x72>
 8005d1e:	6b3b      	ldr	r3, [r7, #48]	; 0x30
 8005d20:	6bdb      	ldr	r3, [r3, #60]	; 0x3c
 8005d22:	2b01      	cmp	r3, #1
 8005d24:	d101      	bne.n	8005d2a <xQueueGenericSendFromISR+0x76>
 8005d26:	2301      	movs	r3, #1
 8005d28:	e000      	b.n	8005d2c <xQueueGenericSendFromISR+0x78>
 8005d2a:	2300      	movs	r3, #0
 8005d2c:	2b00      	cmp	r3, #0
 8005d2e:	d10c      	bne.n	8005d4a <xQueueGenericSendFromISR+0x96>
	__asm volatile
 8005d30:	f04f 0350 	mov.w	r3, #80	; 0x50
 8005d34:	b672      	cpsid	i
 8005d36:	f383 8811 	msr	BASEPRI, r3
 8005d3a:	f3bf 8f6f 	isb	sy
 8005d3e:	f3bf 8f4f 	dsb	sy
 8005d42:	b662      	cpsie	i
 8005d44:	61fb      	str	r3, [r7, #28]
}
 8005d46:	bf00      	nop
 8005d48:	e7fe      	b.n	8005d48 <xQueueGenericSendFromISR+0x94>
	that have been assigned a priority at or (logically) below the maximum
	system call	interrupt priority.  FreeRTOS maintains a separate interrupt
	safe API to ensure interrupt entry is as fast and as simple as possible.
	More information (albeit Cortex-M specific) is provided on the following
	link: http://www.freertos.org/RTOS-Cortex-M3-M4.html */
	portASSERT_IF_INTERRUPT_PRIORITY_INVALID();
 8005d4a:	f001 fbb7 	bl	80074bc <vPortValidateInterruptPriority>

portFORCE_INLINE static uint32_t ulPortRaiseBASEPRI( void )
{
uint32_t ulOriginalBASEPRI, ulNewBASEPRI;

	__asm volatile
 8005d4e:	f3ef 8211 	mrs	r2, BASEPRI
 8005d52:	f04f 0350 	mov.w	r3, #80	; 0x50
 8005d56:	b672      	cpsid	i
 8005d58:	f383 8811 	msr	BASEPRI, r3
 8005d5c:	f3bf 8f6f 	isb	sy
 8005d60:	f3bf 8f4f 	dsb	sy
 8005d64:	b662      	cpsie	i
 8005d66:	61ba      	str	r2, [r7, #24]
 8005d68:	617b      	str	r3, [r7, #20]
		:"=r" (ulOriginalBASEPRI), "=r" (ulNewBASEPRI) : "i" ( configMAX_SYSCALL_INTERRUPT_PRIORITY ) : "memory"
	);

	/* This return will not be reached but is necessary to prevent compiler
	warnings. */
	return ulOriginalBASEPRI;
 8005d6a:	69bb      	ldr	r3, [r7, #24]
	/* Similar to xQueueGenericSend, except without blocking if there is no room
	in the queue.  Also don't directly wake a task that was blocked on a queue
	read, instead return a flag to say whether a context switch is required or
	not (i.e. has a task with a higher priority than us been woken by this
	post). */
	uxSavedInterruptStatus = portSET_INTERRUPT_MASK_FROM_ISR();
 8005d6c:	62fb      	str	r3, [r7, #44]	; 0x2c
	{
		if( ( pxQueue->uxMessagesWaiting < pxQueue->uxLength ) || ( xCopyPosition == queueOVERWRITE ) )
 8005d6e:	6b3b      	ldr	r3, [r7, #48]	; 0x30
 8005d70:	6b9a      	ldr	r2, [r3, #56]	; 0x38
 8005d72:	6b3b      	ldr	r3, [r7, #48]	; 0x30
 8005d74:	6bdb      	ldr	r3, [r3, #60]	; 0x3c
 8005d76:	429a      	cmp	r2, r3
 8005d78:	d302      	bcc.n	8005d80 <xQueueGenericSendFromISR+0xcc>
 8005d7a:	683b      	ldr	r3, [r7, #0]
 8005d7c:	2b02      	cmp	r3, #2
 8005d7e:	d12c      	bne.n	8005dda <xQueueGenericSendFromISR+0x126>
		{
			const int8_t cTxLock = pxQueue->cTxLock;
 8005d80:	6b3b      	ldr	r3, [r7, #48]	; 0x30
 8005d82:	f893 3045 	ldrb.w	r3, [r3, #69]	; 0x45
 8005d86:	f887 302b 	strb.w	r3, [r7, #43]	; 0x2b
			/* Semaphores use xQueueGiveFromISR(), so pxQueue will not be a
			semaphore or mutex.  That means prvCopyDataToQueue() cannot result
			in a task disinheriting a priority and prvCopyDataToQueue() can be
			called here even though the disinherit function does not check if
			the scheduler is suspended before accessing the ready lists. */
			( void ) prvCopyDataToQueue( pxQueue, pvItemToQueue, xCopyPosition );
 8005d8a:	683a      	ldr	r2, [r7, #0]
 8005d8c:	68b9      	ldr	r1, [r7, #8]
 8005d8e:	6b38      	ldr	r0, [r7, #48]	; 0x30
 8005d90:	f000 f99c 	bl	80060cc <prvCopyDataToQueue>

			/* The event list is not altered if the queue is locked.  This will
			be done when the queue is unlocked later. */
			if( cTxLock == queueUNLOCKED )
 8005d94:	f997 302b 	ldrsb.w	r3, [r7, #43]	; 0x2b
 8005d98:	f1b3 3fff 	cmp.w	r3, #4294967295
 8005d9c:	d112      	bne.n	8005dc4 <xQueueGenericSendFromISR+0x110>
						}
					}
				}
				#else /* configUSE_QUEUE_SETS */
				{
					if( listLIST_IS_EMPTY( &( pxQueue->xTasksWaitingToReceive ) ) == pdFALSE )
 8005d9e:	6b3b      	ldr	r3, [r7, #48]	; 0x30
 8005da0:	6a5b      	ldr	r3, [r3, #36]	; 0x24
 8005da2:	2b00      	cmp	r3, #0
 8005da4:	d016      	beq.n	8005dd4 <xQueueGenericSendFromISR+0x120>
					{
						if( xTaskRemoveFromEventList( &( pxQueue->xTasksWaitingToReceive ) ) != pdFALSE )
 8005da6:	6b3b      	ldr	r3, [r7, #48]	; 0x30
 8005da8:	3324      	adds	r3, #36	; 0x24
 8005daa:	4618      	mov	r0, r3
 8005dac:	f000 fee4 	bl	8006b78 <xTaskRemoveFromEventList>
 8005db0:	4603      	mov	r3, r0
 8005db2:	2b00      	cmp	r3, #0
 8005db4:	d00e      	beq.n	8005dd4 <xQueueGenericSendFromISR+0x120>
						{
							/* The task waiting has a higher priority so record that a
							context	switch is required. */
							if( pxHigherPriorityTaskWoken != NULL )
 8005db6:	687b      	ldr	r3, [r7, #4]
 8005db8:	2b00      	cmp	r3, #0
 8005dba:	d00b      	beq.n	8005dd4 <xQueueGenericSendFromISR+0x120>
							{
								*pxHigherPriorityTaskWoken = pdTRUE;
 8005dbc:	687b      	ldr	r3, [r7, #4]
 8005dbe:	2201      	movs	r2, #1
 8005dc0:	601a      	str	r2, [r3, #0]
 8005dc2:	e007      	b.n	8005dd4 <xQueueGenericSendFromISR+0x120>
			}
			else
			{
				/* Increment the lock count so the task that unlocks the queue
				knows that data was posted while it was locked. */
				pxQueue->cTxLock = ( int8_t ) ( cTxLock + 1 );
 8005dc4:	f897 302b 	ldrb.w	r3, [r7, #43]	; 0x2b
 8005dc8:	3301      	adds	r3, #1
 8005dca:	b2db      	uxtb	r3, r3
 8005dcc:	b25a      	sxtb	r2, r3
 8005dce:	6b3b      	ldr	r3, [r7, #48]	; 0x30
 8005dd0:	f883 2045 	strb.w	r2, [r3, #69]	; 0x45
			}

			xReturn = pdPASS;
 8005dd4:	2301      	movs	r3, #1
 8005dd6:	637b      	str	r3, [r7, #52]	; 0x34
		{
 8005dd8:	e001      	b.n	8005dde <xQueueGenericSendFromISR+0x12a>
		}
		else
		{
			traceQUEUE_SEND_FROM_ISR_FAILED( pxQueue );
			xReturn = errQUEUE_FULL;
 8005dda:	2300      	movs	r3, #0
 8005ddc:	637b      	str	r3, [r7, #52]	; 0x34
 8005dde:	6afb      	ldr	r3, [r7, #44]	; 0x2c
 8005de0:	613b      	str	r3, [r7, #16]
}
/*-----------------------------------------------------------*/

portFORCE_INLINE static void vPortSetBASEPRI( uint32_t ulNewMaskValue )
{
	__asm volatile
 8005de2:	693b      	ldr	r3, [r7, #16]
 8005de4:	f383 8811 	msr	BASEPRI, r3
	(
		"	msr basepri, %0	" :: "r" ( ulNewMaskValue ) : "memory"
	);
}
 8005de8:	bf00      	nop
		}
	}
	portCLEAR_INTERRUPT_MASK_FROM_ISR( uxSavedInterruptStatus );

	return xReturn;
 8005dea:	6b7b      	ldr	r3, [r7, #52]	; 0x34
}
 8005dec:	4618      	mov	r0, r3
 8005dee:	3738      	adds	r7, #56	; 0x38
 8005df0:	46bd      	mov	sp, r7
 8005df2:	bd80      	pop	{r7, pc}

08005df4 <xQueueReceive>:
	return xReturn;
}
/*-----------------------------------------------------------*/

BaseType_t xQueueReceive( QueueHandle_t xQueue, void * const pvBuffer, TickType_t xTicksToWait )
{
 8005df4:	b580      	push	{r7, lr}
 8005df6:	b08c      	sub	sp, #48	; 0x30
 8005df8:	af00      	add	r7, sp, #0
 8005dfa:	60f8      	str	r0, [r7, #12]
 8005dfc:	60b9      	str	r1, [r7, #8]
 8005dfe:	607a      	str	r2, [r7, #4]
BaseType_t xEntryTimeSet = pdFALSE;
 8005e00:	2300      	movs	r3, #0
 8005e02:	62fb      	str	r3, [r7, #44]	; 0x2c
TimeOut_t xTimeOut;
Queue_t * const pxQueue = xQueue;
 8005e04:	68fb      	ldr	r3, [r7, #12]
 8005e06:	62bb      	str	r3, [r7, #40]	; 0x28

	/* Check the pointer is not NULL. */
	configASSERT( ( pxQueue ) );
 8005e08:	6abb      	ldr	r3, [r7, #40]	; 0x28
 8005e0a:	2b00      	cmp	r3, #0
 8005e0c:	d10c      	bne.n	8005e28 <xQueueReceive+0x34>
	__asm volatile
 8005e0e:	f04f 0350 	mov.w	r3, #80	; 0x50
 8005e12:	b672      	cpsid	i
 8005e14:	f383 8811 	msr	BASEPRI, r3
 8005e18:	f3bf 8f6f 	isb	sy
 8005e1c:	f3bf 8f4f 	dsb	sy
 8005e20:	b662      	cpsie	i
 8005e22:	623b      	str	r3, [r7, #32]
}
 8005e24:	bf00      	nop
 8005e26:	e7fe      	b.n	8005e26 <xQueueReceive+0x32>

	/* The buffer into which data is received can only be NULL if the data size
	is zero (so no data is copied into the buffer. */
	configASSERT( !( ( ( pvBuffer ) == NULL ) && ( ( pxQueue )->uxItemSize != ( UBaseType_t ) 0U ) ) );
 8005e28:	68bb      	ldr	r3, [r7, #8]
 8005e2a:	2b00      	cmp	r3, #0
 8005e2c:	d103      	bne.n	8005e36 <xQueueReceive+0x42>
 8005e2e:	6abb      	ldr	r3, [r7, #40]	; 0x28
 8005e30:	6c1b      	ldr	r3, [r3, #64]	; 0x40
 8005e32:	2b00      	cmp	r3, #0
 8005e34:	d101      	bne.n	8005e3a <xQueueReceive+0x46>
 8005e36:	2301      	movs	r3, #1
 8005e38:	e000      	b.n	8005e3c <xQueueReceive+0x48>
 8005e3a:	2300      	movs	r3, #0
 8005e3c:	2b00      	cmp	r3, #0
 8005e3e:	d10c      	bne.n	8005e5a <xQueueReceive+0x66>
	__asm volatile
 8005e40:	f04f 0350 	mov.w	r3, #80	; 0x50
 8005e44:	b672      	cpsid	i
 8005e46:	f383 8811 	msr	BASEPRI, r3
 8005e4a:	f3bf 8f6f 	isb	sy
 8005e4e:	f3bf 8f4f 	dsb	sy
 8005e52:	b662      	cpsie	i
 8005e54:	61fb      	str	r3, [r7, #28]
}
 8005e56:	bf00      	nop
 8005e58:	e7fe      	b.n	8005e58 <xQueueReceive+0x64>

	/* Cannot block if the scheduler is suspended. */
	#if ( ( INCLUDE_xTaskGetSchedulerState == 1 ) || ( configUSE_TIMERS == 1 ) )
	{
		configASSERT( !( ( xTaskGetSchedulerState() == taskSCHEDULER_SUSPENDED ) && ( xTicksToWait != 0 ) ) );
 8005e5a:	f001 f82f 	bl	8006ebc <xTaskGetSchedulerState>
 8005e5e:	4603      	mov	r3, r0
 8005e60:	2b00      	cmp	r3, #0
 8005e62:	d102      	bne.n	8005e6a <xQueueReceive+0x76>
 8005e64:	687b      	ldr	r3, [r7, #4]
 8005e66:	2b00      	cmp	r3, #0
 8005e68:	d101      	bne.n	8005e6e <xQueueReceive+0x7a>
 8005e6a:	2301      	movs	r3, #1
 8005e6c:	e000      	b.n	8005e70 <xQueueReceive+0x7c>
 8005e6e:	2300      	movs	r3, #0
 8005e70:	2b00      	cmp	r3, #0
 8005e72:	d10c      	bne.n	8005e8e <xQueueReceive+0x9a>
	__asm volatile
 8005e74:	f04f 0350 	mov.w	r3, #80	; 0x50
 8005e78:	b672      	cpsid	i
 8005e7a:	f383 8811 	msr	BASEPRI, r3
 8005e7e:	f3bf 8f6f 	isb	sy
 8005e82:	f3bf 8f4f 	dsb	sy
 8005e86:	b662      	cpsie	i
 8005e88:	61bb      	str	r3, [r7, #24]
}
 8005e8a:	bf00      	nop
 8005e8c:	e7fe      	b.n	8005e8c <xQueueReceive+0x98>
	/*lint -save -e904  This function relaxes the coding standard somewhat to
	allow return statements within the function itself.  This is done in the
	interest of execution time efficiency. */
	for( ;; )
	{
		taskENTER_CRITICAL();
 8005e8e:	f001 fa2d 	bl	80072ec <vPortEnterCritical>
		{
			const UBaseType_t uxMessagesWaiting = pxQueue->uxMessagesWaiting;
 8005e92:	6abb      	ldr	r3, [r7, #40]	; 0x28
 8005e94:	6b9b      	ldr	r3, [r3, #56]	; 0x38
 8005e96:	627b      	str	r3, [r7, #36]	; 0x24

			/* Is there data in the queue now?  To be running the calling task
			must be the highest priority task wanting to access the queue. */
			if( uxMessagesWaiting > ( UBaseType_t ) 0 )
 8005e98:	6a7b      	ldr	r3, [r7, #36]	; 0x24
 8005e9a:	2b00      	cmp	r3, #0
 8005e9c:	d01f      	beq.n	8005ede <xQueueReceive+0xea>
			{
				/* Data available, remove one item. */
				prvCopyDataFromQueue( pxQueue, pvBuffer );
 8005e9e:	68b9      	ldr	r1, [r7, #8]
 8005ea0:	6ab8      	ldr	r0, [r7, #40]	; 0x28
 8005ea2:	f000 f97d 	bl	80061a0 <prvCopyDataFromQueue>
				traceQUEUE_RECEIVE( pxQueue );
				pxQueue->uxMessagesWaiting = uxMessagesWaiting - ( UBaseType_t ) 1;
 8005ea6:	6a7b      	ldr	r3, [r7, #36]	; 0x24
 8005ea8:	1e5a      	subs	r2, r3, #1
 8005eaa:	6abb      	ldr	r3, [r7, #40]	; 0x28
 8005eac:	639a      	str	r2, [r3, #56]	; 0x38

				/* There is now space in the queue, were any tasks waiting to
				post to the queue?  If so, unblock the highest priority waiting
				task. */
				if( listLIST_IS_EMPTY( &( pxQueue->xTasksWaitingToSend ) ) == pdFALSE )
 8005eae:	6abb      	ldr	r3, [r7, #40]	; 0x28
 8005eb0:	691b      	ldr	r3, [r3, #16]
 8005eb2:	2b00      	cmp	r3, #0
 8005eb4:	d00f      	beq.n	8005ed6 <xQueueReceive+0xe2>
				{
					if( xTaskRemoveFromEventList( &( pxQueue->xTasksWaitingToSend ) ) != pdFALSE )
 8005eb6:	6abb      	ldr	r3, [r7, #40]	; 0x28
 8005eb8:	3310      	adds	r3, #16
 8005eba:	4618      	mov	r0, r3
 8005ebc:	f000 fe5c 	bl	8006b78 <xTaskRemoveFromEventList>
 8005ec0:	4603      	mov	r3, r0
 8005ec2:	2b00      	cmp	r3, #0
 8005ec4:	d007      	beq.n	8005ed6 <xQueueReceive+0xe2>
					{
						queueYIELD_IF_USING_PREEMPTION();
 8005ec6:	4b3d      	ldr	r3, [pc, #244]	; (8005fbc <xQueueReceive+0x1c8>)
 8005ec8:	f04f 5280 	mov.w	r2, #268435456	; 0x10000000
 8005ecc:	601a      	str	r2, [r3, #0]
 8005ece:	f3bf 8f4f 	dsb	sy
 8005ed2:	f3bf 8f6f 	isb	sy
				else
				{
					mtCOVERAGE_TEST_MARKER();
				}

				taskEXIT_CRITICAL();
 8005ed6:	f001 fa3d 	bl	8007354 <vPortExitCritical>
				return pdPASS;
 8005eda:	2301      	movs	r3, #1
 8005edc:	e069      	b.n	8005fb2 <xQueueReceive+0x1be>
			}
			else
			{
				if( xTicksToWait == ( TickType_t ) 0 )
 8005ede:	687b      	ldr	r3, [r7, #4]
 8005ee0:	2b00      	cmp	r3, #0
 8005ee2:	d103      	bne.n	8005eec <xQueueReceive+0xf8>
				{
					/* The queue was empty and no block time is specified (or
					the block time has expired) so leave now. */
					taskEXIT_CRITICAL();
 8005ee4:	f001 fa36 	bl	8007354 <vPortExitCritical>
					traceQUEUE_RECEIVE_FAILED( pxQueue );
					return errQUEUE_EMPTY;
 8005ee8:	2300      	movs	r3, #0
 8005eea:	e062      	b.n	8005fb2 <xQueueReceive+0x1be>
				}
				else if( xEntryTimeSet == pdFALSE )
 8005eec:	6afb      	ldr	r3, [r7, #44]	; 0x2c
 8005eee:	2b00      	cmp	r3, #0
 8005ef0:	d106      	bne.n	8005f00 <xQueueReceive+0x10c>
				{
					/* The queue was empty and a block time was specified so
					configure the timeout structure. */
					vTaskInternalSetTimeOutState( &xTimeOut );
 8005ef2:	f107 0310 	add.w	r3, r7, #16
 8005ef6:	4618      	mov	r0, r3
 8005ef8:	f000 fea2 	bl	8006c40 <vTaskInternalSetTimeOutState>
					xEntryTimeSet = pdTRUE;
 8005efc:	2301      	movs	r3, #1
 8005efe:	62fb      	str	r3, [r7, #44]	; 0x2c
					/* Entry time was already set. */
					mtCOVERAGE_TEST_MARKER();
				}
			}
		}
		taskEXIT_CRITICAL();
 8005f00:	f001 fa28 	bl	8007354 <vPortExitCritical>

		/* Interrupts and other tasks can send to and receive from the queue
		now the critical section has been exited. */

		vTaskSuspendAll();
 8005f04:	f000 fc2c 	bl	8006760 <vTaskSuspendAll>
		prvLockQueue( pxQueue );
 8005f08:	f001 f9f0 	bl	80072ec <vPortEnterCritical>
 8005f0c:	6abb      	ldr	r3, [r7, #40]	; 0x28
 8005f0e:	f893 3044 	ldrb.w	r3, [r3, #68]	; 0x44
 8005f12:	b25b      	sxtb	r3, r3
 8005f14:	f1b3 3fff 	cmp.w	r3, #4294967295
 8005f18:	d103      	bne.n	8005f22 <xQueueReceive+0x12e>
 8005f1a:	6abb      	ldr	r3, [r7, #40]	; 0x28
 8005f1c:	2200      	movs	r2, #0
 8005f1e:	f883 2044 	strb.w	r2, [r3, #68]	; 0x44
 8005f22:	6abb      	ldr	r3, [r7, #40]	; 0x28
 8005f24:	f893 3045 	ldrb.w	r3, [r3, #69]	; 0x45
 8005f28:	b25b      	sxtb	r3, r3
 8005f2a:	f1b3 3fff 	cmp.w	r3, #4294967295
 8005f2e:	d103      	bne.n	8005f38 <xQueueReceive+0x144>
 8005f30:	6abb      	ldr	r3, [r7, #40]	; 0x28
 8005f32:	2200      	movs	r2, #0
 8005f34:	f883 2045 	strb.w	r2, [r3, #69]	; 0x45
 8005f38:	f001 fa0c 	bl	8007354 <vPortExitCritical>

		/* Update the timeout state to see if it has expired yet. */
		if( xTaskCheckForTimeOut( &xTimeOut, &xTicksToWait ) == pdFALSE )
 8005f3c:	1d3a      	adds	r2, r7, #4
 8005f3e:	f107 0310 	add.w	r3, r7, #16
 8005f42:	4611      	mov	r1, r2
 8005f44:	4618      	mov	r0, r3
 8005f46:	f000 fe91 	bl	8006c6c <xTaskCheckForTimeOut>
 8005f4a:	4603      	mov	r3, r0
 8005f4c:	2b00      	cmp	r3, #0
 8005f4e:	d123      	bne.n	8005f98 <xQueueReceive+0x1a4>
		{
			/* The timeout has not expired.  If the queue is still empty place
			the task on the list of tasks waiting to receive from the queue. */
			if( prvIsQueueEmpty( pxQueue ) != pdFALSE )
 8005f50:	6ab8      	ldr	r0, [r7, #40]	; 0x28
 8005f52:	f000 f99d 	bl	8006290 <prvIsQueueEmpty>
 8005f56:	4603      	mov	r3, r0
 8005f58:	2b00      	cmp	r3, #0
 8005f5a:	d017      	beq.n	8005f8c <xQueueReceive+0x198>
			{
				traceBLOCKING_ON_QUEUE_RECEIVE( pxQueue );
				vTaskPlaceOnEventList( &( pxQueue->xTasksWaitingToReceive ), xTicksToWait );
 8005f5c:	6abb      	ldr	r3, [r7, #40]	; 0x28
 8005f5e:	3324      	adds	r3, #36	; 0x24
 8005f60:	687a      	ldr	r2, [r7, #4]
 8005f62:	4611      	mov	r1, r2
 8005f64:	4618      	mov	r0, r3
 8005f66:	f000 fde1 	bl	8006b2c <vTaskPlaceOnEventList>
				prvUnlockQueue( pxQueue );
 8005f6a:	6ab8      	ldr	r0, [r7, #40]	; 0x28
 8005f6c:	f000 f93e 	bl	80061ec <prvUnlockQueue>
				if( xTaskResumeAll() == pdFALSE )
 8005f70:	f000 fc04 	bl	800677c <xTaskResumeAll>
 8005f74:	4603      	mov	r3, r0
 8005f76:	2b00      	cmp	r3, #0
 8005f78:	d189      	bne.n	8005e8e <xQueueReceive+0x9a>
				{
					portYIELD_WITHIN_API();
 8005f7a:	4b10      	ldr	r3, [pc, #64]	; (8005fbc <xQueueReceive+0x1c8>)
 8005f7c:	f04f 5280 	mov.w	r2, #268435456	; 0x10000000
 8005f80:	601a      	str	r2, [r3, #0]
 8005f82:	f3bf 8f4f 	dsb	sy
 8005f86:	f3bf 8f6f 	isb	sy
 8005f8a:	e780      	b.n	8005e8e <xQueueReceive+0x9a>
			}
			else
			{
				/* The queue contains data again.  Loop back to try and read the
				data. */
				prvUnlockQueue( pxQueue );
 8005f8c:	6ab8      	ldr	r0, [r7, #40]	; 0x28
 8005f8e:	f000 f92d 	bl	80061ec <prvUnlockQueue>
				( void ) xTaskResumeAll();
 8005f92:	f000 fbf3 	bl	800677c <xTaskResumeAll>
 8005f96:	e77a      	b.n	8005e8e <xQueueReceive+0x9a>
		}
		else
		{
			/* Timed out.  If there is no data in the queue exit, otherwise loop
			back and attempt to read the data. */
			prvUnlockQueue( pxQueue );
 8005f98:	6ab8      	ldr	r0, [r7, #40]	; 0x28
 8005f9a:	f000 f927 	bl	80061ec <prvUnlockQueue>
			( void ) xTaskResumeAll();
 8005f9e:	f000 fbed 	bl	800677c <xTaskResumeAll>

			if( prvIsQueueEmpty( pxQueue ) != pdFALSE )
 8005fa2:	6ab8      	ldr	r0, [r7, #40]	; 0x28
 8005fa4:	f000 f974 	bl	8006290 <prvIsQueueEmpty>
 8005fa8:	4603      	mov	r3, r0
 8005faa:	2b00      	cmp	r3, #0
 8005fac:	f43f af6f 	beq.w	8005e8e <xQueueReceive+0x9a>
			{
				traceQUEUE_RECEIVE_FAILED( pxQueue );
				return errQUEUE_EMPTY;
 8005fb0:	2300      	movs	r3, #0
			{
				mtCOVERAGE_TEST_MARKER();
			}
		}
	} /*lint -restore */
}
 8005fb2:	4618      	mov	r0, r3
 8005fb4:	3730      	adds	r7, #48	; 0x30
 8005fb6:	46bd      	mov	sp, r7
 8005fb8:	bd80      	pop	{r7, pc}
 8005fba:	bf00      	nop
 8005fbc:	e000ed04 	.word	0xe000ed04

08005fc0 <xQueueReceiveFromISR>:
	} /*lint -restore */
}
/*-----------------------------------------------------------*/

BaseType_t xQueueReceiveFromISR( QueueHandle_t xQueue, void * const pvBuffer, BaseType_t * const pxHigherPriorityTaskWoken )
{
 8005fc0:	b580      	push	{r7, lr}
 8005fc2:	b08e      	sub	sp, #56	; 0x38
 8005fc4:	af00      	add	r7, sp, #0
 8005fc6:	60f8      	str	r0, [r7, #12]
 8005fc8:	60b9      	str	r1, [r7, #8]
 8005fca:	607a      	str	r2, [r7, #4]
BaseType_t xReturn;
UBaseType_t uxSavedInterruptStatus;
Queue_t * const pxQueue = xQueue;
 8005fcc:	68fb      	ldr	r3, [r7, #12]
 8005fce:	633b      	str	r3, [r7, #48]	; 0x30

	configASSERT( pxQueue );
 8005fd0:	6b3b      	ldr	r3, [r7, #48]	; 0x30
 8005fd2:	2b00      	cmp	r3, #0
 8005fd4:	d10c      	bne.n	8005ff0 <xQueueReceiveFromISR+0x30>
	__asm volatile
 8005fd6:	f04f 0350 	mov.w	r3, #80	; 0x50
 8005fda:	b672      	cpsid	i
 8005fdc:	f383 8811 	msr	BASEPRI, r3
 8005fe0:	f3bf 8f6f 	isb	sy
 8005fe4:	f3bf 8f4f 	dsb	sy
 8005fe8:	b662      	cpsie	i
 8005fea:	623b      	str	r3, [r7, #32]
}
 8005fec:	bf00      	nop
 8005fee:	e7fe      	b.n	8005fee <xQueueReceiveFromISR+0x2e>
	configASSERT( !( ( pvBuffer == NULL ) && ( pxQueue->uxItemSize != ( UBaseType_t ) 0U ) ) );
 8005ff0:	68bb      	ldr	r3, [r7, #8]
 8005ff2:	2b00      	cmp	r3, #0
 8005ff4:	d103      	bne.n	8005ffe <xQueueReceiveFromISR+0x3e>
 8005ff6:	6b3b      	ldr	r3, [r7, #48]	; 0x30
 8005ff8:	6c1b      	ldr	r3, [r3, #64]	; 0x40
 8005ffa:	2b00      	cmp	r3, #0
 8005ffc:	d101      	bne.n	8006002 <xQueueReceiveFromISR+0x42>
 8005ffe:	2301      	movs	r3, #1
 8006000:	e000      	b.n	8006004 <xQueueReceiveFromISR+0x44>
 8006002:	2300      	movs	r3, #0
 8006004:	2b00      	cmp	r3, #0
 8006006:	d10c      	bne.n	8006022 <xQueueReceiveFromISR+0x62>
	__asm volatile
 8006008:	f04f 0350 	mov.w	r3, #80	; 0x50
 800600c:	b672      	cpsid	i
 800600e:	f383 8811 	msr	BASEPRI, r3
 8006012:	f3bf 8f6f 	isb	sy
 8006016:	f3bf 8f4f 	dsb	sy
 800601a:	b662      	cpsie	i
 800601c:	61fb      	str	r3, [r7, #28]
}
 800601e:	bf00      	nop
 8006020:	e7fe      	b.n	8006020 <xQueueReceiveFromISR+0x60>
	that have been assigned a priority at or (logically) below the maximum
	system call	interrupt priority.  FreeRTOS maintains a separate interrupt
	safe API to ensure interrupt entry is as fast and as simple as possible.
	More information (albeit Cortex-M specific) is provided on the following
	link: http://www.freertos.org/RTOS-Cortex-M3-M4.html */
	portASSERT_IF_INTERRUPT_PRIORITY_INVALID();
 8006022:	f001 fa4b 	bl	80074bc <vPortValidateInterruptPriority>
	__asm volatile
 8006026:	f3ef 8211 	mrs	r2, BASEPRI
 800602a:	f04f 0350 	mov.w	r3, #80	; 0x50
 800602e:	b672      	cpsid	i
 8006030:	f383 8811 	msr	BASEPRI, r3
 8006034:	f3bf 8f6f 	isb	sy
 8006038:	f3bf 8f4f 	dsb	sy
 800603c:	b662      	cpsie	i
 800603e:	61ba      	str	r2, [r7, #24]
 8006040:	617b      	str	r3, [r7, #20]
	return ulOriginalBASEPRI;
 8006042:	69bb      	ldr	r3, [r7, #24]

	uxSavedInterruptStatus = portSET_INTERRUPT_MASK_FROM_ISR();
 8006044:	62fb      	str	r3, [r7, #44]	; 0x2c
	{
		const UBaseType_t uxMessagesWaiting = pxQueue->uxMessagesWaiting;
 8006046:	6b3b      	ldr	r3, [r7, #48]	; 0x30
 8006048:	6b9b      	ldr	r3, [r3, #56]	; 0x38
 800604a:	62bb      	str	r3, [r7, #40]	; 0x28

		/* Cannot block in an ISR, so check there is data available. */
		if( uxMessagesWaiting > ( UBaseType_t ) 0 )
 800604c:	6abb      	ldr	r3, [r7, #40]	; 0x28
 800604e:	2b00      	cmp	r3, #0
 8006050:	d02f      	beq.n	80060b2 <xQueueReceiveFromISR+0xf2>
		{
			const int8_t cRxLock = pxQueue->cRxLock;
 8006052:	6b3b      	ldr	r3, [r7, #48]	; 0x30
 8006054:	f893 3044 	ldrb.w	r3, [r3, #68]	; 0x44
 8006058:	f887 3027 	strb.w	r3, [r7, #39]	; 0x27

			traceQUEUE_RECEIVE_FROM_ISR( pxQueue );

			prvCopyDataFromQueue( pxQueue, pvBuffer );
 800605c:	68b9      	ldr	r1, [r7, #8]
 800605e:	6b38      	ldr	r0, [r7, #48]	; 0x30
 8006060:	f000 f89e 	bl	80061a0 <prvCopyDataFromQueue>
			pxQueue->uxMessagesWaiting = uxMessagesWaiting - ( UBaseType_t ) 1;
 8006064:	6abb      	ldr	r3, [r7, #40]	; 0x28
 8006066:	1e5a      	subs	r2, r3, #1
 8006068:	6b3b      	ldr	r3, [r7, #48]	; 0x30
 800606a:	639a      	str	r2, [r3, #56]	; 0x38

			/* If the queue is locked the event list will not be modified.
			Instead update the lock count so the task that unlocks the queue
			will know that an ISR has removed data while the queue was
			locked. */
			if( cRxLock == queueUNLOCKED )
 800606c:	f997 3027 	ldrsb.w	r3, [r7, #39]	; 0x27
 8006070:	f1b3 3fff 	cmp.w	r3, #4294967295
 8006074:	d112      	bne.n	800609c <xQueueReceiveFromISR+0xdc>
			{
				if( listLIST_IS_EMPTY( &( pxQueue->xTasksWaitingToSend ) ) == pdFALSE )
 8006076:	6b3b      	ldr	r3, [r7, #48]	; 0x30
 8006078:	691b      	ldr	r3, [r3, #16]
 800607a:	2b00      	cmp	r3, #0
 800607c:	d016      	beq.n	80060ac <xQueueReceiveFromISR+0xec>
				{
					if( xTaskRemoveFromEventList( &( pxQueue->xTasksWaitingToSend ) ) != pdFALSE )
 800607e:	6b3b      	ldr	r3, [r7, #48]	; 0x30
 8006080:	3310      	adds	r3, #16
 8006082:	4618      	mov	r0, r3
 8006084:	f000 fd78 	bl	8006b78 <xTaskRemoveFromEventList>
 8006088:	4603      	mov	r3, r0
 800608a:	2b00      	cmp	r3, #0
 800608c:	d00e      	beq.n	80060ac <xQueueReceiveFromISR+0xec>
					{
						/* The task waiting has a higher priority than us so
						force a context switch. */
						if( pxHigherPriorityTaskWoken != NULL )
 800608e:	687b      	ldr	r3, [r7, #4]
 8006090:	2b00      	cmp	r3, #0
 8006092:	d00b      	beq.n	80060ac <xQueueReceiveFromISR+0xec>
						{
							*pxHigherPriorityTaskWoken = pdTRUE;
 8006094:	687b      	ldr	r3, [r7, #4]
 8006096:	2201      	movs	r2, #1
 8006098:	601a      	str	r2, [r3, #0]
 800609a:	e007      	b.n	80060ac <xQueueReceiveFromISR+0xec>
			}
			else
			{
				/* Increment the lock count so the task that unlocks the queue
				knows that data was removed while it was locked. */
				pxQueue->cRxLock = ( int8_t ) ( cRxLock + 1 );
 800609c:	f897 3027 	ldrb.w	r3, [r7, #39]	; 0x27
 80060a0:	3301      	adds	r3, #1
 80060a2:	b2db      	uxtb	r3, r3
 80060a4:	b25a      	sxtb	r2, r3
 80060a6:	6b3b      	ldr	r3, [r7, #48]	; 0x30
 80060a8:	f883 2044 	strb.w	r2, [r3, #68]	; 0x44
			}

			xReturn = pdPASS;
 80060ac:	2301      	movs	r3, #1
 80060ae:	637b      	str	r3, [r7, #52]	; 0x34
 80060b0:	e001      	b.n	80060b6 <xQueueReceiveFromISR+0xf6>
		}
		else
		{
			xReturn = pdFAIL;
 80060b2:	2300      	movs	r3, #0
 80060b4:	637b      	str	r3, [r7, #52]	; 0x34
 80060b6:	6afb      	ldr	r3, [r7, #44]	; 0x2c
 80060b8:	613b      	str	r3, [r7, #16]
	__asm volatile
 80060ba:	693b      	ldr	r3, [r7, #16]
 80060bc:	f383 8811 	msr	BASEPRI, r3
}
 80060c0:	bf00      	nop
			traceQUEUE_RECEIVE_FROM_ISR_FAILED( pxQueue );
		}
	}
	portCLEAR_INTERRUPT_MASK_FROM_ISR( uxSavedInterruptStatus );

	return xReturn;
 80060c2:	6b7b      	ldr	r3, [r7, #52]	; 0x34
}
 80060c4:	4618      	mov	r0, r3
 80060c6:	3738      	adds	r7, #56	; 0x38
 80060c8:	46bd      	mov	sp, r7
 80060ca:	bd80      	pop	{r7, pc}

080060cc <prvCopyDataToQueue>:

#endif /* configUSE_MUTEXES */
/*-----------------------------------------------------------*/

static BaseType_t prvCopyDataToQueue( Queue_t * const pxQueue, const void *pvItemToQueue, const BaseType_t xPosition )
{
 80060cc:	b580      	push	{r7, lr}
 80060ce:	b086      	sub	sp, #24
 80060d0:	af00      	add	r7, sp, #0
 80060d2:	60f8      	str	r0, [r7, #12]
 80060d4:	60b9      	str	r1, [r7, #8]
 80060d6:	607a      	str	r2, [r7, #4]
BaseType_t xReturn = pdFALSE;
 80060d8:	2300      	movs	r3, #0
 80060da:	617b      	str	r3, [r7, #20]
UBaseType_t uxMessagesWaiting;

	/* This function is called from a critical section. */

	uxMessagesWaiting = pxQueue->uxMessagesWaiting;
 80060dc:	68fb      	ldr	r3, [r7, #12]
 80060de:	6b9b      	ldr	r3, [r3, #56]	; 0x38
 80060e0:	613b      	str	r3, [r7, #16]

	if( pxQueue->uxItemSize == ( UBaseType_t ) 0 )
 80060e2:	68fb      	ldr	r3, [r7, #12]
 80060e4:	6c1b      	ldr	r3, [r3, #64]	; 0x40
 80060e6:	2b00      	cmp	r3, #0
 80060e8:	d10d      	bne.n	8006106 <prvCopyDataToQueue+0x3a>
	{
		#if ( configUSE_MUTEXES == 1 )
		{
			if( pxQueue->uxQueueType == queueQUEUE_IS_MUTEX )
 80060ea:	68fb      	ldr	r3, [r7, #12]
 80060ec:	681b      	ldr	r3, [r3, #0]
 80060ee:	2b00      	cmp	r3, #0
 80060f0:	d14d      	bne.n	800618e <prvCopyDataToQueue+0xc2>
			{
				/* The mutex is no longer being held. */
				xReturn = xTaskPriorityDisinherit( pxQueue->u.xSemaphore.xMutexHolder );
 80060f2:	68fb      	ldr	r3, [r7, #12]
 80060f4:	689b      	ldr	r3, [r3, #8]
 80060f6:	4618      	mov	r0, r3
 80060f8:	f000 fefe 	bl	8006ef8 <xTaskPriorityDisinherit>
 80060fc:	6178      	str	r0, [r7, #20]
				pxQueue->u.xSemaphore.xMutexHolder = NULL;
 80060fe:	68fb      	ldr	r3, [r7, #12]
 8006100:	2200      	movs	r2, #0
 8006102:	609a      	str	r2, [r3, #8]
 8006104:	e043      	b.n	800618e <prvCopyDataToQueue+0xc2>
				mtCOVERAGE_TEST_MARKER();
			}
		}
		#endif /* configUSE_MUTEXES */
	}
	else if( xPosition == queueSEND_TO_BACK )
 8006106:	687b      	ldr	r3, [r7, #4]
 8006108:	2b00      	cmp	r3, #0
 800610a:	d119      	bne.n	8006140 <prvCopyDataToQueue+0x74>
	{
		( void ) memcpy( ( void * ) pxQueue->pcWriteTo, pvItemToQueue, ( size_t ) pxQueue->uxItemSize ); /*lint !e961 !e418 !e9087 MISRA exception as the casts are only redundant for some ports, plus previous logic ensures a null pointer can only be passed to memcpy() if the copy size is 0.  Cast to void required by function signature and safe as no alignment requirement and copy length specified in bytes. */
 800610c:	68fb      	ldr	r3, [r7, #12]
 800610e:	6858      	ldr	r0, [r3, #4]
 8006110:	68fb      	ldr	r3, [r7, #12]
 8006112:	6c1b      	ldr	r3, [r3, #64]	; 0x40
 8006114:	461a      	mov	r2, r3
 8006116:	68b9      	ldr	r1, [r7, #8]
 8006118:	f002 fb7e 	bl	8008818 <memcpy>
		pxQueue->pcWriteTo += pxQueue->uxItemSize; /*lint !e9016 Pointer arithmetic on char types ok, especially in this use case where it is the clearest way of conveying intent. */
 800611c:	68fb      	ldr	r3, [r7, #12]
 800611e:	685a      	ldr	r2, [r3, #4]
 8006120:	68fb      	ldr	r3, [r7, #12]
 8006122:	6c1b      	ldr	r3, [r3, #64]	; 0x40
 8006124:	441a      	add	r2, r3
 8006126:	68fb      	ldr	r3, [r7, #12]
 8006128:	605a      	str	r2, [r3, #4]
		if( pxQueue->pcWriteTo >= pxQueue->u.xQueue.pcTail ) /*lint !e946 MISRA exception justified as comparison of pointers is the cleanest solution. */
 800612a:	68fb      	ldr	r3, [r7, #12]
 800612c:	685a      	ldr	r2, [r3, #4]
 800612e:	68fb      	ldr	r3, [r7, #12]
 8006130:	689b      	ldr	r3, [r3, #8]
 8006132:	429a      	cmp	r2, r3
 8006134:	d32b      	bcc.n	800618e <prvCopyDataToQueue+0xc2>
		{
			pxQueue->pcWriteTo = pxQueue->pcHead;
 8006136:	68fb      	ldr	r3, [r7, #12]
 8006138:	681a      	ldr	r2, [r3, #0]
 800613a:	68fb      	ldr	r3, [r7, #12]
 800613c:	605a      	str	r2, [r3, #4]
 800613e:	e026      	b.n	800618e <prvCopyDataToQueue+0xc2>
			mtCOVERAGE_TEST_MARKER();
		}
	}
	else
	{
		( void ) memcpy( ( void * ) pxQueue->u.xQueue.pcReadFrom, pvItemToQueue, ( size_t ) pxQueue->uxItemSize ); /*lint !e961 !e9087 !e418 MISRA exception as the casts are only redundant for some ports.  Cast to void required by function signature and safe as no alignment requirement and copy length specified in bytes.  Assert checks null pointer only used when length is 0. */
 8006140:	68fb      	ldr	r3, [r7, #12]
 8006142:	68d8      	ldr	r0, [r3, #12]
 8006144:	68fb      	ldr	r3, [r7, #12]
 8006146:	6c1b      	ldr	r3, [r3, #64]	; 0x40
 8006148:	461a      	mov	r2, r3
 800614a:	68b9      	ldr	r1, [r7, #8]
 800614c:	f002 fb64 	bl	8008818 <memcpy>
		pxQueue->u.xQueue.pcReadFrom -= pxQueue->uxItemSize;
 8006150:	68fb      	ldr	r3, [r7, #12]
 8006152:	68da      	ldr	r2, [r3, #12]
 8006154:	68fb      	ldr	r3, [r7, #12]
 8006156:	6c1b      	ldr	r3, [r3, #64]	; 0x40
 8006158:	425b      	negs	r3, r3
 800615a:	441a      	add	r2, r3
 800615c:	68fb      	ldr	r3, [r7, #12]
 800615e:	60da      	str	r2, [r3, #12]
		if( pxQueue->u.xQueue.pcReadFrom < pxQueue->pcHead ) /*lint !e946 MISRA exception justified as comparison of pointers is the cleanest solution. */
 8006160:	68fb      	ldr	r3, [r7, #12]
 8006162:	68da      	ldr	r2, [r3, #12]
 8006164:	68fb      	ldr	r3, [r7, #12]
 8006166:	681b      	ldr	r3, [r3, #0]
 8006168:	429a      	cmp	r2, r3
 800616a:	d207      	bcs.n	800617c <prvCopyDataToQueue+0xb0>
		{
			pxQueue->u.xQueue.pcReadFrom = ( pxQueue->u.xQueue.pcTail - pxQueue->uxItemSize );
 800616c:	68fb      	ldr	r3, [r7, #12]
 800616e:	689a      	ldr	r2, [r3, #8]
 8006170:	68fb      	ldr	r3, [r7, #12]
 8006172:	6c1b      	ldr	r3, [r3, #64]	; 0x40
 8006174:	425b      	negs	r3, r3
 8006176:	441a      	add	r2, r3
 8006178:	68fb      	ldr	r3, [r7, #12]
 800617a:	60da      	str	r2, [r3, #12]
		else
		{
			mtCOVERAGE_TEST_MARKER();
		}

		if( xPosition == queueOVERWRITE )
 800617c:	687b      	ldr	r3, [r7, #4]
 800617e:	2b02      	cmp	r3, #2
 8006180:	d105      	bne.n	800618e <prvCopyDataToQueue+0xc2>
		{
			if( uxMessagesWaiting > ( UBaseType_t ) 0 )
 8006182:	693b      	ldr	r3, [r7, #16]
 8006184:	2b00      	cmp	r3, #0
 8006186:	d002      	beq.n	800618e <prvCopyDataToQueue+0xc2>
			{
				/* An item is not being added but overwritten, so subtract
				one from the recorded number of items in the queue so when
				one is added again below the number of recorded items remains
				correct. */
				--uxMessagesWaiting;
 8006188:	693b      	ldr	r3, [r7, #16]
 800618a:	3b01      	subs	r3, #1
 800618c:	613b      	str	r3, [r7, #16]
		{
			mtCOVERAGE_TEST_MARKER();
		}
	}

	pxQueue->uxMessagesWaiting = uxMessagesWaiting + ( UBaseType_t ) 1;
 800618e:	693b      	ldr	r3, [r7, #16]
 8006190:	1c5a      	adds	r2, r3, #1
 8006192:	68fb      	ldr	r3, [r7, #12]
 8006194:	639a      	str	r2, [r3, #56]	; 0x38

	return xReturn;
 8006196:	697b      	ldr	r3, [r7, #20]
}
 8006198:	4618      	mov	r0, r3
 800619a:	3718      	adds	r7, #24
 800619c:	46bd      	mov	sp, r7
 800619e:	bd80      	pop	{r7, pc}

080061a0 <prvCopyDataFromQueue>:
/*-----------------------------------------------------------*/

static void prvCopyDataFromQueue( Queue_t * const pxQueue, void * const pvBuffer )
{
 80061a0:	b580      	push	{r7, lr}
 80061a2:	b082      	sub	sp, #8
 80061a4:	af00      	add	r7, sp, #0
 80061a6:	6078      	str	r0, [r7, #4]
 80061a8:	6039      	str	r1, [r7, #0]
	if( pxQueue->uxItemSize != ( UBaseType_t ) 0 )
 80061aa:	687b      	ldr	r3, [r7, #4]
 80061ac:	6c1b      	ldr	r3, [r3, #64]	; 0x40
 80061ae:	2b00      	cmp	r3, #0
 80061b0:	d018      	beq.n	80061e4 <prvCopyDataFromQueue+0x44>
	{
		pxQueue->u.xQueue.pcReadFrom += pxQueue->uxItemSize; /*lint !e9016 Pointer arithmetic on char types ok, especially in this use case where it is the clearest way of conveying intent. */
 80061b2:	687b      	ldr	r3, [r7, #4]
 80061b4:	68da      	ldr	r2, [r3, #12]
 80061b6:	687b      	ldr	r3, [r7, #4]
 80061b8:	6c1b      	ldr	r3, [r3, #64]	; 0x40
 80061ba:	441a      	add	r2, r3
 80061bc:	687b      	ldr	r3, [r7, #4]
 80061be:	60da      	str	r2, [r3, #12]
		if( pxQueue->u.xQueue.pcReadFrom >= pxQueue->u.xQueue.pcTail ) /*lint !e946 MISRA exception justified as use of the relational operator is the cleanest solutions. */
 80061c0:	687b      	ldr	r3, [r7, #4]
 80061c2:	68da      	ldr	r2, [r3, #12]
 80061c4:	687b      	ldr	r3, [r7, #4]
 80061c6:	689b      	ldr	r3, [r3, #8]
 80061c8:	429a      	cmp	r2, r3
 80061ca:	d303      	bcc.n	80061d4 <prvCopyDataFromQueue+0x34>
		{
			pxQueue->u.xQueue.pcReadFrom = pxQueue->pcHead;
 80061cc:	687b      	ldr	r3, [r7, #4]
 80061ce:	681a      	ldr	r2, [r3, #0]
 80061d0:	687b      	ldr	r3, [r7, #4]
 80061d2:	60da      	str	r2, [r3, #12]
		}
		else
		{
			mtCOVERAGE_TEST_MARKER();
		}
		( void ) memcpy( ( void * ) pvBuffer, ( void * ) pxQueue->u.xQueue.pcReadFrom, ( size_t ) pxQueue->uxItemSize ); /*lint !e961 !e418 !e9087 MISRA exception as the casts are only redundant for some ports.  Also previous logic ensures a null pointer can only be passed to memcpy() when the count is 0.  Cast to void required by function signature and safe as no alignment requirement and copy length specified in bytes. */
 80061d4:	687b      	ldr	r3, [r7, #4]
 80061d6:	68d9      	ldr	r1, [r3, #12]
 80061d8:	687b      	ldr	r3, [r7, #4]
 80061da:	6c1b      	ldr	r3, [r3, #64]	; 0x40
 80061dc:	461a      	mov	r2, r3
 80061de:	6838      	ldr	r0, [r7, #0]
 80061e0:	f002 fb1a 	bl	8008818 <memcpy>
	}
}
 80061e4:	bf00      	nop
 80061e6:	3708      	adds	r7, #8
 80061e8:	46bd      	mov	sp, r7
 80061ea:	bd80      	pop	{r7, pc}

080061ec <prvUnlockQueue>:
/*-----------------------------------------------------------*/

static void prvUnlockQueue( Queue_t * const pxQueue )
{
 80061ec:	b580      	push	{r7, lr}
 80061ee:	b084      	sub	sp, #16
 80061f0:	af00      	add	r7, sp, #0
 80061f2:	6078      	str	r0, [r7, #4]

	/* The lock counts contains the number of extra data items placed or
	removed from the queue while the queue was locked.  When a queue is
	locked items can be added or removed, but the event lists cannot be
	updated. */
	taskENTER_CRITICAL();
 80061f4:	f001 f87a 	bl	80072ec <vPortEnterCritical>
	{
		int8_t cTxLock = pxQueue->cTxLock;
 80061f8:	687b      	ldr	r3, [r7, #4]
 80061fa:	f893 3045 	ldrb.w	r3, [r3, #69]	; 0x45
 80061fe:	73fb      	strb	r3, [r7, #15]

		/* See if data was added to the queue while it was locked. */
		while( cTxLock > queueLOCKED_UNMODIFIED )
 8006200:	e011      	b.n	8006226 <prvUnlockQueue+0x3a>
			}
			#else /* configUSE_QUEUE_SETS */
			{
				/* Tasks that are removed from the event list will get added to
				the pending ready list as the scheduler is still suspended. */
				if( listLIST_IS_EMPTY( &( pxQueue->xTasksWaitingToReceive ) ) == pdFALSE )
 8006202:	687b      	ldr	r3, [r7, #4]
 8006204:	6a5b      	ldr	r3, [r3, #36]	; 0x24
 8006206:	2b00      	cmp	r3, #0
 8006208:	d012      	beq.n	8006230 <prvUnlockQueue+0x44>
				{
					if( xTaskRemoveFromEventList( &( pxQueue->xTasksWaitingToReceive ) ) != pdFALSE )
 800620a:	687b      	ldr	r3, [r7, #4]
 800620c:	3324      	adds	r3, #36	; 0x24
 800620e:	4618      	mov	r0, r3
 8006210:	f000 fcb2 	bl	8006b78 <xTaskRemoveFromEventList>
 8006214:	4603      	mov	r3, r0
 8006216:	2b00      	cmp	r3, #0
 8006218:	d001      	beq.n	800621e <prvUnlockQueue+0x32>
					{
						/* The task waiting has a higher priority so record that
						a context switch is required. */
						vTaskMissedYield();
 800621a:	f000 fd8d 	bl	8006d38 <vTaskMissedYield>
					break;
				}
			}
			#endif /* configUSE_QUEUE_SETS */

			--cTxLock;
 800621e:	7bfb      	ldrb	r3, [r7, #15]
 8006220:	3b01      	subs	r3, #1
 8006222:	b2db      	uxtb	r3, r3
 8006224:	73fb      	strb	r3, [r7, #15]
		while( cTxLock > queueLOCKED_UNMODIFIED )
 8006226:	f997 300f 	ldrsb.w	r3, [r7, #15]
 800622a:	2b00      	cmp	r3, #0
 800622c:	dce9      	bgt.n	8006202 <prvUnlockQueue+0x16>
 800622e:	e000      	b.n	8006232 <prvUnlockQueue+0x46>
					break;
 8006230:	bf00      	nop
		}

		pxQueue->cTxLock = queueUNLOCKED;
 8006232:	687b      	ldr	r3, [r7, #4]
 8006234:	22ff      	movs	r2, #255	; 0xff
 8006236:	f883 2045 	strb.w	r2, [r3, #69]	; 0x45
	}
	taskEXIT_CRITICAL();
 800623a:	f001 f88b 	bl	8007354 <vPortExitCritical>

	/* Do the same for the Rx lock. */
	taskENTER_CRITICAL();
 800623e:	f001 f855 	bl	80072ec <vPortEnterCritical>
	{
		int8_t cRxLock = pxQueue->cRxLock;
 8006242:	687b      	ldr	r3, [r7, #4]
 8006244:	f893 3044 	ldrb.w	r3, [r3, #68]	; 0x44
 8006248:	73bb      	strb	r3, [r7, #14]

		while( cRxLock > queueLOCKED_UNMODIFIED )
 800624a:	e011      	b.n	8006270 <prvUnlockQueue+0x84>
		{
			if( listLIST_IS_EMPTY( &( pxQueue->xTasksWaitingToSend ) ) == pdFALSE )
 800624c:	687b      	ldr	r3, [r7, #4]
 800624e:	691b      	ldr	r3, [r3, #16]
 8006250:	2b00      	cmp	r3, #0
 8006252:	d012      	beq.n	800627a <prvUnlockQueue+0x8e>
			{
				if( xTaskRemoveFromEventList( &( pxQueue->xTasksWaitingToSend ) ) != pdFALSE )
 8006254:	687b      	ldr	r3, [r7, #4]
 8006256:	3310      	adds	r3, #16
 8006258:	4618      	mov	r0, r3
 800625a:	f000 fc8d 	bl	8006b78 <xTaskRemoveFromEventList>
 800625e:	4603      	mov	r3, r0
 8006260:	2b00      	cmp	r3, #0
 8006262:	d001      	beq.n	8006268 <prvUnlockQueue+0x7c>
				{
					vTaskMissedYield();
 8006264:	f000 fd68 	bl	8006d38 <vTaskMissedYield>
				else
				{
					mtCOVERAGE_TEST_MARKER();
				}

				--cRxLock;
 8006268:	7bbb      	ldrb	r3, [r7, #14]
 800626a:	3b01      	subs	r3, #1
 800626c:	b2db      	uxtb	r3, r3
 800626e:	73bb      	strb	r3, [r7, #14]
		while( cRxLock > queueLOCKED_UNMODIFIED )
 8006270:	f997 300e 	ldrsb.w	r3, [r7, #14]
 8006274:	2b00      	cmp	r3, #0
 8006276:	dce9      	bgt.n	800624c <prvUnlockQueue+0x60>
 8006278:	e000      	b.n	800627c <prvUnlockQueue+0x90>
			}
			else
			{
				break;
 800627a:	bf00      	nop
			}
		}

		pxQueue->cRxLock = queueUNLOCKED;
 800627c:	687b      	ldr	r3, [r7, #4]
 800627e:	22ff      	movs	r2, #255	; 0xff
 8006280:	f883 2044 	strb.w	r2, [r3, #68]	; 0x44
	}
	taskEXIT_CRITICAL();
 8006284:	f001 f866 	bl	8007354 <vPortExitCritical>
}
 8006288:	bf00      	nop
 800628a:	3710      	adds	r7, #16
 800628c:	46bd      	mov	sp, r7
 800628e:	bd80      	pop	{r7, pc}

08006290 <prvIsQueueEmpty>:
/*-----------------------------------------------------------*/

static BaseType_t prvIsQueueEmpty( const Queue_t *pxQueue )
{
 8006290:	b580      	push	{r7, lr}
 8006292:	b084      	sub	sp, #16
 8006294:	af00      	add	r7, sp, #0
 8006296:	6078      	str	r0, [r7, #4]
BaseType_t xReturn;

	taskENTER_CRITICAL();
 8006298:	f001 f828 	bl	80072ec <vPortEnterCritical>
	{
		if( pxQueue->uxMessagesWaiting == ( UBaseType_t )  0 )
 800629c:	687b      	ldr	r3, [r7, #4]
 800629e:	6b9b      	ldr	r3, [r3, #56]	; 0x38
 80062a0:	2b00      	cmp	r3, #0
 80062a2:	d102      	bne.n	80062aa <prvIsQueueEmpty+0x1a>
		{
			xReturn = pdTRUE;
 80062a4:	2301      	movs	r3, #1
 80062a6:	60fb      	str	r3, [r7, #12]
 80062a8:	e001      	b.n	80062ae <prvIsQueueEmpty+0x1e>
		}
		else
		{
			xReturn = pdFALSE;
 80062aa:	2300      	movs	r3, #0
 80062ac:	60fb      	str	r3, [r7, #12]
		}
	}
	taskEXIT_CRITICAL();
 80062ae:	f001 f851 	bl	8007354 <vPortExitCritical>

	return xReturn;
 80062b2:	68fb      	ldr	r3, [r7, #12]
}
 80062b4:	4618      	mov	r0, r3
 80062b6:	3710      	adds	r7, #16
 80062b8:	46bd      	mov	sp, r7
 80062ba:	bd80      	pop	{r7, pc}

080062bc <prvIsQueueFull>:
	return xReturn;
} /*lint !e818 xQueue could not be pointer to const because it is a typedef. */
/*-----------------------------------------------------------*/

static BaseType_t prvIsQueueFull( const Queue_t *pxQueue )
{
 80062bc:	b580      	push	{r7, lr}
 80062be:	b084      	sub	sp, #16
 80062c0:	af00      	add	r7, sp, #0
 80062c2:	6078      	str	r0, [r7, #4]
BaseType_t xReturn;

	taskENTER_CRITICAL();
 80062c4:	f001 f812 	bl	80072ec <vPortEnterCritical>
	{
		if( pxQueue->uxMessagesWaiting == pxQueue->uxLength )
 80062c8:	687b      	ldr	r3, [r7, #4]
 80062ca:	6b9a      	ldr	r2, [r3, #56]	; 0x38
 80062cc:	687b      	ldr	r3, [r7, #4]
 80062ce:	6bdb      	ldr	r3, [r3, #60]	; 0x3c
 80062d0:	429a      	cmp	r2, r3
 80062d2:	d102      	bne.n	80062da <prvIsQueueFull+0x1e>
		{
			xReturn = pdTRUE;
 80062d4:	2301      	movs	r3, #1
 80062d6:	60fb      	str	r3, [r7, #12]
 80062d8:	e001      	b.n	80062de <prvIsQueueFull+0x22>
		}
		else
		{
			xReturn = pdFALSE;
 80062da:	2300      	movs	r3, #0
 80062dc:	60fb      	str	r3, [r7, #12]
		}
	}
	taskEXIT_CRITICAL();
 80062de:	f001 f839 	bl	8007354 <vPortExitCritical>

	return xReturn;
 80062e2:	68fb      	ldr	r3, [r7, #12]
}
 80062e4:	4618      	mov	r0, r3
 80062e6:	3710      	adds	r7, #16
 80062e8:	46bd      	mov	sp, r7
 80062ea:	bd80      	pop	{r7, pc}

080062ec <xTaskCreate>:
							const char * const pcName,		/*lint !e971 Unqualified char types are allowed for strings and single characters only. */
							const configSTACK_DEPTH_TYPE usStackDepth,
							void * const pvParameters,
							UBaseType_t uxPriority,
							TaskHandle_t * const pxCreatedTask )
	{
 80062ec:	b580      	push	{r7, lr}
 80062ee:	b08c      	sub	sp, #48	; 0x30
 80062f0:	af04      	add	r7, sp, #16
 80062f2:	60f8      	str	r0, [r7, #12]
 80062f4:	60b9      	str	r1, [r7, #8]
 80062f6:	603b      	str	r3, [r7, #0]
 80062f8:	4613      	mov	r3, r2
 80062fa:	80fb      	strh	r3, [r7, #6]
		#else /* portSTACK_GROWTH */
		{
		StackType_t *pxStack;

			/* Allocate space for the stack used by the task being created. */
			pxStack = pvPortMalloc( ( ( ( size_t ) usStackDepth ) * sizeof( StackType_t ) ) ); /*lint !e9079 All values returned by pvPortMalloc() have at least the alignment required by the MCU's stack and this allocation is the stack. */
 80062fc:	88fb      	ldrh	r3, [r7, #6]
 80062fe:	009b      	lsls	r3, r3, #2
 8006300:	4618      	mov	r0, r3
 8006302:	f001 f91f 	bl	8007544 <pvPortMalloc>
 8006306:	6178      	str	r0, [r7, #20]

			if( pxStack != NULL )
 8006308:	697b      	ldr	r3, [r7, #20]
 800630a:	2b00      	cmp	r3, #0
 800630c:	d00e      	beq.n	800632c <xTaskCreate+0x40>
			{
				/* Allocate space for the TCB. */
				pxNewTCB = ( TCB_t * ) pvPortMalloc( sizeof( TCB_t ) ); /*lint !e9087 !e9079 All values returned by pvPortMalloc() have at least the alignment required by the MCU's stack, and the first member of TCB_t is always a pointer to the task's stack. */
 800630e:	2054      	movs	r0, #84	; 0x54
 8006310:	f001 f918 	bl	8007544 <pvPortMalloc>
 8006314:	61f8      	str	r0, [r7, #28]

				if( pxNewTCB != NULL )
 8006316:	69fb      	ldr	r3, [r7, #28]
 8006318:	2b00      	cmp	r3, #0
 800631a:	d003      	beq.n	8006324 <xTaskCreate+0x38>
				{
					/* Store the stack location in the TCB. */
					pxNewTCB->pxStack = pxStack;
 800631c:	69fb      	ldr	r3, [r7, #28]
 800631e:	697a      	ldr	r2, [r7, #20]
 8006320:	631a      	str	r2, [r3, #48]	; 0x30
 8006322:	e005      	b.n	8006330 <xTaskCreate+0x44>
				}
				else
				{
					/* The stack cannot be used as the TCB was not created.  Free
					it again. */
					vPortFree( pxStack );
 8006324:	6978      	ldr	r0, [r7, #20]
 8006326:	f001 f9d7 	bl	80076d8 <vPortFree>
 800632a:	e001      	b.n	8006330 <xTaskCreate+0x44>
				}
			}
			else
			{
				pxNewTCB = NULL;
 800632c:	2300      	movs	r3, #0
 800632e:	61fb      	str	r3, [r7, #28]
			}
		}
		#endif /* portSTACK_GROWTH */

		if( pxNewTCB != NULL )
 8006330:	69fb      	ldr	r3, [r7, #28]
 8006332:	2b00      	cmp	r3, #0
 8006334:	d013      	beq.n	800635e <xTaskCreate+0x72>
				task was created dynamically in case it is later deleted. */
				pxNewTCB->ucStaticallyAllocated = tskDYNAMICALLY_ALLOCATED_STACK_AND_TCB;
			}
			#endif /* tskSTATIC_AND_DYNAMIC_ALLOCATION_POSSIBLE */

			prvInitialiseNewTask( pxTaskCode, pcName, ( uint32_t ) usStackDepth, pvParameters, uxPriority, pxCreatedTask, pxNewTCB, NULL );
 8006336:	88fa      	ldrh	r2, [r7, #6]
 8006338:	2300      	movs	r3, #0
 800633a:	9303      	str	r3, [sp, #12]
 800633c:	69fb      	ldr	r3, [r7, #28]
 800633e:	9302      	str	r3, [sp, #8]
 8006340:	6afb      	ldr	r3, [r7, #44]	; 0x2c
 8006342:	9301      	str	r3, [sp, #4]
 8006344:	6abb      	ldr	r3, [r7, #40]	; 0x28
 8006346:	9300      	str	r3, [sp, #0]
 8006348:	683b      	ldr	r3, [r7, #0]
 800634a:	68b9      	ldr	r1, [r7, #8]
 800634c:	68f8      	ldr	r0, [r7, #12]
 800634e:	f000 f80e 	bl	800636e <prvInitialiseNewTask>
			prvAddNewTaskToReadyList( pxNewTCB );
 8006352:	69f8      	ldr	r0, [r7, #28]
 8006354:	f000 f894 	bl	8006480 <prvAddNewTaskToReadyList>
			xReturn = pdPASS;
 8006358:	2301      	movs	r3, #1
 800635a:	61bb      	str	r3, [r7, #24]
 800635c:	e002      	b.n	8006364 <xTaskCreate+0x78>
		}
		else
		{
			xReturn = errCOULD_NOT_ALLOCATE_REQUIRED_MEMORY;
 800635e:	f04f 33ff 	mov.w	r3, #4294967295
 8006362:	61bb      	str	r3, [r7, #24]
		}

		return xReturn;
 8006364:	69bb      	ldr	r3, [r7, #24]
	}
 8006366:	4618      	mov	r0, r3
 8006368:	3720      	adds	r7, #32
 800636a:	46bd      	mov	sp, r7
 800636c:	bd80      	pop	{r7, pc}

0800636e <prvInitialiseNewTask>:
									void * const pvParameters,
									UBaseType_t uxPriority,
									TaskHandle_t * const pxCreatedTask,
									TCB_t *pxNewTCB,
									const MemoryRegion_t * const xRegions )
{
 800636e:	b580      	push	{r7, lr}
 8006370:	b088      	sub	sp, #32
 8006372:	af00      	add	r7, sp, #0
 8006374:	60f8      	str	r0, [r7, #12]
 8006376:	60b9      	str	r1, [r7, #8]
 8006378:	607a      	str	r2, [r7, #4]
 800637a:	603b      	str	r3, [r7, #0]
	grows from high memory to low (as per the 80x86) or vice versa.
	portSTACK_GROWTH is used to make the result positive or negative as required
	by the port. */
	#if( portSTACK_GROWTH < 0 )
	{
		pxTopOfStack = &( pxNewTCB->pxStack[ ulStackDepth - ( uint32_t ) 1 ] );
 800637c:	6b3b      	ldr	r3, [r7, #48]	; 0x30
 800637e:	6b1a      	ldr	r2, [r3, #48]	; 0x30
 8006380:	6879      	ldr	r1, [r7, #4]
 8006382:	f06f 4340 	mvn.w	r3, #3221225472	; 0xc0000000
 8006386:	440b      	add	r3, r1
 8006388:	009b      	lsls	r3, r3, #2
 800638a:	4413      	add	r3, r2
 800638c:	61bb      	str	r3, [r7, #24]
		pxTopOfStack = ( StackType_t * ) ( ( ( portPOINTER_SIZE_TYPE ) pxTopOfStack ) & ( ~( ( portPOINTER_SIZE_TYPE ) portBYTE_ALIGNMENT_MASK ) ) ); /*lint !e923 !e9033 !e9078 MISRA exception.  Avoiding casts between pointers and integers is not practical.  Size differences accounted for using portPOINTER_SIZE_TYPE type.  Checked by assert(). */
 800638e:	69bb      	ldr	r3, [r7, #24]
 8006390:	f023 0307 	bic.w	r3, r3, #7
 8006394:	61bb      	str	r3, [r7, #24]

		/* Check the alignment of the calculated top of stack is correct. */
		configASSERT( ( ( ( portPOINTER_SIZE_TYPE ) pxTopOfStack & ( portPOINTER_SIZE_TYPE ) portBYTE_ALIGNMENT_MASK ) == 0UL ) );
 8006396:	69bb      	ldr	r3, [r7, #24]
 8006398:	f003 0307 	and.w	r3, r3, #7
 800639c:	2b00      	cmp	r3, #0
 800639e:	d00c      	beq.n	80063ba <prvInitialiseNewTask+0x4c>
	__asm volatile
 80063a0:	f04f 0350 	mov.w	r3, #80	; 0x50
 80063a4:	b672      	cpsid	i
 80063a6:	f383 8811 	msr	BASEPRI, r3
 80063aa:	f3bf 8f6f 	isb	sy
 80063ae:	f3bf 8f4f 	dsb	sy
 80063b2:	b662      	cpsie	i
 80063b4:	617b      	str	r3, [r7, #20]
}
 80063b6:	bf00      	nop
 80063b8:	e7fe      	b.n	80063b8 <prvInitialiseNewTask+0x4a>
		pxNewTCB->pxEndOfStack = pxNewTCB->pxStack + ( ulStackDepth - ( uint32_t ) 1 );
	}
	#endif /* portSTACK_GROWTH */

	/* Store the task name in the TCB. */
	if( pcName != NULL )
 80063ba:	68bb      	ldr	r3, [r7, #8]
 80063bc:	2b00      	cmp	r3, #0
 80063be:	d01f      	beq.n	8006400 <prvInitialiseNewTask+0x92>
	{
		for( x = ( UBaseType_t ) 0; x < ( UBaseType_t ) configMAX_TASK_NAME_LEN; x++ )
 80063c0:	2300      	movs	r3, #0
 80063c2:	61fb      	str	r3, [r7, #28]
 80063c4:	e012      	b.n	80063ec <prvInitialiseNewTask+0x7e>
		{
			pxNewTCB->pcTaskName[ x ] = pcName[ x ];
 80063c6:	68ba      	ldr	r2, [r7, #8]
 80063c8:	69fb      	ldr	r3, [r7, #28]
 80063ca:	4413      	add	r3, r2
 80063cc:	7819      	ldrb	r1, [r3, #0]
 80063ce:	6b3a      	ldr	r2, [r7, #48]	; 0x30
 80063d0:	69fb      	ldr	r3, [r7, #28]
 80063d2:	4413      	add	r3, r2
 80063d4:	3334      	adds	r3, #52	; 0x34
 80063d6:	460a      	mov	r2, r1
 80063d8:	701a      	strb	r2, [r3, #0]

			/* Don't copy all configMAX_TASK_NAME_LEN if the string is shorter than
			configMAX_TASK_NAME_LEN characters just in case the memory after the
			string is not accessible (extremely unlikely). */
			if( pcName[ x ] == ( char ) 0x00 )
 80063da:	68ba      	ldr	r2, [r7, #8]
 80063dc:	69fb      	ldr	r3, [r7, #28]
 80063de:	4413      	add	r3, r2
 80063e0:	781b      	ldrb	r3, [r3, #0]
 80063e2:	2b00      	cmp	r3, #0
 80063e4:	d006      	beq.n	80063f4 <prvInitialiseNewTask+0x86>
		for( x = ( UBaseType_t ) 0; x < ( UBaseType_t ) configMAX_TASK_NAME_LEN; x++ )
 80063e6:	69fb      	ldr	r3, [r7, #28]
 80063e8:	3301      	adds	r3, #1
 80063ea:	61fb      	str	r3, [r7, #28]
 80063ec:	69fb      	ldr	r3, [r7, #28]
 80063ee:	2b0f      	cmp	r3, #15
 80063f0:	d9e9      	bls.n	80063c6 <prvInitialiseNewTask+0x58>
 80063f2:	e000      	b.n	80063f6 <prvInitialiseNewTask+0x88>
			{
				break;
 80063f4:	bf00      	nop
			}
		}

		/* Ensure the name string is terminated in the case that the string length
		was greater or equal to configMAX_TASK_NAME_LEN. */
		pxNewTCB->pcTaskName[ configMAX_TASK_NAME_LEN - 1 ] = '\0';
 80063f6:	6b3b      	ldr	r3, [r7, #48]	; 0x30
 80063f8:	2200      	movs	r2, #0
 80063fa:	f883 2043 	strb.w	r2, [r3, #67]	; 0x43
 80063fe:	e003      	b.n	8006408 <prvInitialiseNewTask+0x9a>
	}
	else
	{
		/* The task has not been given a name, so just ensure there is a NULL
		terminator when it is read out. */
		pxNewTCB->pcTaskName[ 0 ] = 0x00;
 8006400:	6b3b      	ldr	r3, [r7, #48]	; 0x30
 8006402:	2200      	movs	r2, #0
 8006404:	f883 2034 	strb.w	r2, [r3, #52]	; 0x34
	}

	/* This is used as an array index so must ensure it's not too large.  First
	remove the privilege bit if one is present. */
	if( uxPriority >= ( UBaseType_t ) configMAX_PRIORITIES )
 8006408:	6abb      	ldr	r3, [r7, #40]	; 0x28
 800640a:	2b06      	cmp	r3, #6
 800640c:	d901      	bls.n	8006412 <prvInitialiseNewTask+0xa4>
	{
		uxPriority = ( UBaseType_t ) configMAX_PRIORITIES - ( UBaseType_t ) 1U;
 800640e:	2306      	movs	r3, #6
 8006410:	62bb      	str	r3, [r7, #40]	; 0x28
	else
	{
		mtCOVERAGE_TEST_MARKER();
	}

	pxNewTCB->uxPriority = uxPriority;
 8006412:	6b3b      	ldr	r3, [r7, #48]	; 0x30
 8006414:	6aba      	ldr	r2, [r7, #40]	; 0x28
 8006416:	62da      	str	r2, [r3, #44]	; 0x2c
	#if ( configUSE_MUTEXES == 1 )
	{
		pxNewTCB->uxBasePriority = uxPriority;
 8006418:	6b3b      	ldr	r3, [r7, #48]	; 0x30
 800641a:	6aba      	ldr	r2, [r7, #40]	; 0x28
 800641c:	645a      	str	r2, [r3, #68]	; 0x44
		pxNewTCB->uxMutexesHeld = 0;
 800641e:	6b3b      	ldr	r3, [r7, #48]	; 0x30
 8006420:	2200      	movs	r2, #0
 8006422:	649a      	str	r2, [r3, #72]	; 0x48
	}
	#endif /* configUSE_MUTEXES */

	vListInitialiseItem( &( pxNewTCB->xStateListItem ) );
 8006424:	6b3b      	ldr	r3, [r7, #48]	; 0x30
 8006426:	3304      	adds	r3, #4
 8006428:	4618      	mov	r0, r3
 800642a:	f7ff f9e1 	bl	80057f0 <vListInitialiseItem>
	vListInitialiseItem( &( pxNewTCB->xEventListItem ) );
 800642e:	6b3b      	ldr	r3, [r7, #48]	; 0x30
 8006430:	3318      	adds	r3, #24
 8006432:	4618      	mov	r0, r3
 8006434:	f7ff f9dc 	bl	80057f0 <vListInitialiseItem>

	/* Set the pxNewTCB as a link back from the ListItem_t.  This is so we can get
	back to	the containing TCB from a generic item in a list. */
	listSET_LIST_ITEM_OWNER( &( pxNewTCB->xStateListItem ), pxNewTCB );
 8006438:	6b3b      	ldr	r3, [r7, #48]	; 0x30
 800643a:	6b3a      	ldr	r2, [r7, #48]	; 0x30
 800643c:	611a      	str	r2, [r3, #16]

	/* Event lists are always in priority order. */
	listSET_LIST_ITEM_VALUE( &( pxNewTCB->xEventListItem ), ( TickType_t ) configMAX_PRIORITIES - ( TickType_t ) uxPriority ); /*lint !e961 MISRA exception as the casts are only redundant for some ports. */
 800643e:	6abb      	ldr	r3, [r7, #40]	; 0x28
 8006440:	f1c3 0207 	rsb	r2, r3, #7
 8006444:	6b3b      	ldr	r3, [r7, #48]	; 0x30
 8006446:	619a      	str	r2, [r3, #24]
	listSET_LIST_ITEM_OWNER( &( pxNewTCB->xEventListItem ), pxNewTCB );
 8006448:	6b3b      	ldr	r3, [r7, #48]	; 0x30
 800644a:	6b3a      	ldr	r2, [r7, #48]	; 0x30
 800644c:	625a      	str	r2, [r3, #36]	; 0x24
	}
	#endif

	#if ( configUSE_TASK_NOTIFICATIONS == 1 )
	{
		pxNewTCB->ulNotifiedValue = 0;
 800644e:	6b3b      	ldr	r3, [r7, #48]	; 0x30
 8006450:	2200      	movs	r2, #0
 8006452:	64da      	str	r2, [r3, #76]	; 0x4c
		pxNewTCB->ucNotifyState = taskNOT_WAITING_NOTIFICATION;
 8006454:	6b3b      	ldr	r3, [r7, #48]	; 0x30
 8006456:	2200      	movs	r2, #0
 8006458:	f883 2050 	strb.w	r2, [r3, #80]	; 0x50
			}
			#endif /* portSTACK_GROWTH */
		}
		#else /* portHAS_STACK_OVERFLOW_CHECKING */
		{
			pxNewTCB->pxTopOfStack = pxPortInitialiseStack( pxTopOfStack, pxTaskCode, pvParameters );
 800645c:	683a      	ldr	r2, [r7, #0]
 800645e:	68f9      	ldr	r1, [r7, #12]
 8006460:	69b8      	ldr	r0, [r7, #24]
 8006462:	f000 fe39 	bl	80070d8 <pxPortInitialiseStack>
 8006466:	4602      	mov	r2, r0
 8006468:	6b3b      	ldr	r3, [r7, #48]	; 0x30
 800646a:	601a      	str	r2, [r3, #0]
		}
		#endif /* portHAS_STACK_OVERFLOW_CHECKING */
	}
	#endif /* portUSING_MPU_WRAPPERS */

	if( pxCreatedTask != NULL )
 800646c:	6afb      	ldr	r3, [r7, #44]	; 0x2c
 800646e:	2b00      	cmp	r3, #0
 8006470:	d002      	beq.n	8006478 <prvInitialiseNewTask+0x10a>
	{
		/* Pass the handle out in an anonymous way.  The handle can be used to
		change the created task's priority, delete the created task, etc.*/
		*pxCreatedTask = ( TaskHandle_t ) pxNewTCB;
 8006472:	6afb      	ldr	r3, [r7, #44]	; 0x2c
 8006474:	6b3a      	ldr	r2, [r7, #48]	; 0x30
 8006476:	601a      	str	r2, [r3, #0]
	}
	else
	{
		mtCOVERAGE_TEST_MARKER();
	}
}
 8006478:	bf00      	nop
 800647a:	3720      	adds	r7, #32
 800647c:	46bd      	mov	sp, r7
 800647e:	bd80      	pop	{r7, pc}

08006480 <prvAddNewTaskToReadyList>:
/*-----------------------------------------------------------*/

static void prvAddNewTaskToReadyList( TCB_t *pxNewTCB )
{
 8006480:	b580      	push	{r7, lr}
 8006482:	b082      	sub	sp, #8
 8006484:	af00      	add	r7, sp, #0
 8006486:	6078      	str	r0, [r7, #4]
	/* Ensure interrupts don't access the task lists while the lists are being
	updated. */
	taskENTER_CRITICAL();
 8006488:	f000 ff30 	bl	80072ec <vPortEnterCritical>
	{
		uxCurrentNumberOfTasks++;
 800648c:	4b2a      	ldr	r3, [pc, #168]	; (8006538 <prvAddNewTaskToReadyList+0xb8>)
 800648e:	681b      	ldr	r3, [r3, #0]
 8006490:	3301      	adds	r3, #1
 8006492:	4a29      	ldr	r2, [pc, #164]	; (8006538 <prvAddNewTaskToReadyList+0xb8>)
 8006494:	6013      	str	r3, [r2, #0]
		if( pxCurrentTCB == NULL )
 8006496:	4b29      	ldr	r3, [pc, #164]	; (800653c <prvAddNewTaskToReadyList+0xbc>)
 8006498:	681b      	ldr	r3, [r3, #0]
 800649a:	2b00      	cmp	r3, #0
 800649c:	d109      	bne.n	80064b2 <prvAddNewTaskToReadyList+0x32>
		{
			/* There are no other tasks, or all the other tasks are in
			the suspended state - make this the current task. */
			pxCurrentTCB = pxNewTCB;
 800649e:	4a27      	ldr	r2, [pc, #156]	; (800653c <prvAddNewTaskToReadyList+0xbc>)
 80064a0:	687b      	ldr	r3, [r7, #4]
 80064a2:	6013      	str	r3, [r2, #0]

			if( uxCurrentNumberOfTasks == ( UBaseType_t ) 1 )
 80064a4:	4b24      	ldr	r3, [pc, #144]	; (8006538 <prvAddNewTaskToReadyList+0xb8>)
 80064a6:	681b      	ldr	r3, [r3, #0]
 80064a8:	2b01      	cmp	r3, #1
 80064aa:	d110      	bne.n	80064ce <prvAddNewTaskToReadyList+0x4e>
			{
				/* This is the first task to be created so do the preliminary
				initialisation required.  We will not recover if this call
				fails, but we will report the failure. */
				prvInitialiseTaskLists();
 80064ac:	f000 fc68 	bl	8006d80 <prvInitialiseTaskLists>
 80064b0:	e00d      	b.n	80064ce <prvAddNewTaskToReadyList+0x4e>
		else
		{
			/* If the scheduler is not already running, make this task the
			current task if it is the highest priority task to be created
			so far. */
			if( xSchedulerRunning == pdFALSE )
 80064b2:	4b23      	ldr	r3, [pc, #140]	; (8006540 <prvAddNewTaskToReadyList+0xc0>)
 80064b4:	681b      	ldr	r3, [r3, #0]
 80064b6:	2b00      	cmp	r3, #0
 80064b8:	d109      	bne.n	80064ce <prvAddNewTaskToReadyList+0x4e>
			{
				if( pxCurrentTCB->uxPriority <= pxNewTCB->uxPriority )
 80064ba:	4b20      	ldr	r3, [pc, #128]	; (800653c <prvAddNewTaskToReadyList+0xbc>)
 80064bc:	681b      	ldr	r3, [r3, #0]
 80064be:	6ada      	ldr	r2, [r3, #44]	; 0x2c
 80064c0:	687b      	ldr	r3, [r7, #4]
 80064c2:	6adb      	ldr	r3, [r3, #44]	; 0x2c
 80064c4:	429a      	cmp	r2, r3
 80064c6:	d802      	bhi.n	80064ce <prvAddNewTaskToReadyList+0x4e>
				{
					pxCurrentTCB = pxNewTCB;
 80064c8:	4a1c      	ldr	r2, [pc, #112]	; (800653c <prvAddNewTaskToReadyList+0xbc>)
 80064ca:	687b      	ldr	r3, [r7, #4]
 80064cc:	6013      	str	r3, [r2, #0]
			{
				mtCOVERAGE_TEST_MARKER();
			}
		}

		uxTaskNumber++;
 80064ce:	4b1d      	ldr	r3, [pc, #116]	; (8006544 <prvAddNewTaskToReadyList+0xc4>)
 80064d0:	681b      	ldr	r3, [r3, #0]
 80064d2:	3301      	adds	r3, #1
 80064d4:	4a1b      	ldr	r2, [pc, #108]	; (8006544 <prvAddNewTaskToReadyList+0xc4>)
 80064d6:	6013      	str	r3, [r2, #0]
			pxNewTCB->uxTCBNumber = uxTaskNumber;
		}
		#endif /* configUSE_TRACE_FACILITY */
		traceTASK_CREATE( pxNewTCB );

		prvAddTaskToReadyList( pxNewTCB );
 80064d8:	687b      	ldr	r3, [r7, #4]
 80064da:	6adb      	ldr	r3, [r3, #44]	; 0x2c
 80064dc:	2201      	movs	r2, #1
 80064de:	409a      	lsls	r2, r3
 80064e0:	4b19      	ldr	r3, [pc, #100]	; (8006548 <prvAddNewTaskToReadyList+0xc8>)
 80064e2:	681b      	ldr	r3, [r3, #0]
 80064e4:	4313      	orrs	r3, r2
 80064e6:	4a18      	ldr	r2, [pc, #96]	; (8006548 <prvAddNewTaskToReadyList+0xc8>)
 80064e8:	6013      	str	r3, [r2, #0]
 80064ea:	687b      	ldr	r3, [r7, #4]
 80064ec:	6ada      	ldr	r2, [r3, #44]	; 0x2c
 80064ee:	4613      	mov	r3, r2
 80064f0:	009b      	lsls	r3, r3, #2
 80064f2:	4413      	add	r3, r2
 80064f4:	009b      	lsls	r3, r3, #2
 80064f6:	4a15      	ldr	r2, [pc, #84]	; (800654c <prvAddNewTaskToReadyList+0xcc>)
 80064f8:	441a      	add	r2, r3
 80064fa:	687b      	ldr	r3, [r7, #4]
 80064fc:	3304      	adds	r3, #4
 80064fe:	4619      	mov	r1, r3
 8006500:	4610      	mov	r0, r2
 8006502:	f7ff f982 	bl	800580a <vListInsertEnd>

		portSETUP_TCB( pxNewTCB );
	}
	taskEXIT_CRITICAL();
 8006506:	f000 ff25 	bl	8007354 <vPortExitCritical>

	if( xSchedulerRunning != pdFALSE )
 800650a:	4b0d      	ldr	r3, [pc, #52]	; (8006540 <prvAddNewTaskToReadyList+0xc0>)
 800650c:	681b      	ldr	r3, [r3, #0]
 800650e:	2b00      	cmp	r3, #0
 8006510:	d00e      	beq.n	8006530 <prvAddNewTaskToReadyList+0xb0>
	{
		/* If the created task is of a higher priority than the current task
		then it should run now. */
		if( pxCurrentTCB->uxPriority < pxNewTCB->uxPriority )
 8006512:	4b0a      	ldr	r3, [pc, #40]	; (800653c <prvAddNewTaskToReadyList+0xbc>)
 8006514:	681b      	ldr	r3, [r3, #0]
 8006516:	6ada      	ldr	r2, [r3, #44]	; 0x2c
 8006518:	687b      	ldr	r3, [r7, #4]
 800651a:	6adb      	ldr	r3, [r3, #44]	; 0x2c
 800651c:	429a      	cmp	r2, r3
 800651e:	d207      	bcs.n	8006530 <prvAddNewTaskToReadyList+0xb0>
		{
			taskYIELD_IF_USING_PREEMPTION();
 8006520:	4b0b      	ldr	r3, [pc, #44]	; (8006550 <prvAddNewTaskToReadyList+0xd0>)
 8006522:	f04f 5280 	mov.w	r2, #268435456	; 0x10000000
 8006526:	601a      	str	r2, [r3, #0]
 8006528:	f3bf 8f4f 	dsb	sy
 800652c:	f3bf 8f6f 	isb	sy
	}
	else
	{
		mtCOVERAGE_TEST_MARKER();
	}
}
 8006530:	bf00      	nop
 8006532:	3708      	adds	r7, #8
 8006534:	46bd      	mov	sp, r7
 8006536:	bd80      	pop	{r7, pc}
 8006538:	20000750 	.word	0x20000750
 800653c:	20000650 	.word	0x20000650
 8006540:	2000075c 	.word	0x2000075c
 8006544:	2000076c 	.word	0x2000076c
 8006548:	20000758 	.word	0x20000758
 800654c:	20000654 	.word	0x20000654
 8006550:	e000ed04 	.word	0xe000ed04

08006554 <vTaskDelayUntil>:
/*-----------------------------------------------------------*/

#if ( INCLUDE_vTaskDelayUntil == 1 )

	void vTaskDelayUntil( TickType_t * const pxPreviousWakeTime, const TickType_t xTimeIncrement )
	{
 8006554:	b580      	push	{r7, lr}
 8006556:	b08a      	sub	sp, #40	; 0x28
 8006558:	af00      	add	r7, sp, #0
 800655a:	6078      	str	r0, [r7, #4]
 800655c:	6039      	str	r1, [r7, #0]
	TickType_t xTimeToWake;
	BaseType_t xAlreadyYielded, xShouldDelay = pdFALSE;
 800655e:	2300      	movs	r3, #0
 8006560:	627b      	str	r3, [r7, #36]	; 0x24

		configASSERT( pxPreviousWakeTime );
 8006562:	687b      	ldr	r3, [r7, #4]
 8006564:	2b00      	cmp	r3, #0
 8006566:	d10c      	bne.n	8006582 <vTaskDelayUntil+0x2e>
	__asm volatile
 8006568:	f04f 0350 	mov.w	r3, #80	; 0x50
 800656c:	b672      	cpsid	i
 800656e:	f383 8811 	msr	BASEPRI, r3
 8006572:	f3bf 8f6f 	isb	sy
 8006576:	f3bf 8f4f 	dsb	sy
 800657a:	b662      	cpsie	i
 800657c:	617b      	str	r3, [r7, #20]
}
 800657e:	bf00      	nop
 8006580:	e7fe      	b.n	8006580 <vTaskDelayUntil+0x2c>
		configASSERT( ( xTimeIncrement > 0U ) );
 8006582:	683b      	ldr	r3, [r7, #0]
 8006584:	2b00      	cmp	r3, #0
 8006586:	d10c      	bne.n	80065a2 <vTaskDelayUntil+0x4e>
	__asm volatile
 8006588:	f04f 0350 	mov.w	r3, #80	; 0x50
 800658c:	b672      	cpsid	i
 800658e:	f383 8811 	msr	BASEPRI, r3
 8006592:	f3bf 8f6f 	isb	sy
 8006596:	f3bf 8f4f 	dsb	sy
 800659a:	b662      	cpsie	i
 800659c:	613b      	str	r3, [r7, #16]
}
 800659e:	bf00      	nop
 80065a0:	e7fe      	b.n	80065a0 <vTaskDelayUntil+0x4c>
		configASSERT( uxSchedulerSuspended == 0 );
 80065a2:	4b2b      	ldr	r3, [pc, #172]	; (8006650 <vTaskDelayUntil+0xfc>)
 80065a4:	681b      	ldr	r3, [r3, #0]
 80065a6:	2b00      	cmp	r3, #0
 80065a8:	d00c      	beq.n	80065c4 <vTaskDelayUntil+0x70>
	__asm volatile
 80065aa:	f04f 0350 	mov.w	r3, #80	; 0x50
 80065ae:	b672      	cpsid	i
 80065b0:	f383 8811 	msr	BASEPRI, r3
 80065b4:	f3bf 8f6f 	isb	sy
 80065b8:	f3bf 8f4f 	dsb	sy
 80065bc:	b662      	cpsie	i
 80065be:	60fb      	str	r3, [r7, #12]
}
 80065c0:	bf00      	nop
 80065c2:	e7fe      	b.n	80065c2 <vTaskDelayUntil+0x6e>

		vTaskSuspendAll();
 80065c4:	f000 f8cc 	bl	8006760 <vTaskSuspendAll>
		{
			/* Minor optimisation.  The tick count cannot change in this
			block. */
			const TickType_t xConstTickCount = xTickCount;
 80065c8:	4b22      	ldr	r3, [pc, #136]	; (8006654 <vTaskDelayUntil+0x100>)
 80065ca:	681b      	ldr	r3, [r3, #0]
 80065cc:	623b      	str	r3, [r7, #32]

			/* Generate the tick time at which the task wants to wake. */
			xTimeToWake = *pxPreviousWakeTime + xTimeIncrement;
 80065ce:	687b      	ldr	r3, [r7, #4]
 80065d0:	681b      	ldr	r3, [r3, #0]
 80065d2:	683a      	ldr	r2, [r7, #0]
 80065d4:	4413      	add	r3, r2
 80065d6:	61fb      	str	r3, [r7, #28]

			if( xConstTickCount < *pxPreviousWakeTime )
 80065d8:	687b      	ldr	r3, [r7, #4]
 80065da:	681b      	ldr	r3, [r3, #0]
 80065dc:	6a3a      	ldr	r2, [r7, #32]
 80065de:	429a      	cmp	r2, r3
 80065e0:	d20b      	bcs.n	80065fa <vTaskDelayUntil+0xa6>
				/* The tick count has overflowed since this function was
				lasted called.  In this case the only time we should ever
				actually delay is if the wake time has also	overflowed,
				and the wake time is greater than the tick time.  When this
				is the case it is as if neither time had overflowed. */
				if( ( xTimeToWake < *pxPreviousWakeTime ) && ( xTimeToWake > xConstTickCount ) )
 80065e2:	687b      	ldr	r3, [r7, #4]
 80065e4:	681b      	ldr	r3, [r3, #0]
 80065e6:	69fa      	ldr	r2, [r7, #28]
 80065e8:	429a      	cmp	r2, r3
 80065ea:	d211      	bcs.n	8006610 <vTaskDelayUntil+0xbc>
 80065ec:	69fa      	ldr	r2, [r7, #28]
 80065ee:	6a3b      	ldr	r3, [r7, #32]
 80065f0:	429a      	cmp	r2, r3
 80065f2:	d90d      	bls.n	8006610 <vTaskDelayUntil+0xbc>
				{
					xShouldDelay = pdTRUE;
 80065f4:	2301      	movs	r3, #1
 80065f6:	627b      	str	r3, [r7, #36]	; 0x24
 80065f8:	e00a      	b.n	8006610 <vTaskDelayUntil+0xbc>
			else
			{
				/* The tick time has not overflowed.  In this case we will
				delay if either the wake time has overflowed, and/or the
				tick time is less than the wake time. */
				if( ( xTimeToWake < *pxPreviousWakeTime ) || ( xTimeToWake > xConstTickCount ) )
 80065fa:	687b      	ldr	r3, [r7, #4]
 80065fc:	681b      	ldr	r3, [r3, #0]
 80065fe:	69fa      	ldr	r2, [r7, #28]
 8006600:	429a      	cmp	r2, r3
 8006602:	d303      	bcc.n	800660c <vTaskDelayUntil+0xb8>
 8006604:	69fa      	ldr	r2, [r7, #28]
 8006606:	6a3b      	ldr	r3, [r7, #32]
 8006608:	429a      	cmp	r2, r3
 800660a:	d901      	bls.n	8006610 <vTaskDelayUntil+0xbc>
				{
					xShouldDelay = pdTRUE;
 800660c:	2301      	movs	r3, #1
 800660e:	627b      	str	r3, [r7, #36]	; 0x24
					mtCOVERAGE_TEST_MARKER();
				}
			}

			/* Update the wake time ready for the next call. */
			*pxPreviousWakeTime = xTimeToWake;
 8006610:	687b      	ldr	r3, [r7, #4]
 8006612:	69fa      	ldr	r2, [r7, #28]
 8006614:	601a      	str	r2, [r3, #0]

			if( xShouldDelay != pdFALSE )
 8006616:	6a7b      	ldr	r3, [r7, #36]	; 0x24
 8006618:	2b00      	cmp	r3, #0
 800661a:	d006      	beq.n	800662a <vTaskDelayUntil+0xd6>
			{
				traceTASK_DELAY_UNTIL( xTimeToWake );

				/* prvAddCurrentTaskToDelayedList() needs the block time, not
				the time to wake, so subtract the current tick count. */
				prvAddCurrentTaskToDelayedList( xTimeToWake - xConstTickCount, pdFALSE );
 800661c:	69fa      	ldr	r2, [r7, #28]
 800661e:	6a3b      	ldr	r3, [r7, #32]
 8006620:	1ad3      	subs	r3, r2, r3
 8006622:	2100      	movs	r1, #0
 8006624:	4618      	mov	r0, r3
 8006626:	f000 fcf1 	bl	800700c <prvAddCurrentTaskToDelayedList>
			else
			{
				mtCOVERAGE_TEST_MARKER();
			}
		}
		xAlreadyYielded = xTaskResumeAll();
 800662a:	f000 f8a7 	bl	800677c <xTaskResumeAll>
 800662e:	61b8      	str	r0, [r7, #24]

		/* Force a reschedule if xTaskResumeAll has not already done so, we may
		have put ourselves to sleep. */
		if( xAlreadyYielded == pdFALSE )
 8006630:	69bb      	ldr	r3, [r7, #24]
 8006632:	2b00      	cmp	r3, #0
 8006634:	d107      	bne.n	8006646 <vTaskDelayUntil+0xf2>
		{
			portYIELD_WITHIN_API();
 8006636:	4b08      	ldr	r3, [pc, #32]	; (8006658 <vTaskDelayUntil+0x104>)
 8006638:	f04f 5280 	mov.w	r2, #268435456	; 0x10000000
 800663c:	601a      	str	r2, [r3, #0]
 800663e:	f3bf 8f4f 	dsb	sy
 8006642:	f3bf 8f6f 	isb	sy
		}
		else
		{
			mtCOVERAGE_TEST_MARKER();
		}
	}
 8006646:	bf00      	nop
 8006648:	3728      	adds	r7, #40	; 0x28
 800664a:	46bd      	mov	sp, r7
 800664c:	bd80      	pop	{r7, pc}
 800664e:	bf00      	nop
 8006650:	20000778 	.word	0x20000778
 8006654:	20000754 	.word	0x20000754
 8006658:	e000ed04 	.word	0xe000ed04

0800665c <vTaskDelay>:
/*-----------------------------------------------------------*/

#if ( INCLUDE_vTaskDelay == 1 )

	void vTaskDelay( const TickType_t xTicksToDelay )
	{
 800665c:	b580      	push	{r7, lr}
 800665e:	b084      	sub	sp, #16
 8006660:	af00      	add	r7, sp, #0
 8006662:	6078      	str	r0, [r7, #4]
	BaseType_t xAlreadyYielded = pdFALSE;
 8006664:	2300      	movs	r3, #0
 8006666:	60fb      	str	r3, [r7, #12]

		/* A delay time of zero just forces a reschedule. */
		if( xTicksToDelay > ( TickType_t ) 0U )
 8006668:	687b      	ldr	r3, [r7, #4]
 800666a:	2b00      	cmp	r3, #0
 800666c:	d019      	beq.n	80066a2 <vTaskDelay+0x46>
		{
			configASSERT( uxSchedulerSuspended == 0 );
 800666e:	4b14      	ldr	r3, [pc, #80]	; (80066c0 <vTaskDelay+0x64>)
 8006670:	681b      	ldr	r3, [r3, #0]
 8006672:	2b00      	cmp	r3, #0
 8006674:	d00c      	beq.n	8006690 <vTaskDelay+0x34>
	__asm volatile
 8006676:	f04f 0350 	mov.w	r3, #80	; 0x50
 800667a:	b672      	cpsid	i
 800667c:	f383 8811 	msr	BASEPRI, r3
 8006680:	f3bf 8f6f 	isb	sy
 8006684:	f3bf 8f4f 	dsb	sy
 8006688:	b662      	cpsie	i
 800668a:	60bb      	str	r3, [r7, #8]
}
 800668c:	bf00      	nop
 800668e:	e7fe      	b.n	800668e <vTaskDelay+0x32>
			vTaskSuspendAll();
 8006690:	f000 f866 	bl	8006760 <vTaskSuspendAll>
				list or removed from the blocked list until the scheduler
				is resumed.

				This task cannot be in an event list as it is the currently
				executing task. */
				prvAddCurrentTaskToDelayedList( xTicksToDelay, pdFALSE );
 8006694:	2100      	movs	r1, #0
 8006696:	6878      	ldr	r0, [r7, #4]
 8006698:	f000 fcb8 	bl	800700c <prvAddCurrentTaskToDelayedList>
			}
			xAlreadyYielded = xTaskResumeAll();
 800669c:	f000 f86e 	bl	800677c <xTaskResumeAll>
 80066a0:	60f8      	str	r0, [r7, #12]
			mtCOVERAGE_TEST_MARKER();
		}

		/* Force a reschedule if xTaskResumeAll has not already done so, we may
		have put ourselves to sleep. */
		if( xAlreadyYielded == pdFALSE )
 80066a2:	68fb      	ldr	r3, [r7, #12]
 80066a4:	2b00      	cmp	r3, #0
 80066a6:	d107      	bne.n	80066b8 <vTaskDelay+0x5c>
		{
			portYIELD_WITHIN_API();
 80066a8:	4b06      	ldr	r3, [pc, #24]	; (80066c4 <vTaskDelay+0x68>)
 80066aa:	f04f 5280 	mov.w	r2, #268435456	; 0x10000000
 80066ae:	601a      	str	r2, [r3, #0]
 80066b0:	f3bf 8f4f 	dsb	sy
 80066b4:	f3bf 8f6f 	isb	sy
		}
		else
		{
			mtCOVERAGE_TEST_MARKER();
		}
	}
 80066b8:	bf00      	nop
 80066ba:	3710      	adds	r7, #16
 80066bc:	46bd      	mov	sp, r7
 80066be:	bd80      	pop	{r7, pc}
 80066c0:	20000778 	.word	0x20000778
 80066c4:	e000ed04 	.word	0xe000ed04

080066c8 <vTaskStartScheduler>:

#endif /* ( ( INCLUDE_xTaskResumeFromISR == 1 ) && ( INCLUDE_vTaskSuspend == 1 ) ) */
/*-----------------------------------------------------------*/

void vTaskStartScheduler( void )
{
 80066c8:	b580      	push	{r7, lr}
 80066ca:	b086      	sub	sp, #24
 80066cc:	af02      	add	r7, sp, #8
		}
	}
	#else
	{
		/* The Idle task is being created using dynamically allocated RAM. */
		xReturn = xTaskCreate(	prvIdleTask,
 80066ce:	4b1e      	ldr	r3, [pc, #120]	; (8006748 <vTaskStartScheduler+0x80>)
 80066d0:	9301      	str	r3, [sp, #4]
 80066d2:	2300      	movs	r3, #0
 80066d4:	9300      	str	r3, [sp, #0]
 80066d6:	2300      	movs	r3, #0
 80066d8:	2280      	movs	r2, #128	; 0x80
 80066da:	491c      	ldr	r1, [pc, #112]	; (800674c <vTaskStartScheduler+0x84>)
 80066dc:	481c      	ldr	r0, [pc, #112]	; (8006750 <vTaskStartScheduler+0x88>)
 80066de:	f7ff fe05 	bl	80062ec <xTaskCreate>
 80066e2:	60f8      	str	r0, [r7, #12]
			mtCOVERAGE_TEST_MARKER();
		}
	}
	#endif /* configUSE_TIMERS */

	if( xReturn == pdPASS )
 80066e4:	68fb      	ldr	r3, [r7, #12]
 80066e6:	2b01      	cmp	r3, #1
 80066e8:	d118      	bne.n	800671c <vTaskStartScheduler+0x54>
	__asm volatile
 80066ea:	f04f 0350 	mov.w	r3, #80	; 0x50
 80066ee:	b672      	cpsid	i
 80066f0:	f383 8811 	msr	BASEPRI, r3
 80066f4:	f3bf 8f6f 	isb	sy
 80066f8:	f3bf 8f4f 	dsb	sy
 80066fc:	b662      	cpsie	i
 80066fe:	60bb      	str	r3, [r7, #8]
}
 8006700:	bf00      	nop
			structure specific to the task that will run first. */
			_impure_ptr = &( pxCurrentTCB->xNewLib_reent );
		}
		#endif /* configUSE_NEWLIB_REENTRANT */

		xNextTaskUnblockTime = portMAX_DELAY;
 8006702:	4b14      	ldr	r3, [pc, #80]	; (8006754 <vTaskStartScheduler+0x8c>)
 8006704:	f04f 32ff 	mov.w	r2, #4294967295
 8006708:	601a      	str	r2, [r3, #0]
		xSchedulerRunning = pdTRUE;
 800670a:	4b13      	ldr	r3, [pc, #76]	; (8006758 <vTaskStartScheduler+0x90>)
 800670c:	2201      	movs	r2, #1
 800670e:	601a      	str	r2, [r3, #0]
		xTickCount = ( TickType_t ) configINITIAL_TICK_COUNT;
 8006710:	4b12      	ldr	r3, [pc, #72]	; (800675c <vTaskStartScheduler+0x94>)
 8006712:	2200      	movs	r2, #0
 8006714:	601a      	str	r2, [r3, #0]

		traceTASK_SWITCHED_IN();

		/* Setting up the timer tick is hardware specific and thus in the
		portable interface. */
		if( xPortStartScheduler() != pdFALSE )
 8006716:	f000 fd6b 	bl	80071f0 <xPortStartScheduler>
	}

	/* Prevent compiler warnings if INCLUDE_xTaskGetIdleTaskHandle is set to 0,
	meaning xIdleTaskHandle is not used anywhere else. */
	( void ) xIdleTaskHandle;
}
 800671a:	e010      	b.n	800673e <vTaskStartScheduler+0x76>
		configASSERT( xReturn != errCOULD_NOT_ALLOCATE_REQUIRED_MEMORY );
 800671c:	68fb      	ldr	r3, [r7, #12]
 800671e:	f1b3 3fff 	cmp.w	r3, #4294967295
 8006722:	d10c      	bne.n	800673e <vTaskStartScheduler+0x76>
	__asm volatile
 8006724:	f04f 0350 	mov.w	r3, #80	; 0x50
 8006728:	b672      	cpsid	i
 800672a:	f383 8811 	msr	BASEPRI, r3
 800672e:	f3bf 8f6f 	isb	sy
 8006732:	f3bf 8f4f 	dsb	sy
 8006736:	b662      	cpsie	i
 8006738:	607b      	str	r3, [r7, #4]
}
 800673a:	bf00      	nop
 800673c:	e7fe      	b.n	800673c <vTaskStartScheduler+0x74>
}
 800673e:	bf00      	nop
 8006740:	3710      	adds	r7, #16
 8006742:	46bd      	mov	sp, r7
 8006744:	bd80      	pop	{r7, pc}
 8006746:	bf00      	nop
 8006748:	20000774 	.word	0x20000774
 800674c:	08008938 	.word	0x08008938
 8006750:	08006d51 	.word	0x08006d51
 8006754:	20000770 	.word	0x20000770
 8006758:	2000075c 	.word	0x2000075c
 800675c:	20000754 	.word	0x20000754

08006760 <vTaskSuspendAll>:
	vPortEndScheduler();
}
/*----------------------------------------------------------*/

void vTaskSuspendAll( void )
{
 8006760:	b480      	push	{r7}
 8006762:	af00      	add	r7, sp, #0
	/* A critical section is not required as the variable is of type
	BaseType_t.  Please read Richard Barry's reply in the following link to a
	post in the FreeRTOS support forum before reporting this as a bug! -
	http://goo.gl/wu4acr */
	++uxSchedulerSuspended;
 8006764:	4b04      	ldr	r3, [pc, #16]	; (8006778 <vTaskSuspendAll+0x18>)
 8006766:	681b      	ldr	r3, [r3, #0]
 8006768:	3301      	adds	r3, #1
 800676a:	4a03      	ldr	r2, [pc, #12]	; (8006778 <vTaskSuspendAll+0x18>)
 800676c:	6013      	str	r3, [r2, #0]
	portMEMORY_BARRIER();
}
 800676e:	bf00      	nop
 8006770:	46bd      	mov	sp, r7
 8006772:	f85d 7b04 	ldr.w	r7, [sp], #4
 8006776:	4770      	bx	lr
 8006778:	20000778 	.word	0x20000778

0800677c <xTaskResumeAll>:

#endif /* configUSE_TICKLESS_IDLE */
/*----------------------------------------------------------*/

BaseType_t xTaskResumeAll( void )
{
 800677c:	b580      	push	{r7, lr}
 800677e:	b084      	sub	sp, #16
 8006780:	af00      	add	r7, sp, #0
TCB_t *pxTCB = NULL;
 8006782:	2300      	movs	r3, #0
 8006784:	60fb      	str	r3, [r7, #12]
BaseType_t xAlreadyYielded = pdFALSE;
 8006786:	2300      	movs	r3, #0
 8006788:	60bb      	str	r3, [r7, #8]

	/* If uxSchedulerSuspended is zero then this function does not match a
	previous call to vTaskSuspendAll(). */
	configASSERT( uxSchedulerSuspended );
 800678a:	4b42      	ldr	r3, [pc, #264]	; (8006894 <xTaskResumeAll+0x118>)
 800678c:	681b      	ldr	r3, [r3, #0]
 800678e:	2b00      	cmp	r3, #0
 8006790:	d10c      	bne.n	80067ac <xTaskResumeAll+0x30>
	__asm volatile
 8006792:	f04f 0350 	mov.w	r3, #80	; 0x50
 8006796:	b672      	cpsid	i
 8006798:	f383 8811 	msr	BASEPRI, r3
 800679c:	f3bf 8f6f 	isb	sy
 80067a0:	f3bf 8f4f 	dsb	sy
 80067a4:	b662      	cpsie	i
 80067a6:	603b      	str	r3, [r7, #0]
}
 80067a8:	bf00      	nop
 80067aa:	e7fe      	b.n	80067aa <xTaskResumeAll+0x2e>
	/* It is possible that an ISR caused a task to be removed from an event
	list while the scheduler was suspended.  If this was the case then the
	removed task will have been added to the xPendingReadyList.  Once the
	scheduler has been resumed it is safe to move all the pending ready
	tasks from this list into their appropriate ready list. */
	taskENTER_CRITICAL();
 80067ac:	f000 fd9e 	bl	80072ec <vPortEnterCritical>
	{
		--uxSchedulerSuspended;
 80067b0:	4b38      	ldr	r3, [pc, #224]	; (8006894 <xTaskResumeAll+0x118>)
 80067b2:	681b      	ldr	r3, [r3, #0]
 80067b4:	3b01      	subs	r3, #1
 80067b6:	4a37      	ldr	r2, [pc, #220]	; (8006894 <xTaskResumeAll+0x118>)
 80067b8:	6013      	str	r3, [r2, #0]

		if( uxSchedulerSuspended == ( UBaseType_t ) pdFALSE )
 80067ba:	4b36      	ldr	r3, [pc, #216]	; (8006894 <xTaskResumeAll+0x118>)
 80067bc:	681b      	ldr	r3, [r3, #0]
 80067be:	2b00      	cmp	r3, #0
 80067c0:	d161      	bne.n	8006886 <xTaskResumeAll+0x10a>
		{
			if( uxCurrentNumberOfTasks > ( UBaseType_t ) 0U )
 80067c2:	4b35      	ldr	r3, [pc, #212]	; (8006898 <xTaskResumeAll+0x11c>)
 80067c4:	681b      	ldr	r3, [r3, #0]
 80067c6:	2b00      	cmp	r3, #0
 80067c8:	d05d      	beq.n	8006886 <xTaskResumeAll+0x10a>
			{
				/* Move any readied tasks from the pending list into the
				appropriate ready list. */
				while( listLIST_IS_EMPTY( &xPendingReadyList ) == pdFALSE )
 80067ca:	e02e      	b.n	800682a <xTaskResumeAll+0xae>
				{
					pxTCB = listGET_OWNER_OF_HEAD_ENTRY( ( &xPendingReadyList ) ); /*lint !e9079 void * is used as this macro is used with timers and co-routines too.  Alignment is known to be fine as the type of the pointer stored and retrieved is the same. */
 80067cc:	4b33      	ldr	r3, [pc, #204]	; (800689c <xTaskResumeAll+0x120>)
 80067ce:	68db      	ldr	r3, [r3, #12]
 80067d0:	68db      	ldr	r3, [r3, #12]
 80067d2:	60fb      	str	r3, [r7, #12]
					( void ) uxListRemove( &( pxTCB->xEventListItem ) );
 80067d4:	68fb      	ldr	r3, [r7, #12]
 80067d6:	3318      	adds	r3, #24
 80067d8:	4618      	mov	r0, r3
 80067da:	f7ff f873 	bl	80058c4 <uxListRemove>
					( void ) uxListRemove( &( pxTCB->xStateListItem ) );
 80067de:	68fb      	ldr	r3, [r7, #12]
 80067e0:	3304      	adds	r3, #4
 80067e2:	4618      	mov	r0, r3
 80067e4:	f7ff f86e 	bl	80058c4 <uxListRemove>
					prvAddTaskToReadyList( pxTCB );
 80067e8:	68fb      	ldr	r3, [r7, #12]
 80067ea:	6adb      	ldr	r3, [r3, #44]	; 0x2c
 80067ec:	2201      	movs	r2, #1
 80067ee:	409a      	lsls	r2, r3
 80067f0:	4b2b      	ldr	r3, [pc, #172]	; (80068a0 <xTaskResumeAll+0x124>)
 80067f2:	681b      	ldr	r3, [r3, #0]
 80067f4:	4313      	orrs	r3, r2
 80067f6:	4a2a      	ldr	r2, [pc, #168]	; (80068a0 <xTaskResumeAll+0x124>)
 80067f8:	6013      	str	r3, [r2, #0]
 80067fa:	68fb      	ldr	r3, [r7, #12]
 80067fc:	6ada      	ldr	r2, [r3, #44]	; 0x2c
 80067fe:	4613      	mov	r3, r2
 8006800:	009b      	lsls	r3, r3, #2
 8006802:	4413      	add	r3, r2
 8006804:	009b      	lsls	r3, r3, #2
 8006806:	4a27      	ldr	r2, [pc, #156]	; (80068a4 <xTaskResumeAll+0x128>)
 8006808:	441a      	add	r2, r3
 800680a:	68fb      	ldr	r3, [r7, #12]
 800680c:	3304      	adds	r3, #4
 800680e:	4619      	mov	r1, r3
 8006810:	4610      	mov	r0, r2
 8006812:	f7fe fffa 	bl	800580a <vListInsertEnd>

					/* If the moved task has a priority higher than the current
					task then a yield must be performed. */
					if( pxTCB->uxPriority >= pxCurrentTCB->uxPriority )
 8006816:	68fb      	ldr	r3, [r7, #12]
 8006818:	6ada      	ldr	r2, [r3, #44]	; 0x2c
 800681a:	4b23      	ldr	r3, [pc, #140]	; (80068a8 <xTaskResumeAll+0x12c>)
 800681c:	681b      	ldr	r3, [r3, #0]
 800681e:	6adb      	ldr	r3, [r3, #44]	; 0x2c
 8006820:	429a      	cmp	r2, r3
 8006822:	d302      	bcc.n	800682a <xTaskResumeAll+0xae>
					{
						xYieldPending = pdTRUE;
 8006824:	4b21      	ldr	r3, [pc, #132]	; (80068ac <xTaskResumeAll+0x130>)
 8006826:	2201      	movs	r2, #1
 8006828:	601a      	str	r2, [r3, #0]
				while( listLIST_IS_EMPTY( &xPendingReadyList ) == pdFALSE )
 800682a:	4b1c      	ldr	r3, [pc, #112]	; (800689c <xTaskResumeAll+0x120>)
 800682c:	681b      	ldr	r3, [r3, #0]
 800682e:	2b00      	cmp	r3, #0
 8006830:	d1cc      	bne.n	80067cc <xTaskResumeAll+0x50>
					{
						mtCOVERAGE_TEST_MARKER();
					}
				}

				if( pxTCB != NULL )
 8006832:	68fb      	ldr	r3, [r7, #12]
 8006834:	2b00      	cmp	r3, #0
 8006836:	d001      	beq.n	800683c <xTaskResumeAll+0xc0>
					which may have prevented the next unblock time from being
					re-calculated, in which case re-calculate it now.  Mainly
					important for low power tickless implementations, where
					this can prevent an unnecessary exit from low power
					state. */
					prvResetNextTaskUnblockTime();
 8006838:	f000 fb20 	bl	8006e7c <prvResetNextTaskUnblockTime>
				/* If any ticks occurred while the scheduler was suspended then
				they should be processed now.  This ensures the tick count does
				not	slip, and that any delayed tasks are resumed at the correct
				time. */
				{
					UBaseType_t uxPendedCounts = uxPendedTicks; /* Non-volatile copy. */
 800683c:	4b1c      	ldr	r3, [pc, #112]	; (80068b0 <xTaskResumeAll+0x134>)
 800683e:	681b      	ldr	r3, [r3, #0]
 8006840:	607b      	str	r3, [r7, #4]

					if( uxPendedCounts > ( UBaseType_t ) 0U )
 8006842:	687b      	ldr	r3, [r7, #4]
 8006844:	2b00      	cmp	r3, #0
 8006846:	d010      	beq.n	800686a <xTaskResumeAll+0xee>
					{
						do
						{
							if( xTaskIncrementTick() != pdFALSE )
 8006848:	f000 f858 	bl	80068fc <xTaskIncrementTick>
 800684c:	4603      	mov	r3, r0
 800684e:	2b00      	cmp	r3, #0
 8006850:	d002      	beq.n	8006858 <xTaskResumeAll+0xdc>
							{
								xYieldPending = pdTRUE;
 8006852:	4b16      	ldr	r3, [pc, #88]	; (80068ac <xTaskResumeAll+0x130>)
 8006854:	2201      	movs	r2, #1
 8006856:	601a      	str	r2, [r3, #0]
							}
							else
							{
								mtCOVERAGE_TEST_MARKER();
							}
							--uxPendedCounts;
 8006858:	687b      	ldr	r3, [r7, #4]
 800685a:	3b01      	subs	r3, #1
 800685c:	607b      	str	r3, [r7, #4]
						} while( uxPendedCounts > ( UBaseType_t ) 0U );
 800685e:	687b      	ldr	r3, [r7, #4]
 8006860:	2b00      	cmp	r3, #0
 8006862:	d1f1      	bne.n	8006848 <xTaskResumeAll+0xcc>

						uxPendedTicks = 0;
 8006864:	4b12      	ldr	r3, [pc, #72]	; (80068b0 <xTaskResumeAll+0x134>)
 8006866:	2200      	movs	r2, #0
 8006868:	601a      	str	r2, [r3, #0]
					{
						mtCOVERAGE_TEST_MARKER();
					}
				}

				if( xYieldPending != pdFALSE )
 800686a:	4b10      	ldr	r3, [pc, #64]	; (80068ac <xTaskResumeAll+0x130>)
 800686c:	681b      	ldr	r3, [r3, #0]
 800686e:	2b00      	cmp	r3, #0
 8006870:	d009      	beq.n	8006886 <xTaskResumeAll+0x10a>
				{
					#if( configUSE_PREEMPTION != 0 )
					{
						xAlreadyYielded = pdTRUE;
 8006872:	2301      	movs	r3, #1
 8006874:	60bb      	str	r3, [r7, #8]
					}
					#endif
					taskYIELD_IF_USING_PREEMPTION();
 8006876:	4b0f      	ldr	r3, [pc, #60]	; (80068b4 <xTaskResumeAll+0x138>)
 8006878:	f04f 5280 	mov.w	r2, #268435456	; 0x10000000
 800687c:	601a      	str	r2, [r3, #0]
 800687e:	f3bf 8f4f 	dsb	sy
 8006882:	f3bf 8f6f 	isb	sy
		else
		{
			mtCOVERAGE_TEST_MARKER();
		}
	}
	taskEXIT_CRITICAL();
 8006886:	f000 fd65 	bl	8007354 <vPortExitCritical>

	return xAlreadyYielded;
 800688a:	68bb      	ldr	r3, [r7, #8]
}
 800688c:	4618      	mov	r0, r3
 800688e:	3710      	adds	r7, #16
 8006890:	46bd      	mov	sp, r7
 8006892:	bd80      	pop	{r7, pc}
 8006894:	20000778 	.word	0x20000778
 8006898:	20000750 	.word	0x20000750
 800689c:	20000710 	.word	0x20000710
 80068a0:	20000758 	.word	0x20000758
 80068a4:	20000654 	.word	0x20000654
 80068a8:	20000650 	.word	0x20000650
 80068ac:	20000764 	.word	0x20000764
 80068b0:	20000760 	.word	0x20000760
 80068b4:	e000ed04 	.word	0xe000ed04

080068b8 <xTaskGetTickCount>:
/*-----------------------------------------------------------*/

TickType_t xTaskGetTickCount( void )
{
 80068b8:	b480      	push	{r7}
 80068ba:	b083      	sub	sp, #12
 80068bc:	af00      	add	r7, sp, #0
TickType_t xTicks;

	/* Critical section required if running on a 16 bit processor. */
	portTICK_TYPE_ENTER_CRITICAL();
	{
		xTicks = xTickCount;
 80068be:	4b05      	ldr	r3, [pc, #20]	; (80068d4 <xTaskGetTickCount+0x1c>)
 80068c0:	681b      	ldr	r3, [r3, #0]
 80068c2:	607b      	str	r3, [r7, #4]
	}
	portTICK_TYPE_EXIT_CRITICAL();

	return xTicks;
 80068c4:	687b      	ldr	r3, [r7, #4]
}
 80068c6:	4618      	mov	r0, r3
 80068c8:	370c      	adds	r7, #12
 80068ca:	46bd      	mov	sp, r7
 80068cc:	f85d 7b04 	ldr.w	r7, [sp], #4
 80068d0:	4770      	bx	lr
 80068d2:	bf00      	nop
 80068d4:	20000754 	.word	0x20000754

080068d8 <xTaskGetTickCountFromISR>:
/*-----------------------------------------------------------*/

TickType_t xTaskGetTickCountFromISR( void )
{
 80068d8:	b580      	push	{r7, lr}
 80068da:	b082      	sub	sp, #8
 80068dc:	af00      	add	r7, sp, #0
	that have been assigned a priority at or (logically) below the maximum
	system call	interrupt priority.  FreeRTOS maintains a separate interrupt
	safe API to ensure interrupt entry is as fast and as simple as possible.
	More information (albeit Cortex-M specific) is provided on the following
	link: https://www.freertos.org/RTOS-Cortex-M3-M4.html */
	portASSERT_IF_INTERRUPT_PRIORITY_INVALID();
 80068de:	f000 fded 	bl	80074bc <vPortValidateInterruptPriority>

	uxSavedInterruptStatus = portTICK_TYPE_SET_INTERRUPT_MASK_FROM_ISR();
 80068e2:	2300      	movs	r3, #0
 80068e4:	607b      	str	r3, [r7, #4]
	{
		xReturn = xTickCount;
 80068e6:	4b04      	ldr	r3, [pc, #16]	; (80068f8 <xTaskGetTickCountFromISR+0x20>)
 80068e8:	681b      	ldr	r3, [r3, #0]
 80068ea:	603b      	str	r3, [r7, #0]
	}
	portTICK_TYPE_CLEAR_INTERRUPT_MASK_FROM_ISR( uxSavedInterruptStatus );

	return xReturn;
 80068ec:	683b      	ldr	r3, [r7, #0]
}
 80068ee:	4618      	mov	r0, r3
 80068f0:	3708      	adds	r7, #8
 80068f2:	46bd      	mov	sp, r7
 80068f4:	bd80      	pop	{r7, pc}
 80068f6:	bf00      	nop
 80068f8:	20000754 	.word	0x20000754

080068fc <xTaskIncrementTick>:

#endif /* INCLUDE_xTaskAbortDelay */
/*----------------------------------------------------------*/

BaseType_t xTaskIncrementTick( void )
{
 80068fc:	b580      	push	{r7, lr}
 80068fe:	b086      	sub	sp, #24
 8006900:	af00      	add	r7, sp, #0
TCB_t * pxTCB;
TickType_t xItemValue;
BaseType_t xSwitchRequired = pdFALSE;
 8006902:	2300      	movs	r3, #0
 8006904:	617b      	str	r3, [r7, #20]

	/* Called by the portable layer each time a tick interrupt occurs.
	Increments the tick then checks to see if the new tick value will cause any
	tasks to be unblocked. */
	traceTASK_INCREMENT_TICK( xTickCount );
	if( uxSchedulerSuspended == ( UBaseType_t ) pdFALSE )
 8006906:	4b4f      	ldr	r3, [pc, #316]	; (8006a44 <xTaskIncrementTick+0x148>)
 8006908:	681b      	ldr	r3, [r3, #0]
 800690a:	2b00      	cmp	r3, #0
 800690c:	f040 808a 	bne.w	8006a24 <xTaskIncrementTick+0x128>
	{
		/* Minor optimisation.  The tick count cannot change in this
		block. */
		const TickType_t xConstTickCount = xTickCount + ( TickType_t ) 1;
 8006910:	4b4d      	ldr	r3, [pc, #308]	; (8006a48 <xTaskIncrementTick+0x14c>)
 8006912:	681b      	ldr	r3, [r3, #0]
 8006914:	3301      	adds	r3, #1
 8006916:	613b      	str	r3, [r7, #16]

		/* Increment the RTOS tick, switching the delayed and overflowed
		delayed lists if it wraps to 0. */
		xTickCount = xConstTickCount;
 8006918:	4a4b      	ldr	r2, [pc, #300]	; (8006a48 <xTaskIncrementTick+0x14c>)
 800691a:	693b      	ldr	r3, [r7, #16]
 800691c:	6013      	str	r3, [r2, #0]

		if( xConstTickCount == ( TickType_t ) 0U ) /*lint !e774 'if' does not always evaluate to false as it is looking for an overflow. */
 800691e:	693b      	ldr	r3, [r7, #16]
 8006920:	2b00      	cmp	r3, #0
 8006922:	d122      	bne.n	800696a <xTaskIncrementTick+0x6e>
		{
			taskSWITCH_DELAYED_LISTS();
 8006924:	4b49      	ldr	r3, [pc, #292]	; (8006a4c <xTaskIncrementTick+0x150>)
 8006926:	681b      	ldr	r3, [r3, #0]
 8006928:	681b      	ldr	r3, [r3, #0]
 800692a:	2b00      	cmp	r3, #0
 800692c:	d00c      	beq.n	8006948 <xTaskIncrementTick+0x4c>
	__asm volatile
 800692e:	f04f 0350 	mov.w	r3, #80	; 0x50
 8006932:	b672      	cpsid	i
 8006934:	f383 8811 	msr	BASEPRI, r3
 8006938:	f3bf 8f6f 	isb	sy
 800693c:	f3bf 8f4f 	dsb	sy
 8006940:	b662      	cpsie	i
 8006942:	603b      	str	r3, [r7, #0]
}
 8006944:	bf00      	nop
 8006946:	e7fe      	b.n	8006946 <xTaskIncrementTick+0x4a>
 8006948:	4b40      	ldr	r3, [pc, #256]	; (8006a4c <xTaskIncrementTick+0x150>)
 800694a:	681b      	ldr	r3, [r3, #0]
 800694c:	60fb      	str	r3, [r7, #12]
 800694e:	4b40      	ldr	r3, [pc, #256]	; (8006a50 <xTaskIncrementTick+0x154>)
 8006950:	681b      	ldr	r3, [r3, #0]
 8006952:	4a3e      	ldr	r2, [pc, #248]	; (8006a4c <xTaskIncrementTick+0x150>)
 8006954:	6013      	str	r3, [r2, #0]
 8006956:	4a3e      	ldr	r2, [pc, #248]	; (8006a50 <xTaskIncrementTick+0x154>)
 8006958:	68fb      	ldr	r3, [r7, #12]
 800695a:	6013      	str	r3, [r2, #0]
 800695c:	4b3d      	ldr	r3, [pc, #244]	; (8006a54 <xTaskIncrementTick+0x158>)
 800695e:	681b      	ldr	r3, [r3, #0]
 8006960:	3301      	adds	r3, #1
 8006962:	4a3c      	ldr	r2, [pc, #240]	; (8006a54 <xTaskIncrementTick+0x158>)
 8006964:	6013      	str	r3, [r2, #0]
 8006966:	f000 fa89 	bl	8006e7c <prvResetNextTaskUnblockTime>

		/* See if this tick has made a timeout expire.  Tasks are stored in
		the	queue in the order of their wake time - meaning once one task
		has been found whose block time has not expired there is no need to
		look any further down the list. */
		if( xConstTickCount >= xNextTaskUnblockTime )
 800696a:	4b3b      	ldr	r3, [pc, #236]	; (8006a58 <xTaskIncrementTick+0x15c>)
 800696c:	681b      	ldr	r3, [r3, #0]
 800696e:	693a      	ldr	r2, [r7, #16]
 8006970:	429a      	cmp	r2, r3
 8006972:	d348      	bcc.n	8006a06 <xTaskIncrementTick+0x10a>
		{
			for( ;; )
			{
				if( listLIST_IS_EMPTY( pxDelayedTaskList ) != pdFALSE )
 8006974:	4b35      	ldr	r3, [pc, #212]	; (8006a4c <xTaskIncrementTick+0x150>)
 8006976:	681b      	ldr	r3, [r3, #0]
 8006978:	681b      	ldr	r3, [r3, #0]
 800697a:	2b00      	cmp	r3, #0
 800697c:	d104      	bne.n	8006988 <xTaskIncrementTick+0x8c>
					/* The delayed list is empty.  Set xNextTaskUnblockTime
					to the maximum possible value so it is extremely
					unlikely that the
					if( xTickCount >= xNextTaskUnblockTime ) test will pass
					next time through. */
					xNextTaskUnblockTime = portMAX_DELAY; /*lint !e961 MISRA exception as the casts are only redundant for some ports. */
 800697e:	4b36      	ldr	r3, [pc, #216]	; (8006a58 <xTaskIncrementTick+0x15c>)
 8006980:	f04f 32ff 	mov.w	r2, #4294967295
 8006984:	601a      	str	r2, [r3, #0]
					break;
 8006986:	e03e      	b.n	8006a06 <xTaskIncrementTick+0x10a>
				{
					/* The delayed list is not empty, get the value of the
					item at the head of the delayed list.  This is the time
					at which the task at the head of the delayed list must
					be removed from the Blocked state. */
					pxTCB = listGET_OWNER_OF_HEAD_ENTRY( pxDelayedTaskList ); /*lint !e9079 void * is used as this macro is used with timers and co-routines too.  Alignment is known to be fine as the type of the pointer stored and retrieved is the same. */
 8006988:	4b30      	ldr	r3, [pc, #192]	; (8006a4c <xTaskIncrementTick+0x150>)
 800698a:	681b      	ldr	r3, [r3, #0]
 800698c:	68db      	ldr	r3, [r3, #12]
 800698e:	68db      	ldr	r3, [r3, #12]
 8006990:	60bb      	str	r3, [r7, #8]
					xItemValue = listGET_LIST_ITEM_VALUE( &( pxTCB->xStateListItem ) );
 8006992:	68bb      	ldr	r3, [r7, #8]
 8006994:	685b      	ldr	r3, [r3, #4]
 8006996:	607b      	str	r3, [r7, #4]

					if( xConstTickCount < xItemValue )
 8006998:	693a      	ldr	r2, [r7, #16]
 800699a:	687b      	ldr	r3, [r7, #4]
 800699c:	429a      	cmp	r2, r3
 800699e:	d203      	bcs.n	80069a8 <xTaskIncrementTick+0xac>
						/* It is not time to unblock this item yet, but the
						item value is the time at which the task at the head
						of the blocked list must be removed from the Blocked
						state -	so record the item value in
						xNextTaskUnblockTime. */
						xNextTaskUnblockTime = xItemValue;
 80069a0:	4a2d      	ldr	r2, [pc, #180]	; (8006a58 <xTaskIncrementTick+0x15c>)
 80069a2:	687b      	ldr	r3, [r7, #4]
 80069a4:	6013      	str	r3, [r2, #0]
						break; /*lint !e9011 Code structure here is deedmed easier to understand with multiple breaks. */
 80069a6:	e02e      	b.n	8006a06 <xTaskIncrementTick+0x10a>
					{
						mtCOVERAGE_TEST_MARKER();
					}

					/* It is time to remove the item from the Blocked state. */
					( void ) uxListRemove( &( pxTCB->xStateListItem ) );
 80069a8:	68bb      	ldr	r3, [r7, #8]
 80069aa:	3304      	adds	r3, #4
 80069ac:	4618      	mov	r0, r3
 80069ae:	f7fe ff89 	bl	80058c4 <uxListRemove>

					/* Is the task waiting on an event also?  If so remove
					it from the event list. */
					if( listLIST_ITEM_CONTAINER( &( pxTCB->xEventListItem ) ) != NULL )
 80069b2:	68bb      	ldr	r3, [r7, #8]
 80069b4:	6a9b      	ldr	r3, [r3, #40]	; 0x28
 80069b6:	2b00      	cmp	r3, #0
 80069b8:	d004      	beq.n	80069c4 <xTaskIncrementTick+0xc8>
					{
						( void ) uxListRemove( &( pxTCB->xEventListItem ) );
 80069ba:	68bb      	ldr	r3, [r7, #8]
 80069bc:	3318      	adds	r3, #24
 80069be:	4618      	mov	r0, r3
 80069c0:	f7fe ff80 	bl	80058c4 <uxListRemove>
						mtCOVERAGE_TEST_MARKER();
					}

					/* Place the unblocked task into the appropriate ready
					list. */
					prvAddTaskToReadyList( pxTCB );
 80069c4:	68bb      	ldr	r3, [r7, #8]
 80069c6:	6adb      	ldr	r3, [r3, #44]	; 0x2c
 80069c8:	2201      	movs	r2, #1
 80069ca:	409a      	lsls	r2, r3
 80069cc:	4b23      	ldr	r3, [pc, #140]	; (8006a5c <xTaskIncrementTick+0x160>)
 80069ce:	681b      	ldr	r3, [r3, #0]
 80069d0:	4313      	orrs	r3, r2
 80069d2:	4a22      	ldr	r2, [pc, #136]	; (8006a5c <xTaskIncrementTick+0x160>)
 80069d4:	6013      	str	r3, [r2, #0]
 80069d6:	68bb      	ldr	r3, [r7, #8]
 80069d8:	6ada      	ldr	r2, [r3, #44]	; 0x2c
 80069da:	4613      	mov	r3, r2
 80069dc:	009b      	lsls	r3, r3, #2
 80069de:	4413      	add	r3, r2
 80069e0:	009b      	lsls	r3, r3, #2
 80069e2:	4a1f      	ldr	r2, [pc, #124]	; (8006a60 <xTaskIncrementTick+0x164>)
 80069e4:	441a      	add	r2, r3
 80069e6:	68bb      	ldr	r3, [r7, #8]
 80069e8:	3304      	adds	r3, #4
 80069ea:	4619      	mov	r1, r3
 80069ec:	4610      	mov	r0, r2
 80069ee:	f7fe ff0c 	bl	800580a <vListInsertEnd>
					{
						/* Preemption is on, but a context switch should
						only be performed if the unblocked task has a
						priority that is equal to or higher than the
						currently executing task. */
						if( pxTCB->uxPriority >= pxCurrentTCB->uxPriority )
 80069f2:	68bb      	ldr	r3, [r7, #8]
 80069f4:	6ada      	ldr	r2, [r3, #44]	; 0x2c
 80069f6:	4b1b      	ldr	r3, [pc, #108]	; (8006a64 <xTaskIncrementTick+0x168>)
 80069f8:	681b      	ldr	r3, [r3, #0]
 80069fa:	6adb      	ldr	r3, [r3, #44]	; 0x2c
 80069fc:	429a      	cmp	r2, r3
 80069fe:	d3b9      	bcc.n	8006974 <xTaskIncrementTick+0x78>
						{
							xSwitchRequired = pdTRUE;
 8006a00:	2301      	movs	r3, #1
 8006a02:	617b      	str	r3, [r7, #20]
				if( listLIST_IS_EMPTY( pxDelayedTaskList ) != pdFALSE )
 8006a04:	e7b6      	b.n	8006974 <xTaskIncrementTick+0x78>
		/* Tasks of equal priority to the currently running task will share
		processing time (time slice) if preemption is on, and the application
		writer has not explicitly turned time slicing off. */
		#if ( ( configUSE_PREEMPTION == 1 ) && ( configUSE_TIME_SLICING == 1 ) )
		{
			if( listCURRENT_LIST_LENGTH( &( pxReadyTasksLists[ pxCurrentTCB->uxPriority ] ) ) > ( UBaseType_t ) 1 )
 8006a06:	4b17      	ldr	r3, [pc, #92]	; (8006a64 <xTaskIncrementTick+0x168>)
 8006a08:	681b      	ldr	r3, [r3, #0]
 8006a0a:	6ada      	ldr	r2, [r3, #44]	; 0x2c
 8006a0c:	4914      	ldr	r1, [pc, #80]	; (8006a60 <xTaskIncrementTick+0x164>)
 8006a0e:	4613      	mov	r3, r2
 8006a10:	009b      	lsls	r3, r3, #2
 8006a12:	4413      	add	r3, r2
 8006a14:	009b      	lsls	r3, r3, #2
 8006a16:	440b      	add	r3, r1
 8006a18:	681b      	ldr	r3, [r3, #0]
 8006a1a:	2b01      	cmp	r3, #1
 8006a1c:	d907      	bls.n	8006a2e <xTaskIncrementTick+0x132>
			{
				xSwitchRequired = pdTRUE;
 8006a1e:	2301      	movs	r3, #1
 8006a20:	617b      	str	r3, [r7, #20]
 8006a22:	e004      	b.n	8006a2e <xTaskIncrementTick+0x132>
		}
		#endif /* configUSE_TICK_HOOK */
	}
	else
	{
		++uxPendedTicks;
 8006a24:	4b10      	ldr	r3, [pc, #64]	; (8006a68 <xTaskIncrementTick+0x16c>)
 8006a26:	681b      	ldr	r3, [r3, #0]
 8006a28:	3301      	adds	r3, #1
 8006a2a:	4a0f      	ldr	r2, [pc, #60]	; (8006a68 <xTaskIncrementTick+0x16c>)
 8006a2c:	6013      	str	r3, [r2, #0]
		#endif
	}

	#if ( configUSE_PREEMPTION == 1 )
	{
		if( xYieldPending != pdFALSE )
 8006a2e:	4b0f      	ldr	r3, [pc, #60]	; (8006a6c <xTaskIncrementTick+0x170>)
 8006a30:	681b      	ldr	r3, [r3, #0]
 8006a32:	2b00      	cmp	r3, #0
 8006a34:	d001      	beq.n	8006a3a <xTaskIncrementTick+0x13e>
		{
			xSwitchRequired = pdTRUE;
 8006a36:	2301      	movs	r3, #1
 8006a38:	617b      	str	r3, [r7, #20]
			mtCOVERAGE_TEST_MARKER();
		}
	}
	#endif /* configUSE_PREEMPTION */

	return xSwitchRequired;
 8006a3a:	697b      	ldr	r3, [r7, #20]
}
 8006a3c:	4618      	mov	r0, r3
 8006a3e:	3718      	adds	r7, #24
 8006a40:	46bd      	mov	sp, r7
 8006a42:	bd80      	pop	{r7, pc}
 8006a44:	20000778 	.word	0x20000778
 8006a48:	20000754 	.word	0x20000754
 8006a4c:	20000708 	.word	0x20000708
 8006a50:	2000070c 	.word	0x2000070c
 8006a54:	20000768 	.word	0x20000768
 8006a58:	20000770 	.word	0x20000770
 8006a5c:	20000758 	.word	0x20000758
 8006a60:	20000654 	.word	0x20000654
 8006a64:	20000650 	.word	0x20000650
 8006a68:	20000760 	.word	0x20000760
 8006a6c:	20000764 	.word	0x20000764

08006a70 <vTaskSwitchContext>:

#endif /* configUSE_APPLICATION_TASK_TAG */
/*-----------------------------------------------------------*/

void vTaskSwitchContext( void )
{
 8006a70:	b480      	push	{r7}
 8006a72:	b087      	sub	sp, #28
 8006a74:	af00      	add	r7, sp, #0
	if( uxSchedulerSuspended != ( UBaseType_t ) pdFALSE )
 8006a76:	4b28      	ldr	r3, [pc, #160]	; (8006b18 <vTaskSwitchContext+0xa8>)
 8006a78:	681b      	ldr	r3, [r3, #0]
 8006a7a:	2b00      	cmp	r3, #0
 8006a7c:	d003      	beq.n	8006a86 <vTaskSwitchContext+0x16>
	{
		/* The scheduler is currently suspended - do not allow a context
		switch. */
		xYieldPending = pdTRUE;
 8006a7e:	4b27      	ldr	r3, [pc, #156]	; (8006b1c <vTaskSwitchContext+0xac>)
 8006a80:	2201      	movs	r2, #1
 8006a82:	601a      	str	r2, [r3, #0]
			structure specific to this task. */
			_impure_ptr = &( pxCurrentTCB->xNewLib_reent );
		}
		#endif /* configUSE_NEWLIB_REENTRANT */
	}
}
 8006a84:	e041      	b.n	8006b0a <vTaskSwitchContext+0x9a>
		xYieldPending = pdFALSE;
 8006a86:	4b25      	ldr	r3, [pc, #148]	; (8006b1c <vTaskSwitchContext+0xac>)
 8006a88:	2200      	movs	r2, #0
 8006a8a:	601a      	str	r2, [r3, #0]
		taskSELECT_HIGHEST_PRIORITY_TASK(); /*lint !e9079 void * is used as this macro is used with timers and co-routines too.  Alignment is known to be fine as the type of the pointer stored and retrieved is the same. */
 8006a8c:	4b24      	ldr	r3, [pc, #144]	; (8006b20 <vTaskSwitchContext+0xb0>)
 8006a8e:	681b      	ldr	r3, [r3, #0]
 8006a90:	60fb      	str	r3, [r7, #12]
		__asm volatile ( "clz %0, %1" : "=r" ( ucReturn ) : "r" ( ulBitmap ) : "memory" );
 8006a92:	68fb      	ldr	r3, [r7, #12]
 8006a94:	fab3 f383 	clz	r3, r3
 8006a98:	72fb      	strb	r3, [r7, #11]
		return ucReturn;
 8006a9a:	7afb      	ldrb	r3, [r7, #11]
 8006a9c:	f1c3 031f 	rsb	r3, r3, #31
 8006aa0:	617b      	str	r3, [r7, #20]
 8006aa2:	4920      	ldr	r1, [pc, #128]	; (8006b24 <vTaskSwitchContext+0xb4>)
 8006aa4:	697a      	ldr	r2, [r7, #20]
 8006aa6:	4613      	mov	r3, r2
 8006aa8:	009b      	lsls	r3, r3, #2
 8006aaa:	4413      	add	r3, r2
 8006aac:	009b      	lsls	r3, r3, #2
 8006aae:	440b      	add	r3, r1
 8006ab0:	681b      	ldr	r3, [r3, #0]
 8006ab2:	2b00      	cmp	r3, #0
 8006ab4:	d10c      	bne.n	8006ad0 <vTaskSwitchContext+0x60>
	__asm volatile
 8006ab6:	f04f 0350 	mov.w	r3, #80	; 0x50
 8006aba:	b672      	cpsid	i
 8006abc:	f383 8811 	msr	BASEPRI, r3
 8006ac0:	f3bf 8f6f 	isb	sy
 8006ac4:	f3bf 8f4f 	dsb	sy
 8006ac8:	b662      	cpsie	i
 8006aca:	607b      	str	r3, [r7, #4]
}
 8006acc:	bf00      	nop
 8006ace:	e7fe      	b.n	8006ace <vTaskSwitchContext+0x5e>
 8006ad0:	697a      	ldr	r2, [r7, #20]
 8006ad2:	4613      	mov	r3, r2
 8006ad4:	009b      	lsls	r3, r3, #2
 8006ad6:	4413      	add	r3, r2
 8006ad8:	009b      	lsls	r3, r3, #2
 8006ada:	4a12      	ldr	r2, [pc, #72]	; (8006b24 <vTaskSwitchContext+0xb4>)
 8006adc:	4413      	add	r3, r2
 8006ade:	613b      	str	r3, [r7, #16]
 8006ae0:	693b      	ldr	r3, [r7, #16]
 8006ae2:	685b      	ldr	r3, [r3, #4]
 8006ae4:	685a      	ldr	r2, [r3, #4]
 8006ae6:	693b      	ldr	r3, [r7, #16]
 8006ae8:	605a      	str	r2, [r3, #4]
 8006aea:	693b      	ldr	r3, [r7, #16]
 8006aec:	685a      	ldr	r2, [r3, #4]
 8006aee:	693b      	ldr	r3, [r7, #16]
 8006af0:	3308      	adds	r3, #8
 8006af2:	429a      	cmp	r2, r3
 8006af4:	d104      	bne.n	8006b00 <vTaskSwitchContext+0x90>
 8006af6:	693b      	ldr	r3, [r7, #16]
 8006af8:	685b      	ldr	r3, [r3, #4]
 8006afa:	685a      	ldr	r2, [r3, #4]
 8006afc:	693b      	ldr	r3, [r7, #16]
 8006afe:	605a      	str	r2, [r3, #4]
 8006b00:	693b      	ldr	r3, [r7, #16]
 8006b02:	685b      	ldr	r3, [r3, #4]
 8006b04:	68db      	ldr	r3, [r3, #12]
 8006b06:	4a08      	ldr	r2, [pc, #32]	; (8006b28 <vTaskSwitchContext+0xb8>)
 8006b08:	6013      	str	r3, [r2, #0]
}
 8006b0a:	bf00      	nop
 8006b0c:	371c      	adds	r7, #28
 8006b0e:	46bd      	mov	sp, r7
 8006b10:	f85d 7b04 	ldr.w	r7, [sp], #4
 8006b14:	4770      	bx	lr
 8006b16:	bf00      	nop
 8006b18:	20000778 	.word	0x20000778
 8006b1c:	20000764 	.word	0x20000764
 8006b20:	20000758 	.word	0x20000758
 8006b24:	20000654 	.word	0x20000654
 8006b28:	20000650 	.word	0x20000650

08006b2c <vTaskPlaceOnEventList>:
/*-----------------------------------------------------------*/

void vTaskPlaceOnEventList( List_t * const pxEventList, const TickType_t xTicksToWait )
{
 8006b2c:	b580      	push	{r7, lr}
 8006b2e:	b084      	sub	sp, #16
 8006b30:	af00      	add	r7, sp, #0
 8006b32:	6078      	str	r0, [r7, #4]
 8006b34:	6039      	str	r1, [r7, #0]
	configASSERT( pxEventList );
 8006b36:	687b      	ldr	r3, [r7, #4]
 8006b38:	2b00      	cmp	r3, #0
 8006b3a:	d10c      	bne.n	8006b56 <vTaskPlaceOnEventList+0x2a>
	__asm volatile
 8006b3c:	f04f 0350 	mov.w	r3, #80	; 0x50
 8006b40:	b672      	cpsid	i
 8006b42:	f383 8811 	msr	BASEPRI, r3
 8006b46:	f3bf 8f6f 	isb	sy
 8006b4a:	f3bf 8f4f 	dsb	sy
 8006b4e:	b662      	cpsie	i
 8006b50:	60fb      	str	r3, [r7, #12]
}
 8006b52:	bf00      	nop
 8006b54:	e7fe      	b.n	8006b54 <vTaskPlaceOnEventList+0x28>

	/* Place the event list item of the TCB in the appropriate event list.
	This is placed in the list in priority order so the highest priority task
	is the first to be woken by the event.  The queue that contains the event
	list is locked, preventing simultaneous access from interrupts. */
	vListInsert( pxEventList, &( pxCurrentTCB->xEventListItem ) );
 8006b56:	4b07      	ldr	r3, [pc, #28]	; (8006b74 <vTaskPlaceOnEventList+0x48>)
 8006b58:	681b      	ldr	r3, [r3, #0]
 8006b5a:	3318      	adds	r3, #24
 8006b5c:	4619      	mov	r1, r3
 8006b5e:	6878      	ldr	r0, [r7, #4]
 8006b60:	f7fe fe77 	bl	8005852 <vListInsert>

	prvAddCurrentTaskToDelayedList( xTicksToWait, pdTRUE );
 8006b64:	2101      	movs	r1, #1
 8006b66:	6838      	ldr	r0, [r7, #0]
 8006b68:	f000 fa50 	bl	800700c <prvAddCurrentTaskToDelayedList>
}
 8006b6c:	bf00      	nop
 8006b6e:	3710      	adds	r7, #16
 8006b70:	46bd      	mov	sp, r7
 8006b72:	bd80      	pop	{r7, pc}
 8006b74:	20000650 	.word	0x20000650

08006b78 <xTaskRemoveFromEventList>:

#endif /* configUSE_TIMERS */
/*-----------------------------------------------------------*/

BaseType_t xTaskRemoveFromEventList( const List_t * const pxEventList )
{
 8006b78:	b580      	push	{r7, lr}
 8006b7a:	b086      	sub	sp, #24
 8006b7c:	af00      	add	r7, sp, #0
 8006b7e:	6078      	str	r0, [r7, #4]
	get called - the lock count on the queue will get modified instead.  This
	means exclusive access to the event list is guaranteed here.

	This function assumes that a check has already been made to ensure that
	pxEventList is not empty. */
	pxUnblockedTCB = listGET_OWNER_OF_HEAD_ENTRY( pxEventList ); /*lint !e9079 void * is used as this macro is used with timers and co-routines too.  Alignment is known to be fine as the type of the pointer stored and retrieved is the same. */
 8006b80:	687b      	ldr	r3, [r7, #4]
 8006b82:	68db      	ldr	r3, [r3, #12]
 8006b84:	68db      	ldr	r3, [r3, #12]
 8006b86:	613b      	str	r3, [r7, #16]
	configASSERT( pxUnblockedTCB );
 8006b88:	693b      	ldr	r3, [r7, #16]
 8006b8a:	2b00      	cmp	r3, #0
 8006b8c:	d10c      	bne.n	8006ba8 <xTaskRemoveFromEventList+0x30>
	__asm volatile
 8006b8e:	f04f 0350 	mov.w	r3, #80	; 0x50
 8006b92:	b672      	cpsid	i
 8006b94:	f383 8811 	msr	BASEPRI, r3
 8006b98:	f3bf 8f6f 	isb	sy
 8006b9c:	f3bf 8f4f 	dsb	sy
 8006ba0:	b662      	cpsie	i
 8006ba2:	60fb      	str	r3, [r7, #12]
}
 8006ba4:	bf00      	nop
 8006ba6:	e7fe      	b.n	8006ba6 <xTaskRemoveFromEventList+0x2e>
	( void ) uxListRemove( &( pxUnblockedTCB->xEventListItem ) );
 8006ba8:	693b      	ldr	r3, [r7, #16]
 8006baa:	3318      	adds	r3, #24
 8006bac:	4618      	mov	r0, r3
 8006bae:	f7fe fe89 	bl	80058c4 <uxListRemove>

	if( uxSchedulerSuspended == ( UBaseType_t ) pdFALSE )
 8006bb2:	4b1d      	ldr	r3, [pc, #116]	; (8006c28 <xTaskRemoveFromEventList+0xb0>)
 8006bb4:	681b      	ldr	r3, [r3, #0]
 8006bb6:	2b00      	cmp	r3, #0
 8006bb8:	d11c      	bne.n	8006bf4 <xTaskRemoveFromEventList+0x7c>
	{
		( void ) uxListRemove( &( pxUnblockedTCB->xStateListItem ) );
 8006bba:	693b      	ldr	r3, [r7, #16]
 8006bbc:	3304      	adds	r3, #4
 8006bbe:	4618      	mov	r0, r3
 8006bc0:	f7fe fe80 	bl	80058c4 <uxListRemove>
		prvAddTaskToReadyList( pxUnblockedTCB );
 8006bc4:	693b      	ldr	r3, [r7, #16]
 8006bc6:	6adb      	ldr	r3, [r3, #44]	; 0x2c
 8006bc8:	2201      	movs	r2, #1
 8006bca:	409a      	lsls	r2, r3
 8006bcc:	4b17      	ldr	r3, [pc, #92]	; (8006c2c <xTaskRemoveFromEventList+0xb4>)
 8006bce:	681b      	ldr	r3, [r3, #0]
 8006bd0:	4313      	orrs	r3, r2
 8006bd2:	4a16      	ldr	r2, [pc, #88]	; (8006c2c <xTaskRemoveFromEventList+0xb4>)
 8006bd4:	6013      	str	r3, [r2, #0]
 8006bd6:	693b      	ldr	r3, [r7, #16]
 8006bd8:	6ada      	ldr	r2, [r3, #44]	; 0x2c
 8006bda:	4613      	mov	r3, r2
 8006bdc:	009b      	lsls	r3, r3, #2
 8006bde:	4413      	add	r3, r2
 8006be0:	009b      	lsls	r3, r3, #2
 8006be2:	4a13      	ldr	r2, [pc, #76]	; (8006c30 <xTaskRemoveFromEventList+0xb8>)
 8006be4:	441a      	add	r2, r3
 8006be6:	693b      	ldr	r3, [r7, #16]
 8006be8:	3304      	adds	r3, #4
 8006bea:	4619      	mov	r1, r3
 8006bec:	4610      	mov	r0, r2
 8006bee:	f7fe fe0c 	bl	800580a <vListInsertEnd>
 8006bf2:	e005      	b.n	8006c00 <xTaskRemoveFromEventList+0x88>
	}
	else
	{
		/* The delayed and ready lists cannot be accessed, so hold this task
		pending until the scheduler is resumed. */
		vListInsertEnd( &( xPendingReadyList ), &( pxUnblockedTCB->xEventListItem ) );
 8006bf4:	693b      	ldr	r3, [r7, #16]
 8006bf6:	3318      	adds	r3, #24
 8006bf8:	4619      	mov	r1, r3
 8006bfa:	480e      	ldr	r0, [pc, #56]	; (8006c34 <xTaskRemoveFromEventList+0xbc>)
 8006bfc:	f7fe fe05 	bl	800580a <vListInsertEnd>
	}

	if( pxUnblockedTCB->uxPriority > pxCurrentTCB->uxPriority )
 8006c00:	693b      	ldr	r3, [r7, #16]
 8006c02:	6ada      	ldr	r2, [r3, #44]	; 0x2c
 8006c04:	4b0c      	ldr	r3, [pc, #48]	; (8006c38 <xTaskRemoveFromEventList+0xc0>)
 8006c06:	681b      	ldr	r3, [r3, #0]
 8006c08:	6adb      	ldr	r3, [r3, #44]	; 0x2c
 8006c0a:	429a      	cmp	r2, r3
 8006c0c:	d905      	bls.n	8006c1a <xTaskRemoveFromEventList+0xa2>
	{
		/* Return true if the task removed from the event list has a higher
		priority than the calling task.  This allows the calling task to know if
		it should force a context switch now. */
		xReturn = pdTRUE;
 8006c0e:	2301      	movs	r3, #1
 8006c10:	617b      	str	r3, [r7, #20]

		/* Mark that a yield is pending in case the user is not using the
		"xHigherPriorityTaskWoken" parameter to an ISR safe FreeRTOS function. */
		xYieldPending = pdTRUE;
 8006c12:	4b0a      	ldr	r3, [pc, #40]	; (8006c3c <xTaskRemoveFromEventList+0xc4>)
 8006c14:	2201      	movs	r2, #1
 8006c16:	601a      	str	r2, [r3, #0]
 8006c18:	e001      	b.n	8006c1e <xTaskRemoveFromEventList+0xa6>
	}
	else
	{
		xReturn = pdFALSE;
 8006c1a:	2300      	movs	r3, #0
 8006c1c:	617b      	str	r3, [r7, #20]
	}

	return xReturn;
 8006c1e:	697b      	ldr	r3, [r7, #20]
}
 8006c20:	4618      	mov	r0, r3
 8006c22:	3718      	adds	r7, #24
 8006c24:	46bd      	mov	sp, r7
 8006c26:	bd80      	pop	{r7, pc}
 8006c28:	20000778 	.word	0x20000778
 8006c2c:	20000758 	.word	0x20000758
 8006c30:	20000654 	.word	0x20000654
 8006c34:	20000710 	.word	0x20000710
 8006c38:	20000650 	.word	0x20000650
 8006c3c:	20000764 	.word	0x20000764

08006c40 <vTaskInternalSetTimeOutState>:
	taskEXIT_CRITICAL();
}
/*-----------------------------------------------------------*/

void vTaskInternalSetTimeOutState( TimeOut_t * const pxTimeOut )
{
 8006c40:	b480      	push	{r7}
 8006c42:	b083      	sub	sp, #12
 8006c44:	af00      	add	r7, sp, #0
 8006c46:	6078      	str	r0, [r7, #4]
	/* For internal use only as it does not use a critical section. */
	pxTimeOut->xOverflowCount = xNumOfOverflows;
 8006c48:	4b06      	ldr	r3, [pc, #24]	; (8006c64 <vTaskInternalSetTimeOutState+0x24>)
 8006c4a:	681a      	ldr	r2, [r3, #0]
 8006c4c:	687b      	ldr	r3, [r7, #4]
 8006c4e:	601a      	str	r2, [r3, #0]
	pxTimeOut->xTimeOnEntering = xTickCount;
 8006c50:	4b05      	ldr	r3, [pc, #20]	; (8006c68 <vTaskInternalSetTimeOutState+0x28>)
 8006c52:	681a      	ldr	r2, [r3, #0]
 8006c54:	687b      	ldr	r3, [r7, #4]
 8006c56:	605a      	str	r2, [r3, #4]
}
 8006c58:	bf00      	nop
 8006c5a:	370c      	adds	r7, #12
 8006c5c:	46bd      	mov	sp, r7
 8006c5e:	f85d 7b04 	ldr.w	r7, [sp], #4
 8006c62:	4770      	bx	lr
 8006c64:	20000768 	.word	0x20000768
 8006c68:	20000754 	.word	0x20000754

08006c6c <xTaskCheckForTimeOut>:
/*-----------------------------------------------------------*/

BaseType_t xTaskCheckForTimeOut( TimeOut_t * const pxTimeOut, TickType_t * const pxTicksToWait )
{
 8006c6c:	b580      	push	{r7, lr}
 8006c6e:	b088      	sub	sp, #32
 8006c70:	af00      	add	r7, sp, #0
 8006c72:	6078      	str	r0, [r7, #4]
 8006c74:	6039      	str	r1, [r7, #0]
BaseType_t xReturn;

	configASSERT( pxTimeOut );
 8006c76:	687b      	ldr	r3, [r7, #4]
 8006c78:	2b00      	cmp	r3, #0
 8006c7a:	d10c      	bne.n	8006c96 <xTaskCheckForTimeOut+0x2a>
	__asm volatile
 8006c7c:	f04f 0350 	mov.w	r3, #80	; 0x50
 8006c80:	b672      	cpsid	i
 8006c82:	f383 8811 	msr	BASEPRI, r3
 8006c86:	f3bf 8f6f 	isb	sy
 8006c8a:	f3bf 8f4f 	dsb	sy
 8006c8e:	b662      	cpsie	i
 8006c90:	613b      	str	r3, [r7, #16]
}
 8006c92:	bf00      	nop
 8006c94:	e7fe      	b.n	8006c94 <xTaskCheckForTimeOut+0x28>
	configASSERT( pxTicksToWait );
 8006c96:	683b      	ldr	r3, [r7, #0]
 8006c98:	2b00      	cmp	r3, #0
 8006c9a:	d10c      	bne.n	8006cb6 <xTaskCheckForTimeOut+0x4a>
	__asm volatile
 8006c9c:	f04f 0350 	mov.w	r3, #80	; 0x50
 8006ca0:	b672      	cpsid	i
 8006ca2:	f383 8811 	msr	BASEPRI, r3
 8006ca6:	f3bf 8f6f 	isb	sy
 8006caa:	f3bf 8f4f 	dsb	sy
 8006cae:	b662      	cpsie	i
 8006cb0:	60fb      	str	r3, [r7, #12]
}
 8006cb2:	bf00      	nop
 8006cb4:	e7fe      	b.n	8006cb4 <xTaskCheckForTimeOut+0x48>

	taskENTER_CRITICAL();
 8006cb6:	f000 fb19 	bl	80072ec <vPortEnterCritical>
	{
		/* Minor optimisation.  The tick count cannot change in this block. */
		const TickType_t xConstTickCount = xTickCount;
 8006cba:	4b1d      	ldr	r3, [pc, #116]	; (8006d30 <xTaskCheckForTimeOut+0xc4>)
 8006cbc:	681b      	ldr	r3, [r3, #0]
 8006cbe:	61bb      	str	r3, [r7, #24]
		const TickType_t xElapsedTime = xConstTickCount - pxTimeOut->xTimeOnEntering;
 8006cc0:	687b      	ldr	r3, [r7, #4]
 8006cc2:	685b      	ldr	r3, [r3, #4]
 8006cc4:	69ba      	ldr	r2, [r7, #24]
 8006cc6:	1ad3      	subs	r3, r2, r3
 8006cc8:	617b      	str	r3, [r7, #20]
			}
			else
		#endif

		#if ( INCLUDE_vTaskSuspend == 1 )
			if( *pxTicksToWait == portMAX_DELAY )
 8006cca:	683b      	ldr	r3, [r7, #0]
 8006ccc:	681b      	ldr	r3, [r3, #0]
 8006cce:	f1b3 3fff 	cmp.w	r3, #4294967295
 8006cd2:	d102      	bne.n	8006cda <xTaskCheckForTimeOut+0x6e>
			{
				/* If INCLUDE_vTaskSuspend is set to 1 and the block time
				specified is the maximum block time then the task should block
				indefinitely, and therefore never time out. */
				xReturn = pdFALSE;
 8006cd4:	2300      	movs	r3, #0
 8006cd6:	61fb      	str	r3, [r7, #28]
 8006cd8:	e023      	b.n	8006d22 <xTaskCheckForTimeOut+0xb6>
			}
			else
		#endif

		if( ( xNumOfOverflows != pxTimeOut->xOverflowCount ) && ( xConstTickCount >= pxTimeOut->xTimeOnEntering ) ) /*lint !e525 Indentation preferred as is to make code within pre-processor directives clearer. */
 8006cda:	687b      	ldr	r3, [r7, #4]
 8006cdc:	681a      	ldr	r2, [r3, #0]
 8006cde:	4b15      	ldr	r3, [pc, #84]	; (8006d34 <xTaskCheckForTimeOut+0xc8>)
 8006ce0:	681b      	ldr	r3, [r3, #0]
 8006ce2:	429a      	cmp	r2, r3
 8006ce4:	d007      	beq.n	8006cf6 <xTaskCheckForTimeOut+0x8a>
 8006ce6:	687b      	ldr	r3, [r7, #4]
 8006ce8:	685b      	ldr	r3, [r3, #4]
 8006cea:	69ba      	ldr	r2, [r7, #24]
 8006cec:	429a      	cmp	r2, r3
 8006cee:	d302      	bcc.n	8006cf6 <xTaskCheckForTimeOut+0x8a>
			/* The tick count is greater than the time at which
			vTaskSetTimeout() was called, but has also overflowed since
			vTaskSetTimeOut() was called.  It must have wrapped all the way
			around and gone past again. This passed since vTaskSetTimeout()
			was called. */
			xReturn = pdTRUE;
 8006cf0:	2301      	movs	r3, #1
 8006cf2:	61fb      	str	r3, [r7, #28]
 8006cf4:	e015      	b.n	8006d22 <xTaskCheckForTimeOut+0xb6>
		}
		else if( xElapsedTime < *pxTicksToWait ) /*lint !e961 Explicit casting is only redundant with some compilers, whereas others require it to prevent integer conversion errors. */
 8006cf6:	683b      	ldr	r3, [r7, #0]
 8006cf8:	681b      	ldr	r3, [r3, #0]
 8006cfa:	697a      	ldr	r2, [r7, #20]
 8006cfc:	429a      	cmp	r2, r3
 8006cfe:	d20b      	bcs.n	8006d18 <xTaskCheckForTimeOut+0xac>
		{
			/* Not a genuine timeout. Adjust parameters for time remaining. */
			*pxTicksToWait -= xElapsedTime;
 8006d00:	683b      	ldr	r3, [r7, #0]
 8006d02:	681a      	ldr	r2, [r3, #0]
 8006d04:	697b      	ldr	r3, [r7, #20]
 8006d06:	1ad2      	subs	r2, r2, r3
 8006d08:	683b      	ldr	r3, [r7, #0]
 8006d0a:	601a      	str	r2, [r3, #0]
			vTaskInternalSetTimeOutState( pxTimeOut );
 8006d0c:	6878      	ldr	r0, [r7, #4]
 8006d0e:	f7ff ff97 	bl	8006c40 <vTaskInternalSetTimeOutState>
			xReturn = pdFALSE;
 8006d12:	2300      	movs	r3, #0
 8006d14:	61fb      	str	r3, [r7, #28]
 8006d16:	e004      	b.n	8006d22 <xTaskCheckForTimeOut+0xb6>
		}
		else
		{
			*pxTicksToWait = 0;
 8006d18:	683b      	ldr	r3, [r7, #0]
 8006d1a:	2200      	movs	r2, #0
 8006d1c:	601a      	str	r2, [r3, #0]
			xReturn = pdTRUE;
 8006d1e:	2301      	movs	r3, #1
 8006d20:	61fb      	str	r3, [r7, #28]
		}
	}
	taskEXIT_CRITICAL();
 8006d22:	f000 fb17 	bl	8007354 <vPortExitCritical>

	return xReturn;
 8006d26:	69fb      	ldr	r3, [r7, #28]
}
 8006d28:	4618      	mov	r0, r3
 8006d2a:	3720      	adds	r7, #32
 8006d2c:	46bd      	mov	sp, r7
 8006d2e:	bd80      	pop	{r7, pc}
 8006d30:	20000754 	.word	0x20000754
 8006d34:	20000768 	.word	0x20000768

08006d38 <vTaskMissedYield>:
/*-----------------------------------------------------------*/

void vTaskMissedYield( void )
{
 8006d38:	b480      	push	{r7}
 8006d3a:	af00      	add	r7, sp, #0
	xYieldPending = pdTRUE;
 8006d3c:	4b03      	ldr	r3, [pc, #12]	; (8006d4c <vTaskMissedYield+0x14>)
 8006d3e:	2201      	movs	r2, #1
 8006d40:	601a      	str	r2, [r3, #0]
}
 8006d42:	bf00      	nop
 8006d44:	46bd      	mov	sp, r7
 8006d46:	f85d 7b04 	ldr.w	r7, [sp], #4
 8006d4a:	4770      	bx	lr
 8006d4c:	20000764 	.word	0x20000764

08006d50 <prvIdleTask>:
 *
 * void prvIdleTask( void *pvParameters );
 *
 */
static portTASK_FUNCTION( prvIdleTask, pvParameters )
{
 8006d50:	b580      	push	{r7, lr}
 8006d52:	b082      	sub	sp, #8
 8006d54:	af00      	add	r7, sp, #0
 8006d56:	6078      	str	r0, [r7, #4]

	for( ;; )
	{
		/* See if any tasks have deleted themselves - if so then the idle task
		is responsible for freeing the deleted task's TCB and stack. */
		prvCheckTasksWaitingTermination();
 8006d58:	f000 f852 	bl	8006e00 <prvCheckTasksWaitingTermination>

			A critical region is not required here as we are just reading from
			the list, and an occasional incorrect value will not matter.  If
			the ready list at the idle priority contains more than one task
			then a task other than the idle task is ready to execute. */
			if( listCURRENT_LIST_LENGTH( &( pxReadyTasksLists[ tskIDLE_PRIORITY ] ) ) > ( UBaseType_t ) 1 )
 8006d5c:	4b06      	ldr	r3, [pc, #24]	; (8006d78 <prvIdleTask+0x28>)
 8006d5e:	681b      	ldr	r3, [r3, #0]
 8006d60:	2b01      	cmp	r3, #1
 8006d62:	d9f9      	bls.n	8006d58 <prvIdleTask+0x8>
			{
				taskYIELD();
 8006d64:	4b05      	ldr	r3, [pc, #20]	; (8006d7c <prvIdleTask+0x2c>)
 8006d66:	f04f 5280 	mov.w	r2, #268435456	; 0x10000000
 8006d6a:	601a      	str	r2, [r3, #0]
 8006d6c:	f3bf 8f4f 	dsb	sy
 8006d70:	f3bf 8f6f 	isb	sy
		prvCheckTasksWaitingTermination();
 8006d74:	e7f0      	b.n	8006d58 <prvIdleTask+0x8>
 8006d76:	bf00      	nop
 8006d78:	20000654 	.word	0x20000654
 8006d7c:	e000ed04 	.word	0xe000ed04

08006d80 <prvInitialiseTaskLists>:

#endif /* portUSING_MPU_WRAPPERS */
/*-----------------------------------------------------------*/

static void prvInitialiseTaskLists( void )
{
 8006d80:	b580      	push	{r7, lr}
 8006d82:	b082      	sub	sp, #8
 8006d84:	af00      	add	r7, sp, #0
UBaseType_t uxPriority;

	for( uxPriority = ( UBaseType_t ) 0U; uxPriority < ( UBaseType_t ) configMAX_PRIORITIES; uxPriority++ )
 8006d86:	2300      	movs	r3, #0
 8006d88:	607b      	str	r3, [r7, #4]
 8006d8a:	e00c      	b.n	8006da6 <prvInitialiseTaskLists+0x26>
	{
		vListInitialise( &( pxReadyTasksLists[ uxPriority ] ) );
 8006d8c:	687a      	ldr	r2, [r7, #4]
 8006d8e:	4613      	mov	r3, r2
 8006d90:	009b      	lsls	r3, r3, #2
 8006d92:	4413      	add	r3, r2
 8006d94:	009b      	lsls	r3, r3, #2
 8006d96:	4a12      	ldr	r2, [pc, #72]	; (8006de0 <prvInitialiseTaskLists+0x60>)
 8006d98:	4413      	add	r3, r2
 8006d9a:	4618      	mov	r0, r3
 8006d9c:	f7fe fd08 	bl	80057b0 <vListInitialise>
	for( uxPriority = ( UBaseType_t ) 0U; uxPriority < ( UBaseType_t ) configMAX_PRIORITIES; uxPriority++ )
 8006da0:	687b      	ldr	r3, [r7, #4]
 8006da2:	3301      	adds	r3, #1
 8006da4:	607b      	str	r3, [r7, #4]
 8006da6:	687b      	ldr	r3, [r7, #4]
 8006da8:	2b06      	cmp	r3, #6
 8006daa:	d9ef      	bls.n	8006d8c <prvInitialiseTaskLists+0xc>
	}

	vListInitialise( &xDelayedTaskList1 );
 8006dac:	480d      	ldr	r0, [pc, #52]	; (8006de4 <prvInitialiseTaskLists+0x64>)
 8006dae:	f7fe fcff 	bl	80057b0 <vListInitialise>
	vListInitialise( &xDelayedTaskList2 );
 8006db2:	480d      	ldr	r0, [pc, #52]	; (8006de8 <prvInitialiseTaskLists+0x68>)
 8006db4:	f7fe fcfc 	bl	80057b0 <vListInitialise>
	vListInitialise( &xPendingReadyList );
 8006db8:	480c      	ldr	r0, [pc, #48]	; (8006dec <prvInitialiseTaskLists+0x6c>)
 8006dba:	f7fe fcf9 	bl	80057b0 <vListInitialise>

	#if ( INCLUDE_vTaskDelete == 1 )
	{
		vListInitialise( &xTasksWaitingTermination );
 8006dbe:	480c      	ldr	r0, [pc, #48]	; (8006df0 <prvInitialiseTaskLists+0x70>)
 8006dc0:	f7fe fcf6 	bl	80057b0 <vListInitialise>
	}
	#endif /* INCLUDE_vTaskDelete */

	#if ( INCLUDE_vTaskSuspend == 1 )
	{
		vListInitialise( &xSuspendedTaskList );
 8006dc4:	480b      	ldr	r0, [pc, #44]	; (8006df4 <prvInitialiseTaskLists+0x74>)
 8006dc6:	f7fe fcf3 	bl	80057b0 <vListInitialise>
	}
	#endif /* INCLUDE_vTaskSuspend */

	/* Start with pxDelayedTaskList using list1 and the pxOverflowDelayedTaskList
	using list2. */
	pxDelayedTaskList = &xDelayedTaskList1;
 8006dca:	4b0b      	ldr	r3, [pc, #44]	; (8006df8 <prvInitialiseTaskLists+0x78>)
 8006dcc:	4a05      	ldr	r2, [pc, #20]	; (8006de4 <prvInitialiseTaskLists+0x64>)
 8006dce:	601a      	str	r2, [r3, #0]
	pxOverflowDelayedTaskList = &xDelayedTaskList2;
 8006dd0:	4b0a      	ldr	r3, [pc, #40]	; (8006dfc <prvInitialiseTaskLists+0x7c>)
 8006dd2:	4a05      	ldr	r2, [pc, #20]	; (8006de8 <prvInitialiseTaskLists+0x68>)
 8006dd4:	601a      	str	r2, [r3, #0]
}
 8006dd6:	bf00      	nop
 8006dd8:	3708      	adds	r7, #8
 8006dda:	46bd      	mov	sp, r7
 8006ddc:	bd80      	pop	{r7, pc}
 8006dde:	bf00      	nop
 8006de0:	20000654 	.word	0x20000654
 8006de4:	200006e0 	.word	0x200006e0
 8006de8:	200006f4 	.word	0x200006f4
 8006dec:	20000710 	.word	0x20000710
 8006df0:	20000724 	.word	0x20000724
 8006df4:	2000073c 	.word	0x2000073c
 8006df8:	20000708 	.word	0x20000708
 8006dfc:	2000070c 	.word	0x2000070c

08006e00 <prvCheckTasksWaitingTermination>:
/*-----------------------------------------------------------*/

static void prvCheckTasksWaitingTermination( void )
{
 8006e00:	b580      	push	{r7, lr}
 8006e02:	b082      	sub	sp, #8
 8006e04:	af00      	add	r7, sp, #0
	{
		TCB_t *pxTCB;

		/* uxDeletedTasksWaitingCleanUp is used to prevent taskENTER_CRITICAL()
		being called too often in the idle task. */
		while( uxDeletedTasksWaitingCleanUp > ( UBaseType_t ) 0U )
 8006e06:	e019      	b.n	8006e3c <prvCheckTasksWaitingTermination+0x3c>
		{
			taskENTER_CRITICAL();
 8006e08:	f000 fa70 	bl	80072ec <vPortEnterCritical>
			{
				pxTCB = listGET_OWNER_OF_HEAD_ENTRY( ( &xTasksWaitingTermination ) ); /*lint !e9079 void * is used as this macro is used with timers and co-routines too.  Alignment is known to be fine as the type of the pointer stored and retrieved is the same. */
 8006e0c:	4b10      	ldr	r3, [pc, #64]	; (8006e50 <prvCheckTasksWaitingTermination+0x50>)
 8006e0e:	68db      	ldr	r3, [r3, #12]
 8006e10:	68db      	ldr	r3, [r3, #12]
 8006e12:	607b      	str	r3, [r7, #4]
				( void ) uxListRemove( &( pxTCB->xStateListItem ) );
 8006e14:	687b      	ldr	r3, [r7, #4]
 8006e16:	3304      	adds	r3, #4
 8006e18:	4618      	mov	r0, r3
 8006e1a:	f7fe fd53 	bl	80058c4 <uxListRemove>
				--uxCurrentNumberOfTasks;
 8006e1e:	4b0d      	ldr	r3, [pc, #52]	; (8006e54 <prvCheckTasksWaitingTermination+0x54>)
 8006e20:	681b      	ldr	r3, [r3, #0]
 8006e22:	3b01      	subs	r3, #1
 8006e24:	4a0b      	ldr	r2, [pc, #44]	; (8006e54 <prvCheckTasksWaitingTermination+0x54>)
 8006e26:	6013      	str	r3, [r2, #0]
				--uxDeletedTasksWaitingCleanUp;
 8006e28:	4b0b      	ldr	r3, [pc, #44]	; (8006e58 <prvCheckTasksWaitingTermination+0x58>)
 8006e2a:	681b      	ldr	r3, [r3, #0]
 8006e2c:	3b01      	subs	r3, #1
 8006e2e:	4a0a      	ldr	r2, [pc, #40]	; (8006e58 <prvCheckTasksWaitingTermination+0x58>)
 8006e30:	6013      	str	r3, [r2, #0]
			}
			taskEXIT_CRITICAL();
 8006e32:	f000 fa8f 	bl	8007354 <vPortExitCritical>

			prvDeleteTCB( pxTCB );
 8006e36:	6878      	ldr	r0, [r7, #4]
 8006e38:	f000 f810 	bl	8006e5c <prvDeleteTCB>
		while( uxDeletedTasksWaitingCleanUp > ( UBaseType_t ) 0U )
 8006e3c:	4b06      	ldr	r3, [pc, #24]	; (8006e58 <prvCheckTasksWaitingTermination+0x58>)
 8006e3e:	681b      	ldr	r3, [r3, #0]
 8006e40:	2b00      	cmp	r3, #0
 8006e42:	d1e1      	bne.n	8006e08 <prvCheckTasksWaitingTermination+0x8>
		}
	}
	#endif /* INCLUDE_vTaskDelete */
}
 8006e44:	bf00      	nop
 8006e46:	bf00      	nop
 8006e48:	3708      	adds	r7, #8
 8006e4a:	46bd      	mov	sp, r7
 8006e4c:	bd80      	pop	{r7, pc}
 8006e4e:	bf00      	nop
 8006e50:	20000724 	.word	0x20000724
 8006e54:	20000750 	.word	0x20000750
 8006e58:	20000738 	.word	0x20000738

08006e5c <prvDeleteTCB>:
/*-----------------------------------------------------------*/

#if ( INCLUDE_vTaskDelete == 1 )

	static void prvDeleteTCB( TCB_t *pxTCB )
	{
 8006e5c:	b580      	push	{r7, lr}
 8006e5e:	b082      	sub	sp, #8
 8006e60:	af00      	add	r7, sp, #0
 8006e62:	6078      	str	r0, [r7, #4]

		#if( ( configSUPPORT_DYNAMIC_ALLOCATION == 1 ) && ( configSUPPORT_STATIC_ALLOCATION == 0 ) && ( portUSING_MPU_WRAPPERS == 0 ) )
		{
			/* The task can only have been allocated dynamically - free both
			the stack and TCB. */
			vPortFree( pxTCB->pxStack );
 8006e64:	687b      	ldr	r3, [r7, #4]
 8006e66:	6b1b      	ldr	r3, [r3, #48]	; 0x30
 8006e68:	4618      	mov	r0, r3
 8006e6a:	f000 fc35 	bl	80076d8 <vPortFree>
			vPortFree( pxTCB );
 8006e6e:	6878      	ldr	r0, [r7, #4]
 8006e70:	f000 fc32 	bl	80076d8 <vPortFree>
				configASSERT( pxTCB->ucStaticallyAllocated == tskSTATICALLY_ALLOCATED_STACK_AND_TCB	);
				mtCOVERAGE_TEST_MARKER();
			}
		}
		#endif /* configSUPPORT_DYNAMIC_ALLOCATION */
	}
 8006e74:	bf00      	nop
 8006e76:	3708      	adds	r7, #8
 8006e78:	46bd      	mov	sp, r7
 8006e7a:	bd80      	pop	{r7, pc}

08006e7c <prvResetNextTaskUnblockTime>:

#endif /* INCLUDE_vTaskDelete */
/*-----------------------------------------------------------*/

static void prvResetNextTaskUnblockTime( void )
{
 8006e7c:	b480      	push	{r7}
 8006e7e:	b083      	sub	sp, #12
 8006e80:	af00      	add	r7, sp, #0
TCB_t *pxTCB;

	if( listLIST_IS_EMPTY( pxDelayedTaskList ) != pdFALSE )
 8006e82:	4b0c      	ldr	r3, [pc, #48]	; (8006eb4 <prvResetNextTaskUnblockTime+0x38>)
 8006e84:	681b      	ldr	r3, [r3, #0]
 8006e86:	681b      	ldr	r3, [r3, #0]
 8006e88:	2b00      	cmp	r3, #0
 8006e8a:	d104      	bne.n	8006e96 <prvResetNextTaskUnblockTime+0x1a>
	{
		/* The new current delayed list is empty.  Set xNextTaskUnblockTime to
		the maximum possible value so it is	extremely unlikely that the
		if( xTickCount >= xNextTaskUnblockTime ) test will pass until
		there is an item in the delayed list. */
		xNextTaskUnblockTime = portMAX_DELAY;
 8006e8c:	4b0a      	ldr	r3, [pc, #40]	; (8006eb8 <prvResetNextTaskUnblockTime+0x3c>)
 8006e8e:	f04f 32ff 	mov.w	r2, #4294967295
 8006e92:	601a      	str	r2, [r3, #0]
		which the task at the head of the delayed list should be removed
		from the Blocked state. */
		( pxTCB ) = listGET_OWNER_OF_HEAD_ENTRY( pxDelayedTaskList ); /*lint !e9079 void * is used as this macro is used with timers and co-routines too.  Alignment is known to be fine as the type of the pointer stored and retrieved is the same. */
		xNextTaskUnblockTime = listGET_LIST_ITEM_VALUE( &( ( pxTCB )->xStateListItem ) );
	}
}
 8006e94:	e008      	b.n	8006ea8 <prvResetNextTaskUnblockTime+0x2c>
		( pxTCB ) = listGET_OWNER_OF_HEAD_ENTRY( pxDelayedTaskList ); /*lint !e9079 void * is used as this macro is used with timers and co-routines too.  Alignment is known to be fine as the type of the pointer stored and retrieved is the same. */
 8006e96:	4b07      	ldr	r3, [pc, #28]	; (8006eb4 <prvResetNextTaskUnblockTime+0x38>)
 8006e98:	681b      	ldr	r3, [r3, #0]
 8006e9a:	68db      	ldr	r3, [r3, #12]
 8006e9c:	68db      	ldr	r3, [r3, #12]
 8006e9e:	607b      	str	r3, [r7, #4]
		xNextTaskUnblockTime = listGET_LIST_ITEM_VALUE( &( ( pxTCB )->xStateListItem ) );
 8006ea0:	687b      	ldr	r3, [r7, #4]
 8006ea2:	685b      	ldr	r3, [r3, #4]
 8006ea4:	4a04      	ldr	r2, [pc, #16]	; (8006eb8 <prvResetNextTaskUnblockTime+0x3c>)
 8006ea6:	6013      	str	r3, [r2, #0]
}
 8006ea8:	bf00      	nop
 8006eaa:	370c      	adds	r7, #12
 8006eac:	46bd      	mov	sp, r7
 8006eae:	f85d 7b04 	ldr.w	r7, [sp], #4
 8006eb2:	4770      	bx	lr
 8006eb4:	20000708 	.word	0x20000708
 8006eb8:	20000770 	.word	0x20000770

08006ebc <xTaskGetSchedulerState>:
/*-----------------------------------------------------------*/

#if ( ( INCLUDE_xTaskGetSchedulerState == 1 ) || ( configUSE_TIMERS == 1 ) )

	BaseType_t xTaskGetSchedulerState( void )
	{
 8006ebc:	b480      	push	{r7}
 8006ebe:	b083      	sub	sp, #12
 8006ec0:	af00      	add	r7, sp, #0
	BaseType_t xReturn;

		if( xSchedulerRunning == pdFALSE )
 8006ec2:	4b0b      	ldr	r3, [pc, #44]	; (8006ef0 <xTaskGetSchedulerState+0x34>)
 8006ec4:	681b      	ldr	r3, [r3, #0]
 8006ec6:	2b00      	cmp	r3, #0
 8006ec8:	d102      	bne.n	8006ed0 <xTaskGetSchedulerState+0x14>
		{
			xReturn = taskSCHEDULER_NOT_STARTED;
 8006eca:	2301      	movs	r3, #1
 8006ecc:	607b      	str	r3, [r7, #4]
 8006ece:	e008      	b.n	8006ee2 <xTaskGetSchedulerState+0x26>
		}
		else
		{
			if( uxSchedulerSuspended == ( UBaseType_t ) pdFALSE )
 8006ed0:	4b08      	ldr	r3, [pc, #32]	; (8006ef4 <xTaskGetSchedulerState+0x38>)
 8006ed2:	681b      	ldr	r3, [r3, #0]
 8006ed4:	2b00      	cmp	r3, #0
 8006ed6:	d102      	bne.n	8006ede <xTaskGetSchedulerState+0x22>
			{
				xReturn = taskSCHEDULER_RUNNING;
 8006ed8:	2302      	movs	r3, #2
 8006eda:	607b      	str	r3, [r7, #4]
 8006edc:	e001      	b.n	8006ee2 <xTaskGetSchedulerState+0x26>
			}
			else
			{
				xReturn = taskSCHEDULER_SUSPENDED;
 8006ede:	2300      	movs	r3, #0
 8006ee0:	607b      	str	r3, [r7, #4]
			}
		}

		return xReturn;
 8006ee2:	687b      	ldr	r3, [r7, #4]
	}
 8006ee4:	4618      	mov	r0, r3
 8006ee6:	370c      	adds	r7, #12
 8006ee8:	46bd      	mov	sp, r7
 8006eea:	f85d 7b04 	ldr.w	r7, [sp], #4
 8006eee:	4770      	bx	lr
 8006ef0:	2000075c 	.word	0x2000075c
 8006ef4:	20000778 	.word	0x20000778

08006ef8 <xTaskPriorityDisinherit>:
/*-----------------------------------------------------------*/

#if ( configUSE_MUTEXES == 1 )

	BaseType_t xTaskPriorityDisinherit( TaskHandle_t const pxMutexHolder )
	{
 8006ef8:	b580      	push	{r7, lr}
 8006efa:	b086      	sub	sp, #24
 8006efc:	af00      	add	r7, sp, #0
 8006efe:	6078      	str	r0, [r7, #4]
	TCB_t * const pxTCB = pxMutexHolder;
 8006f00:	687b      	ldr	r3, [r7, #4]
 8006f02:	613b      	str	r3, [r7, #16]
	BaseType_t xReturn = pdFALSE;
 8006f04:	2300      	movs	r3, #0
 8006f06:	617b      	str	r3, [r7, #20]

		if( pxMutexHolder != NULL )
 8006f08:	687b      	ldr	r3, [r7, #4]
 8006f0a:	2b00      	cmp	r3, #0
 8006f0c:	d072      	beq.n	8006ff4 <xTaskPriorityDisinherit+0xfc>
		{
			/* A task can only have an inherited priority if it holds the mutex.
			If the mutex is held by a task then it cannot be given from an
			interrupt, and if a mutex is given by the holding task then it must
			be the running state task. */
			configASSERT( pxTCB == pxCurrentTCB );
 8006f0e:	4b3c      	ldr	r3, [pc, #240]	; (8007000 <xTaskPriorityDisinherit+0x108>)
 8006f10:	681b      	ldr	r3, [r3, #0]
 8006f12:	693a      	ldr	r2, [r7, #16]
 8006f14:	429a      	cmp	r2, r3
 8006f16:	d00c      	beq.n	8006f32 <xTaskPriorityDisinherit+0x3a>
	__asm volatile
 8006f18:	f04f 0350 	mov.w	r3, #80	; 0x50
 8006f1c:	b672      	cpsid	i
 8006f1e:	f383 8811 	msr	BASEPRI, r3
 8006f22:	f3bf 8f6f 	isb	sy
 8006f26:	f3bf 8f4f 	dsb	sy
 8006f2a:	b662      	cpsie	i
 8006f2c:	60fb      	str	r3, [r7, #12]
}
 8006f2e:	bf00      	nop
 8006f30:	e7fe      	b.n	8006f30 <xTaskPriorityDisinherit+0x38>
			configASSERT( pxTCB->uxMutexesHeld );
 8006f32:	693b      	ldr	r3, [r7, #16]
 8006f34:	6c9b      	ldr	r3, [r3, #72]	; 0x48
 8006f36:	2b00      	cmp	r3, #0
 8006f38:	d10c      	bne.n	8006f54 <xTaskPriorityDisinherit+0x5c>
	__asm volatile
 8006f3a:	f04f 0350 	mov.w	r3, #80	; 0x50
 8006f3e:	b672      	cpsid	i
 8006f40:	f383 8811 	msr	BASEPRI, r3
 8006f44:	f3bf 8f6f 	isb	sy
 8006f48:	f3bf 8f4f 	dsb	sy
 8006f4c:	b662      	cpsie	i
 8006f4e:	60bb      	str	r3, [r7, #8]
}
 8006f50:	bf00      	nop
 8006f52:	e7fe      	b.n	8006f52 <xTaskPriorityDisinherit+0x5a>
			( pxTCB->uxMutexesHeld )--;
 8006f54:	693b      	ldr	r3, [r7, #16]
 8006f56:	6c9b      	ldr	r3, [r3, #72]	; 0x48
 8006f58:	1e5a      	subs	r2, r3, #1
 8006f5a:	693b      	ldr	r3, [r7, #16]
 8006f5c:	649a      	str	r2, [r3, #72]	; 0x48

			/* Has the holder of the mutex inherited the priority of another
			task? */
			if( pxTCB->uxPriority != pxTCB->uxBasePriority )
 8006f5e:	693b      	ldr	r3, [r7, #16]
 8006f60:	6ada      	ldr	r2, [r3, #44]	; 0x2c
 8006f62:	693b      	ldr	r3, [r7, #16]
 8006f64:	6c5b      	ldr	r3, [r3, #68]	; 0x44
 8006f66:	429a      	cmp	r2, r3
 8006f68:	d044      	beq.n	8006ff4 <xTaskPriorityDisinherit+0xfc>
			{
				/* Only disinherit if no other mutexes are held. */
				if( pxTCB->uxMutexesHeld == ( UBaseType_t ) 0 )
 8006f6a:	693b      	ldr	r3, [r7, #16]
 8006f6c:	6c9b      	ldr	r3, [r3, #72]	; 0x48
 8006f6e:	2b00      	cmp	r3, #0
 8006f70:	d140      	bne.n	8006ff4 <xTaskPriorityDisinherit+0xfc>
					/* A task can only have an inherited priority if it holds
					the mutex.  If the mutex is held by a task then it cannot be
					given from an interrupt, and if a mutex is given by the
					holding task then it must be the running state task.  Remove
					the holding task from the ready list. */
					if( uxListRemove( &( pxTCB->xStateListItem ) ) == ( UBaseType_t ) 0 )
 8006f72:	693b      	ldr	r3, [r7, #16]
 8006f74:	3304      	adds	r3, #4
 8006f76:	4618      	mov	r0, r3
 8006f78:	f7fe fca4 	bl	80058c4 <uxListRemove>
 8006f7c:	4603      	mov	r3, r0
 8006f7e:	2b00      	cmp	r3, #0
 8006f80:	d115      	bne.n	8006fae <xTaskPriorityDisinherit+0xb6>
					{
						taskRESET_READY_PRIORITY( pxTCB->uxPriority );
 8006f82:	693b      	ldr	r3, [r7, #16]
 8006f84:	6ada      	ldr	r2, [r3, #44]	; 0x2c
 8006f86:	491f      	ldr	r1, [pc, #124]	; (8007004 <xTaskPriorityDisinherit+0x10c>)
 8006f88:	4613      	mov	r3, r2
 8006f8a:	009b      	lsls	r3, r3, #2
 8006f8c:	4413      	add	r3, r2
 8006f8e:	009b      	lsls	r3, r3, #2
 8006f90:	440b      	add	r3, r1
 8006f92:	681b      	ldr	r3, [r3, #0]
 8006f94:	2b00      	cmp	r3, #0
 8006f96:	d10a      	bne.n	8006fae <xTaskPriorityDisinherit+0xb6>
 8006f98:	693b      	ldr	r3, [r7, #16]
 8006f9a:	6adb      	ldr	r3, [r3, #44]	; 0x2c
 8006f9c:	2201      	movs	r2, #1
 8006f9e:	fa02 f303 	lsl.w	r3, r2, r3
 8006fa2:	43da      	mvns	r2, r3
 8006fa4:	4b18      	ldr	r3, [pc, #96]	; (8007008 <xTaskPriorityDisinherit+0x110>)
 8006fa6:	681b      	ldr	r3, [r3, #0]
 8006fa8:	4013      	ands	r3, r2
 8006faa:	4a17      	ldr	r2, [pc, #92]	; (8007008 <xTaskPriorityDisinherit+0x110>)
 8006fac:	6013      	str	r3, [r2, #0]
					}

					/* Disinherit the priority before adding the task into the
					new	ready list. */
					traceTASK_PRIORITY_DISINHERIT( pxTCB, pxTCB->uxBasePriority );
					pxTCB->uxPriority = pxTCB->uxBasePriority;
 8006fae:	693b      	ldr	r3, [r7, #16]
 8006fb0:	6c5a      	ldr	r2, [r3, #68]	; 0x44
 8006fb2:	693b      	ldr	r3, [r7, #16]
 8006fb4:	62da      	str	r2, [r3, #44]	; 0x2c

					/* Reset the event list item value.  It cannot be in use for
					any other purpose if this task is running, and it must be
					running to give back the mutex. */
					listSET_LIST_ITEM_VALUE( &( pxTCB->xEventListItem ), ( TickType_t ) configMAX_PRIORITIES - ( TickType_t ) pxTCB->uxPriority ); /*lint !e961 MISRA exception as the casts are only redundant for some ports. */
 8006fb6:	693b      	ldr	r3, [r7, #16]
 8006fb8:	6adb      	ldr	r3, [r3, #44]	; 0x2c
 8006fba:	f1c3 0207 	rsb	r2, r3, #7
 8006fbe:	693b      	ldr	r3, [r7, #16]
 8006fc0:	619a      	str	r2, [r3, #24]
					prvAddTaskToReadyList( pxTCB );
 8006fc2:	693b      	ldr	r3, [r7, #16]
 8006fc4:	6adb      	ldr	r3, [r3, #44]	; 0x2c
 8006fc6:	2201      	movs	r2, #1
 8006fc8:	409a      	lsls	r2, r3
 8006fca:	4b0f      	ldr	r3, [pc, #60]	; (8007008 <xTaskPriorityDisinherit+0x110>)
 8006fcc:	681b      	ldr	r3, [r3, #0]
 8006fce:	4313      	orrs	r3, r2
 8006fd0:	4a0d      	ldr	r2, [pc, #52]	; (8007008 <xTaskPriorityDisinherit+0x110>)
 8006fd2:	6013      	str	r3, [r2, #0]
 8006fd4:	693b      	ldr	r3, [r7, #16]
 8006fd6:	6ada      	ldr	r2, [r3, #44]	; 0x2c
 8006fd8:	4613      	mov	r3, r2
 8006fda:	009b      	lsls	r3, r3, #2
 8006fdc:	4413      	add	r3, r2
 8006fde:	009b      	lsls	r3, r3, #2
 8006fe0:	4a08      	ldr	r2, [pc, #32]	; (8007004 <xTaskPriorityDisinherit+0x10c>)
 8006fe2:	441a      	add	r2, r3
 8006fe4:	693b      	ldr	r3, [r7, #16]
 8006fe6:	3304      	adds	r3, #4
 8006fe8:	4619      	mov	r1, r3
 8006fea:	4610      	mov	r0, r2
 8006fec:	f7fe fc0d 	bl	800580a <vListInsertEnd>
					in an order different to that in which they were taken.
					If a context switch did not occur when the first mutex was
					returned, even if a task was waiting on it, then a context
					switch should occur when the last mutex is returned whether
					a task is waiting on it or not. */
					xReturn = pdTRUE;
 8006ff0:	2301      	movs	r3, #1
 8006ff2:	617b      	str	r3, [r7, #20]
		else
		{
			mtCOVERAGE_TEST_MARKER();
		}

		return xReturn;
 8006ff4:	697b      	ldr	r3, [r7, #20]
	}
 8006ff6:	4618      	mov	r0, r3
 8006ff8:	3718      	adds	r7, #24
 8006ffa:	46bd      	mov	sp, r7
 8006ffc:	bd80      	pop	{r7, pc}
 8006ffe:	bf00      	nop
 8007000:	20000650 	.word	0x20000650
 8007004:	20000654 	.word	0x20000654
 8007008:	20000758 	.word	0x20000758

0800700c <prvAddCurrentTaskToDelayedList>:
	}
#endif
/*-----------------------------------------------------------*/

static void prvAddCurrentTaskToDelayedList( TickType_t xTicksToWait, const BaseType_t xCanBlockIndefinitely )
{
 800700c:	b580      	push	{r7, lr}
 800700e:	b084      	sub	sp, #16
 8007010:	af00      	add	r7, sp, #0
 8007012:	6078      	str	r0, [r7, #4]
 8007014:	6039      	str	r1, [r7, #0]
TickType_t xTimeToWake;
const TickType_t xConstTickCount = xTickCount;
 8007016:	4b29      	ldr	r3, [pc, #164]	; (80070bc <prvAddCurrentTaskToDelayedList+0xb0>)
 8007018:	681b      	ldr	r3, [r3, #0]
 800701a:	60fb      	str	r3, [r7, #12]
	}
	#endif

	/* Remove the task from the ready list before adding it to the blocked list
	as the same list item is used for both lists. */
	if( uxListRemove( &( pxCurrentTCB->xStateListItem ) ) == ( UBaseType_t ) 0 )
 800701c:	4b28      	ldr	r3, [pc, #160]	; (80070c0 <prvAddCurrentTaskToDelayedList+0xb4>)
 800701e:	681b      	ldr	r3, [r3, #0]
 8007020:	3304      	adds	r3, #4
 8007022:	4618      	mov	r0, r3
 8007024:	f7fe fc4e 	bl	80058c4 <uxListRemove>
 8007028:	4603      	mov	r3, r0
 800702a:	2b00      	cmp	r3, #0
 800702c:	d10b      	bne.n	8007046 <prvAddCurrentTaskToDelayedList+0x3a>
	{
		/* The current task must be in a ready list, so there is no need to
		check, and the port reset macro can be called directly. */
		portRESET_READY_PRIORITY( pxCurrentTCB->uxPriority, uxTopReadyPriority ); /*lint !e931 pxCurrentTCB cannot change as it is the calling task.  pxCurrentTCB->uxPriority and uxTopReadyPriority cannot change as called with scheduler suspended or in a critical section. */
 800702e:	4b24      	ldr	r3, [pc, #144]	; (80070c0 <prvAddCurrentTaskToDelayedList+0xb4>)
 8007030:	681b      	ldr	r3, [r3, #0]
 8007032:	6adb      	ldr	r3, [r3, #44]	; 0x2c
 8007034:	2201      	movs	r2, #1
 8007036:	fa02 f303 	lsl.w	r3, r2, r3
 800703a:	43da      	mvns	r2, r3
 800703c:	4b21      	ldr	r3, [pc, #132]	; (80070c4 <prvAddCurrentTaskToDelayedList+0xb8>)
 800703e:	681b      	ldr	r3, [r3, #0]
 8007040:	4013      	ands	r3, r2
 8007042:	4a20      	ldr	r2, [pc, #128]	; (80070c4 <prvAddCurrentTaskToDelayedList+0xb8>)
 8007044:	6013      	str	r3, [r2, #0]
		mtCOVERAGE_TEST_MARKER();
	}

	#if ( INCLUDE_vTaskSuspend == 1 )
	{
		if( ( xTicksToWait == portMAX_DELAY ) && ( xCanBlockIndefinitely != pdFALSE ) )
 8007046:	687b      	ldr	r3, [r7, #4]
 8007048:	f1b3 3fff 	cmp.w	r3, #4294967295
 800704c:	d10a      	bne.n	8007064 <prvAddCurrentTaskToDelayedList+0x58>
 800704e:	683b      	ldr	r3, [r7, #0]
 8007050:	2b00      	cmp	r3, #0
 8007052:	d007      	beq.n	8007064 <prvAddCurrentTaskToDelayedList+0x58>
		{
			/* Add the task to the suspended task list instead of a delayed task
			list to ensure it is not woken by a timing event.  It will block
			indefinitely. */
			vListInsertEnd( &xSuspendedTaskList, &( pxCurrentTCB->xStateListItem ) );
 8007054:	4b1a      	ldr	r3, [pc, #104]	; (80070c0 <prvAddCurrentTaskToDelayedList+0xb4>)
 8007056:	681b      	ldr	r3, [r3, #0]
 8007058:	3304      	adds	r3, #4
 800705a:	4619      	mov	r1, r3
 800705c:	481a      	ldr	r0, [pc, #104]	; (80070c8 <prvAddCurrentTaskToDelayedList+0xbc>)
 800705e:	f7fe fbd4 	bl	800580a <vListInsertEnd>

		/* Avoid compiler warning when INCLUDE_vTaskSuspend is not 1. */
		( void ) xCanBlockIndefinitely;
	}
	#endif /* INCLUDE_vTaskSuspend */
}
 8007062:	e026      	b.n	80070b2 <prvAddCurrentTaskToDelayedList+0xa6>
			xTimeToWake = xConstTickCount + xTicksToWait;
 8007064:	68fa      	ldr	r2, [r7, #12]
 8007066:	687b      	ldr	r3, [r7, #4]
 8007068:	4413      	add	r3, r2
 800706a:	60bb      	str	r3, [r7, #8]
			listSET_LIST_ITEM_VALUE( &( pxCurrentTCB->xStateListItem ), xTimeToWake );
 800706c:	4b14      	ldr	r3, [pc, #80]	; (80070c0 <prvAddCurrentTaskToDelayedList+0xb4>)
 800706e:	681b      	ldr	r3, [r3, #0]
 8007070:	68ba      	ldr	r2, [r7, #8]
 8007072:	605a      	str	r2, [r3, #4]
			if( xTimeToWake < xConstTickCount )
 8007074:	68ba      	ldr	r2, [r7, #8]
 8007076:	68fb      	ldr	r3, [r7, #12]
 8007078:	429a      	cmp	r2, r3
 800707a:	d209      	bcs.n	8007090 <prvAddCurrentTaskToDelayedList+0x84>
				vListInsert( pxOverflowDelayedTaskList, &( pxCurrentTCB->xStateListItem ) );
 800707c:	4b13      	ldr	r3, [pc, #76]	; (80070cc <prvAddCurrentTaskToDelayedList+0xc0>)
 800707e:	681a      	ldr	r2, [r3, #0]
 8007080:	4b0f      	ldr	r3, [pc, #60]	; (80070c0 <prvAddCurrentTaskToDelayedList+0xb4>)
 8007082:	681b      	ldr	r3, [r3, #0]
 8007084:	3304      	adds	r3, #4
 8007086:	4619      	mov	r1, r3
 8007088:	4610      	mov	r0, r2
 800708a:	f7fe fbe2 	bl	8005852 <vListInsert>
}
 800708e:	e010      	b.n	80070b2 <prvAddCurrentTaskToDelayedList+0xa6>
				vListInsert( pxDelayedTaskList, &( pxCurrentTCB->xStateListItem ) );
 8007090:	4b0f      	ldr	r3, [pc, #60]	; (80070d0 <prvAddCurrentTaskToDelayedList+0xc4>)
 8007092:	681a      	ldr	r2, [r3, #0]
 8007094:	4b0a      	ldr	r3, [pc, #40]	; (80070c0 <prvAddCurrentTaskToDelayedList+0xb4>)
 8007096:	681b      	ldr	r3, [r3, #0]
 8007098:	3304      	adds	r3, #4
 800709a:	4619      	mov	r1, r3
 800709c:	4610      	mov	r0, r2
 800709e:	f7fe fbd8 	bl	8005852 <vListInsert>
				if( xTimeToWake < xNextTaskUnblockTime )
 80070a2:	4b0c      	ldr	r3, [pc, #48]	; (80070d4 <prvAddCurrentTaskToDelayedList+0xc8>)
 80070a4:	681b      	ldr	r3, [r3, #0]
 80070a6:	68ba      	ldr	r2, [r7, #8]
 80070a8:	429a      	cmp	r2, r3
 80070aa:	d202      	bcs.n	80070b2 <prvAddCurrentTaskToDelayedList+0xa6>
					xNextTaskUnblockTime = xTimeToWake;
 80070ac:	4a09      	ldr	r2, [pc, #36]	; (80070d4 <prvAddCurrentTaskToDelayedList+0xc8>)
 80070ae:	68bb      	ldr	r3, [r7, #8]
 80070b0:	6013      	str	r3, [r2, #0]
}
 80070b2:	bf00      	nop
 80070b4:	3710      	adds	r7, #16
 80070b6:	46bd      	mov	sp, r7
 80070b8:	bd80      	pop	{r7, pc}
 80070ba:	bf00      	nop
 80070bc:	20000754 	.word	0x20000754
 80070c0:	20000650 	.word	0x20000650
 80070c4:	20000758 	.word	0x20000758
 80070c8:	2000073c 	.word	0x2000073c
 80070cc:	2000070c 	.word	0x2000070c
 80070d0:	20000708 	.word	0x20000708
 80070d4:	20000770 	.word	0x20000770

080070d8 <pxPortInitialiseStack>:

/*
 * See header file for description.
 */
StackType_t *pxPortInitialiseStack( StackType_t *pxTopOfStack, TaskFunction_t pxCode, void *pvParameters )
{
 80070d8:	b480      	push	{r7}
 80070da:	b085      	sub	sp, #20
 80070dc:	af00      	add	r7, sp, #0
 80070de:	60f8      	str	r0, [r7, #12]
 80070e0:	60b9      	str	r1, [r7, #8]
 80070e2:	607a      	str	r2, [r7, #4]
	/* Simulate the stack frame as it would be created by a context switch
	interrupt. */

	/* Offset added to account for the way the MCU uses the stack on entry/exit
	of interrupts, and to ensure alignment. */
	pxTopOfStack--;
 80070e4:	68fb      	ldr	r3, [r7, #12]
 80070e6:	3b04      	subs	r3, #4
 80070e8:	60fb      	str	r3, [r7, #12]

	*pxTopOfStack = portINITIAL_XPSR;	/* xPSR */
 80070ea:	68fb      	ldr	r3, [r7, #12]
 80070ec:	f04f 7280 	mov.w	r2, #16777216	; 0x1000000
 80070f0:	601a      	str	r2, [r3, #0]
	pxTopOfStack--;
 80070f2:	68fb      	ldr	r3, [r7, #12]
 80070f4:	3b04      	subs	r3, #4
 80070f6:	60fb      	str	r3, [r7, #12]
	*pxTopOfStack = ( ( StackType_t ) pxCode ) & portSTART_ADDRESS_MASK;	/* PC */
 80070f8:	68bb      	ldr	r3, [r7, #8]
 80070fa:	f023 0201 	bic.w	r2, r3, #1
 80070fe:	68fb      	ldr	r3, [r7, #12]
 8007100:	601a      	str	r2, [r3, #0]
	pxTopOfStack--;
 8007102:	68fb      	ldr	r3, [r7, #12]
 8007104:	3b04      	subs	r3, #4
 8007106:	60fb      	str	r3, [r7, #12]
	*pxTopOfStack = ( StackType_t ) portTASK_RETURN_ADDRESS;	/* LR */
 8007108:	4a0c      	ldr	r2, [pc, #48]	; (800713c <pxPortInitialiseStack+0x64>)
 800710a:	68fb      	ldr	r3, [r7, #12]
 800710c:	601a      	str	r2, [r3, #0]

	/* Save code space by skipping register initialisation. */
	pxTopOfStack -= 5;	/* R12, R3, R2 and R1. */
 800710e:	68fb      	ldr	r3, [r7, #12]
 8007110:	3b14      	subs	r3, #20
 8007112:	60fb      	str	r3, [r7, #12]
	*pxTopOfStack = ( StackType_t ) pvParameters;	/* R0 */
 8007114:	687a      	ldr	r2, [r7, #4]
 8007116:	68fb      	ldr	r3, [r7, #12]
 8007118:	601a      	str	r2, [r3, #0]

	/* A save method is being used that requires each task to maintain its
	own exec return value. */
	pxTopOfStack--;
 800711a:	68fb      	ldr	r3, [r7, #12]
 800711c:	3b04      	subs	r3, #4
 800711e:	60fb      	str	r3, [r7, #12]
	*pxTopOfStack = portINITIAL_EXC_RETURN;
 8007120:	68fb      	ldr	r3, [r7, #12]
 8007122:	f06f 0202 	mvn.w	r2, #2
 8007126:	601a      	str	r2, [r3, #0]

	pxTopOfStack -= 8;	/* R11, R10, R9, R8, R7, R6, R5 and R4. */
 8007128:	68fb      	ldr	r3, [r7, #12]
 800712a:	3b20      	subs	r3, #32
 800712c:	60fb      	str	r3, [r7, #12]

	return pxTopOfStack;
 800712e:	68fb      	ldr	r3, [r7, #12]
}
 8007130:	4618      	mov	r0, r3
 8007132:	3714      	adds	r7, #20
 8007134:	46bd      	mov	sp, r7
 8007136:	f85d 7b04 	ldr.w	r7, [sp], #4
 800713a:	4770      	bx	lr
 800713c:	08007141 	.word	0x08007141

08007140 <prvTaskExitError>:
/*-----------------------------------------------------------*/

static void prvTaskExitError( void )
{
 8007140:	b480      	push	{r7}
 8007142:	b085      	sub	sp, #20
 8007144:	af00      	add	r7, sp, #0
volatile uint32_t ulDummy = 0;
 8007146:	2300      	movs	r3, #0
 8007148:	607b      	str	r3, [r7, #4]
	its caller as there is nothing to return to.  If a task wants to exit it
	should instead call vTaskDelete( NULL ).

	Artificially force an assert() to be triggered if configASSERT() is
	defined, then stop here so application writers can catch the error. */
	configASSERT( uxCriticalNesting == ~0UL );
 800714a:	4b14      	ldr	r3, [pc, #80]	; (800719c <prvTaskExitError+0x5c>)
 800714c:	681b      	ldr	r3, [r3, #0]
 800714e:	f1b3 3fff 	cmp.w	r3, #4294967295
 8007152:	d00c      	beq.n	800716e <prvTaskExitError+0x2e>
	__asm volatile
 8007154:	f04f 0350 	mov.w	r3, #80	; 0x50
 8007158:	b672      	cpsid	i
 800715a:	f383 8811 	msr	BASEPRI, r3
 800715e:	f3bf 8f6f 	isb	sy
 8007162:	f3bf 8f4f 	dsb	sy
 8007166:	b662      	cpsie	i
 8007168:	60fb      	str	r3, [r7, #12]
}
 800716a:	bf00      	nop
 800716c:	e7fe      	b.n	800716c <prvTaskExitError+0x2c>
	__asm volatile
 800716e:	f04f 0350 	mov.w	r3, #80	; 0x50
 8007172:	b672      	cpsid	i
 8007174:	f383 8811 	msr	BASEPRI, r3
 8007178:	f3bf 8f6f 	isb	sy
 800717c:	f3bf 8f4f 	dsb	sy
 8007180:	b662      	cpsie	i
 8007182:	60bb      	str	r3, [r7, #8]
}
 8007184:	bf00      	nop
	portDISABLE_INTERRUPTS();
	while( ulDummy == 0 )
 8007186:	bf00      	nop
 8007188:	687b      	ldr	r3, [r7, #4]
 800718a:	2b00      	cmp	r3, #0
 800718c:	d0fc      	beq.n	8007188 <prvTaskExitError+0x48>
		about code appearing after this function is called - making ulDummy
		volatile makes the compiler think the function could return and
		therefore not output an 'unreachable code' warning for code that appears
		after it. */
	}
}
 800718e:	bf00      	nop
 8007190:	bf00      	nop
 8007192:	3714      	adds	r7, #20
 8007194:	46bd      	mov	sp, r7
 8007196:	f85d 7b04 	ldr.w	r7, [sp], #4
 800719a:	4770      	bx	lr
 800719c:	2000000c 	.word	0x2000000c

080071a0 <SVC_Handler>:
/*-----------------------------------------------------------*/

void vPortSVCHandler( void )
{
	__asm volatile (
 80071a0:	4b07      	ldr	r3, [pc, #28]	; (80071c0 <pxCurrentTCBConst2>)
 80071a2:	6819      	ldr	r1, [r3, #0]
 80071a4:	6808      	ldr	r0, [r1, #0]
 80071a6:	e8b0 4ff0 	ldmia.w	r0!, {r4, r5, r6, r7, r8, r9, sl, fp, lr}
 80071aa:	f380 8809 	msr	PSP, r0
 80071ae:	f3bf 8f6f 	isb	sy
 80071b2:	f04f 0000 	mov.w	r0, #0
 80071b6:	f380 8811 	msr	BASEPRI, r0
 80071ba:	4770      	bx	lr
 80071bc:	f3af 8000 	nop.w

080071c0 <pxCurrentTCBConst2>:
 80071c0:	20000650 	.word	0x20000650
					"	bx r14							\n"
					"									\n"
					"	.align 4						\n"
					"pxCurrentTCBConst2: .word pxCurrentTCB				\n"
				);
}
 80071c4:	bf00      	nop
 80071c6:	bf00      	nop

080071c8 <prvPortStartFirstTask>:
{
	/* Start the first task.  This also clears the bit that indicates the FPU is
	in use in case the FPU was used before the scheduler was started - which
	would otherwise result in the unnecessary leaving of space in the SVC stack
	for lazy saving of FPU registers. */
	__asm volatile(
 80071c8:	4808      	ldr	r0, [pc, #32]	; (80071ec <prvPortStartFirstTask+0x24>)
 80071ca:	6800      	ldr	r0, [r0, #0]
 80071cc:	6800      	ldr	r0, [r0, #0]
 80071ce:	f380 8808 	msr	MSP, r0
 80071d2:	f04f 0000 	mov.w	r0, #0
 80071d6:	f380 8814 	msr	CONTROL, r0
 80071da:	b662      	cpsie	i
 80071dc:	b661      	cpsie	f
 80071de:	f3bf 8f4f 	dsb	sy
 80071e2:	f3bf 8f6f 	isb	sy
 80071e6:	df00      	svc	0
 80071e8:	bf00      	nop
					" dsb					\n"
					" isb					\n"
					" svc 0					\n" /* System call to start first task. */
					" nop					\n"
				);
}
 80071ea:	bf00      	nop
 80071ec:	e000ed08 	.word	0xe000ed08

080071f0 <xPortStartScheduler>:

/*
 * See header file for description.
 */
BaseType_t xPortStartScheduler( void )
{
 80071f0:	b580      	push	{r7, lr}
 80071f2:	b084      	sub	sp, #16
 80071f4:	af00      	add	r7, sp, #0
	configASSERT( configMAX_SYSCALL_INTERRUPT_PRIORITY );

	#if( configASSERT_DEFINED == 1 )
	{
		volatile uint32_t ulOriginalPriority;
		volatile uint8_t * const pucFirstUserPriorityRegister = ( volatile uint8_t * const ) ( portNVIC_IP_REGISTERS_OFFSET_16 + portFIRST_USER_INTERRUPT_NUMBER );
 80071f6:	4b37      	ldr	r3, [pc, #220]	; (80072d4 <xPortStartScheduler+0xe4>)
 80071f8:	60fb      	str	r3, [r7, #12]
		functions can be called.  ISR safe functions are those that end in
		"FromISR".  FreeRTOS maintains separate thread and ISR API functions to
		ensure interrupt entry is as fast and simple as possible.

		Save the interrupt priority value that is about to be clobbered. */
		ulOriginalPriority = *pucFirstUserPriorityRegister;
 80071fa:	68fb      	ldr	r3, [r7, #12]
 80071fc:	781b      	ldrb	r3, [r3, #0]
 80071fe:	b2db      	uxtb	r3, r3
 8007200:	607b      	str	r3, [r7, #4]

		/* Determine the number of priority bits available.  First write to all
		possible bits. */
		*pucFirstUserPriorityRegister = portMAX_8_BIT_VALUE;
 8007202:	68fb      	ldr	r3, [r7, #12]
 8007204:	22ff      	movs	r2, #255	; 0xff
 8007206:	701a      	strb	r2, [r3, #0]

		/* Read the value back to see how many bits stuck. */
		ucMaxPriorityValue = *pucFirstUserPriorityRegister;
 8007208:	68fb      	ldr	r3, [r7, #12]
 800720a:	781b      	ldrb	r3, [r3, #0]
 800720c:	b2db      	uxtb	r3, r3
 800720e:	70fb      	strb	r3, [r7, #3]

		/* Use the same mask on the maximum system call priority. */
		ucMaxSysCallPriority = configMAX_SYSCALL_INTERRUPT_PRIORITY & ucMaxPriorityValue;
 8007210:	78fb      	ldrb	r3, [r7, #3]
 8007212:	b2db      	uxtb	r3, r3
 8007214:	f003 0350 	and.w	r3, r3, #80	; 0x50
 8007218:	b2da      	uxtb	r2, r3
 800721a:	4b2f      	ldr	r3, [pc, #188]	; (80072d8 <xPortStartScheduler+0xe8>)
 800721c:	701a      	strb	r2, [r3, #0]

		/* Calculate the maximum acceptable priority group value for the number
		of bits read back. */
		ulMaxPRIGROUPValue = portMAX_PRIGROUP_BITS;
 800721e:	4b2f      	ldr	r3, [pc, #188]	; (80072dc <xPortStartScheduler+0xec>)
 8007220:	2207      	movs	r2, #7
 8007222:	601a      	str	r2, [r3, #0]
		while( ( ucMaxPriorityValue & portTOP_BIT_OF_BYTE ) == portTOP_BIT_OF_BYTE )
 8007224:	e009      	b.n	800723a <xPortStartScheduler+0x4a>
		{
			ulMaxPRIGROUPValue--;
 8007226:	4b2d      	ldr	r3, [pc, #180]	; (80072dc <xPortStartScheduler+0xec>)
 8007228:	681b      	ldr	r3, [r3, #0]
 800722a:	3b01      	subs	r3, #1
 800722c:	4a2b      	ldr	r2, [pc, #172]	; (80072dc <xPortStartScheduler+0xec>)
 800722e:	6013      	str	r3, [r2, #0]
			ucMaxPriorityValue <<= ( uint8_t ) 0x01;
 8007230:	78fb      	ldrb	r3, [r7, #3]
 8007232:	b2db      	uxtb	r3, r3
 8007234:	005b      	lsls	r3, r3, #1
 8007236:	b2db      	uxtb	r3, r3
 8007238:	70fb      	strb	r3, [r7, #3]
		while( ( ucMaxPriorityValue & portTOP_BIT_OF_BYTE ) == portTOP_BIT_OF_BYTE )
 800723a:	78fb      	ldrb	r3, [r7, #3]
 800723c:	b2db      	uxtb	r3, r3
 800723e:	f003 0380 	and.w	r3, r3, #128	; 0x80
 8007242:	2b80      	cmp	r3, #128	; 0x80
 8007244:	d0ef      	beq.n	8007226 <xPortStartScheduler+0x36>
		#ifdef configPRIO_BITS
		{
			/* Check the FreeRTOS configuration that defines the number of
			priority bits matches the number of priority bits actually queried
			from the hardware. */
			configASSERT( ( portMAX_PRIGROUP_BITS - ulMaxPRIGROUPValue ) == configPRIO_BITS );
 8007246:	4b25      	ldr	r3, [pc, #148]	; (80072dc <xPortStartScheduler+0xec>)
 8007248:	681b      	ldr	r3, [r3, #0]
 800724a:	f1c3 0307 	rsb	r3, r3, #7
 800724e:	2b04      	cmp	r3, #4
 8007250:	d00c      	beq.n	800726c <xPortStartScheduler+0x7c>
	__asm volatile
 8007252:	f04f 0350 	mov.w	r3, #80	; 0x50
 8007256:	b672      	cpsid	i
 8007258:	f383 8811 	msr	BASEPRI, r3
 800725c:	f3bf 8f6f 	isb	sy
 8007260:	f3bf 8f4f 	dsb	sy
 8007264:	b662      	cpsie	i
 8007266:	60bb      	str	r3, [r7, #8]
}
 8007268:	bf00      	nop
 800726a:	e7fe      	b.n	800726a <xPortStartScheduler+0x7a>
		}
		#endif

		/* Shift the priority group value back to its position within the AIRCR
		register. */
		ulMaxPRIGROUPValue <<= portPRIGROUP_SHIFT;
 800726c:	4b1b      	ldr	r3, [pc, #108]	; (80072dc <xPortStartScheduler+0xec>)
 800726e:	681b      	ldr	r3, [r3, #0]
 8007270:	021b      	lsls	r3, r3, #8
 8007272:	4a1a      	ldr	r2, [pc, #104]	; (80072dc <xPortStartScheduler+0xec>)
 8007274:	6013      	str	r3, [r2, #0]
		ulMaxPRIGROUPValue &= portPRIORITY_GROUP_MASK;
 8007276:	4b19      	ldr	r3, [pc, #100]	; (80072dc <xPortStartScheduler+0xec>)
 8007278:	681b      	ldr	r3, [r3, #0]
 800727a:	f403 63e0 	and.w	r3, r3, #1792	; 0x700
 800727e:	4a17      	ldr	r2, [pc, #92]	; (80072dc <xPortStartScheduler+0xec>)
 8007280:	6013      	str	r3, [r2, #0]

		/* Restore the clobbered interrupt priority register to its original
		value. */
		*pucFirstUserPriorityRegister = ulOriginalPriority;
 8007282:	687b      	ldr	r3, [r7, #4]
 8007284:	b2da      	uxtb	r2, r3
 8007286:	68fb      	ldr	r3, [r7, #12]
 8007288:	701a      	strb	r2, [r3, #0]
	}
	#endif /* conifgASSERT_DEFINED */

	/* Make PendSV and SysTick the lowest priority interrupts. */
	portNVIC_SYSPRI2_REG |= portNVIC_PENDSV_PRI;
 800728a:	4b15      	ldr	r3, [pc, #84]	; (80072e0 <xPortStartScheduler+0xf0>)
 800728c:	681b      	ldr	r3, [r3, #0]
 800728e:	4a14      	ldr	r2, [pc, #80]	; (80072e0 <xPortStartScheduler+0xf0>)
 8007290:	f443 0370 	orr.w	r3, r3, #15728640	; 0xf00000
 8007294:	6013      	str	r3, [r2, #0]
	portNVIC_SYSPRI2_REG |= portNVIC_SYSTICK_PRI;
 8007296:	4b12      	ldr	r3, [pc, #72]	; (80072e0 <xPortStartScheduler+0xf0>)
 8007298:	681b      	ldr	r3, [r3, #0]
 800729a:	4a11      	ldr	r2, [pc, #68]	; (80072e0 <xPortStartScheduler+0xf0>)
 800729c:	f043 4370 	orr.w	r3, r3, #4026531840	; 0xf0000000
 80072a0:	6013      	str	r3, [r2, #0]

	/* Start the timer that generates the tick ISR.  Interrupts are disabled
	here already. */
	vPortSetupTimerInterrupt();
 80072a2:	f000 f8dd 	bl	8007460 <vPortSetupTimerInterrupt>

	/* Initialise the critical nesting count ready for the first task. */
	uxCriticalNesting = 0;
 80072a6:	4b0f      	ldr	r3, [pc, #60]	; (80072e4 <xPortStartScheduler+0xf4>)
 80072a8:	2200      	movs	r2, #0
 80072aa:	601a      	str	r2, [r3, #0]

	/* Ensure the VFP is enabled - it should be anyway. */
	vPortEnableVFP();
 80072ac:	f000 f8fc 	bl	80074a8 <vPortEnableVFP>

	/* Lazy save always. */
	*( portFPCCR ) |= portASPEN_AND_LSPEN_BITS;
 80072b0:	4b0d      	ldr	r3, [pc, #52]	; (80072e8 <xPortStartScheduler+0xf8>)
 80072b2:	681b      	ldr	r3, [r3, #0]
 80072b4:	4a0c      	ldr	r2, [pc, #48]	; (80072e8 <xPortStartScheduler+0xf8>)
 80072b6:	f043 4340 	orr.w	r3, r3, #3221225472	; 0xc0000000
 80072ba:	6013      	str	r3, [r2, #0]

	/* Start the first task. */
	prvPortStartFirstTask();
 80072bc:	f7ff ff84 	bl	80071c8 <prvPortStartFirstTask>
	exit error function to prevent compiler warnings about a static function
	not being called in the case that the application writer overrides this
	functionality by defining configTASK_RETURN_ADDRESS.  Call
	vTaskSwitchContext() so link time optimisation does not remove the
	symbol. */
	vTaskSwitchContext();
 80072c0:	f7ff fbd6 	bl	8006a70 <vTaskSwitchContext>
	prvTaskExitError();
 80072c4:	f7ff ff3c 	bl	8007140 <prvTaskExitError>

	/* Should not get here! */
	return 0;
 80072c8:	2300      	movs	r3, #0
}
 80072ca:	4618      	mov	r0, r3
 80072cc:	3710      	adds	r7, #16
 80072ce:	46bd      	mov	sp, r7
 80072d0:	bd80      	pop	{r7, pc}
 80072d2:	bf00      	nop
 80072d4:	e000e400 	.word	0xe000e400
 80072d8:	2000077c 	.word	0x2000077c
 80072dc:	20000780 	.word	0x20000780
 80072e0:	e000ed20 	.word	0xe000ed20
 80072e4:	2000000c 	.word	0x2000000c
 80072e8:	e000ef34 	.word	0xe000ef34

080072ec <vPortEnterCritical>:
	configASSERT( uxCriticalNesting == 1000UL );
}
/*-----------------------------------------------------------*/

void vPortEnterCritical( void )
{
 80072ec:	b480      	push	{r7}
 80072ee:	b083      	sub	sp, #12
 80072f0:	af00      	add	r7, sp, #0
	__asm volatile
 80072f2:	f04f 0350 	mov.w	r3, #80	; 0x50
 80072f6:	b672      	cpsid	i
 80072f8:	f383 8811 	msr	BASEPRI, r3
 80072fc:	f3bf 8f6f 	isb	sy
 8007300:	f3bf 8f4f 	dsb	sy
 8007304:	b662      	cpsie	i
 8007306:	607b      	str	r3, [r7, #4]
}
 8007308:	bf00      	nop
	portDISABLE_INTERRUPTS();
	uxCriticalNesting++;
 800730a:	4b10      	ldr	r3, [pc, #64]	; (800734c <vPortEnterCritical+0x60>)
 800730c:	681b      	ldr	r3, [r3, #0]
 800730e:	3301      	adds	r3, #1
 8007310:	4a0e      	ldr	r2, [pc, #56]	; (800734c <vPortEnterCritical+0x60>)
 8007312:	6013      	str	r3, [r2, #0]
	/* This is not the interrupt safe version of the enter critical function so
	assert() if it is being called from an interrupt context.  Only API
	functions that end in "FromISR" can be used in an interrupt.  Only assert if
	the critical nesting count is 1 to protect against recursive calls if the
	assert function also uses a critical section. */
	if( uxCriticalNesting == 1 )
 8007314:	4b0d      	ldr	r3, [pc, #52]	; (800734c <vPortEnterCritical+0x60>)
 8007316:	681b      	ldr	r3, [r3, #0]
 8007318:	2b01      	cmp	r3, #1
 800731a:	d111      	bne.n	8007340 <vPortEnterCritical+0x54>
	{
		configASSERT( ( portNVIC_INT_CTRL_REG & portVECTACTIVE_MASK ) == 0 );
 800731c:	4b0c      	ldr	r3, [pc, #48]	; (8007350 <vPortEnterCritical+0x64>)
 800731e:	681b      	ldr	r3, [r3, #0]
 8007320:	b2db      	uxtb	r3, r3
 8007322:	2b00      	cmp	r3, #0
 8007324:	d00c      	beq.n	8007340 <vPortEnterCritical+0x54>
	__asm volatile
 8007326:	f04f 0350 	mov.w	r3, #80	; 0x50
 800732a:	b672      	cpsid	i
 800732c:	f383 8811 	msr	BASEPRI, r3
 8007330:	f3bf 8f6f 	isb	sy
 8007334:	f3bf 8f4f 	dsb	sy
 8007338:	b662      	cpsie	i
 800733a:	603b      	str	r3, [r7, #0]
}
 800733c:	bf00      	nop
 800733e:	e7fe      	b.n	800733e <vPortEnterCritical+0x52>
	}
}
 8007340:	bf00      	nop
 8007342:	370c      	adds	r7, #12
 8007344:	46bd      	mov	sp, r7
 8007346:	f85d 7b04 	ldr.w	r7, [sp], #4
 800734a:	4770      	bx	lr
 800734c:	2000000c 	.word	0x2000000c
 8007350:	e000ed04 	.word	0xe000ed04

08007354 <vPortExitCritical>:
/*-----------------------------------------------------------*/

void vPortExitCritical( void )
{
 8007354:	b480      	push	{r7}
 8007356:	b083      	sub	sp, #12
 8007358:	af00      	add	r7, sp, #0
	configASSERT( uxCriticalNesting );
 800735a:	4b13      	ldr	r3, [pc, #76]	; (80073a8 <vPortExitCritical+0x54>)
 800735c:	681b      	ldr	r3, [r3, #0]
 800735e:	2b00      	cmp	r3, #0
 8007360:	d10c      	bne.n	800737c <vPortExitCritical+0x28>
	__asm volatile
 8007362:	f04f 0350 	mov.w	r3, #80	; 0x50
 8007366:	b672      	cpsid	i
 8007368:	f383 8811 	msr	BASEPRI, r3
 800736c:	f3bf 8f6f 	isb	sy
 8007370:	f3bf 8f4f 	dsb	sy
 8007374:	b662      	cpsie	i
 8007376:	607b      	str	r3, [r7, #4]
}
 8007378:	bf00      	nop
 800737a:	e7fe      	b.n	800737a <vPortExitCritical+0x26>
	uxCriticalNesting--;
 800737c:	4b0a      	ldr	r3, [pc, #40]	; (80073a8 <vPortExitCritical+0x54>)
 800737e:	681b      	ldr	r3, [r3, #0]
 8007380:	3b01      	subs	r3, #1
 8007382:	4a09      	ldr	r2, [pc, #36]	; (80073a8 <vPortExitCritical+0x54>)
 8007384:	6013      	str	r3, [r2, #0]
	if( uxCriticalNesting == 0 )
 8007386:	4b08      	ldr	r3, [pc, #32]	; (80073a8 <vPortExitCritical+0x54>)
 8007388:	681b      	ldr	r3, [r3, #0]
 800738a:	2b00      	cmp	r3, #0
 800738c:	d105      	bne.n	800739a <vPortExitCritical+0x46>
 800738e:	2300      	movs	r3, #0
 8007390:	603b      	str	r3, [r7, #0]
	__asm volatile
 8007392:	683b      	ldr	r3, [r7, #0]
 8007394:	f383 8811 	msr	BASEPRI, r3
}
 8007398:	bf00      	nop
	{
		portENABLE_INTERRUPTS();
	}
}
 800739a:	bf00      	nop
 800739c:	370c      	adds	r7, #12
 800739e:	46bd      	mov	sp, r7
 80073a0:	f85d 7b04 	ldr.w	r7, [sp], #4
 80073a4:	4770      	bx	lr
 80073a6:	bf00      	nop
 80073a8:	2000000c 	.word	0x2000000c
 80073ac:	00000000 	.word	0x00000000

080073b0 <PendSV_Handler>:

void xPortPendSVHandler( void )
{
	/* This is a naked function. */

	__asm volatile
 80073b0:	f3ef 8009 	mrs	r0, PSP
 80073b4:	f3bf 8f6f 	isb	sy
 80073b8:	4b15      	ldr	r3, [pc, #84]	; (8007410 <pxCurrentTCBConst>)
 80073ba:	681a      	ldr	r2, [r3, #0]
 80073bc:	f01e 0f10 	tst.w	lr, #16
 80073c0:	bf08      	it	eq
 80073c2:	ed20 8a10 	vstmdbeq	r0!, {s16-s31}
 80073c6:	e920 4ff0 	stmdb	r0!, {r4, r5, r6, r7, r8, r9, sl, fp, lr}
 80073ca:	6010      	str	r0, [r2, #0]
 80073cc:	e92d 0009 	stmdb	sp!, {r0, r3}
 80073d0:	f04f 0050 	mov.w	r0, #80	; 0x50
 80073d4:	b672      	cpsid	i
 80073d6:	f380 8811 	msr	BASEPRI, r0
 80073da:	f3bf 8f4f 	dsb	sy
 80073de:	f3bf 8f6f 	isb	sy
 80073e2:	b662      	cpsie	i
 80073e4:	f7ff fb44 	bl	8006a70 <vTaskSwitchContext>
 80073e8:	f04f 0000 	mov.w	r0, #0
 80073ec:	f380 8811 	msr	BASEPRI, r0
 80073f0:	bc09      	pop	{r0, r3}
 80073f2:	6819      	ldr	r1, [r3, #0]
 80073f4:	6808      	ldr	r0, [r1, #0]
 80073f6:	e8b0 4ff0 	ldmia.w	r0!, {r4, r5, r6, r7, r8, r9, sl, fp, lr}
 80073fa:	f01e 0f10 	tst.w	lr, #16
 80073fe:	bf08      	it	eq
 8007400:	ecb0 8a10 	vldmiaeq	r0!, {s16-s31}
 8007404:	f380 8809 	msr	PSP, r0
 8007408:	f3bf 8f6f 	isb	sy
 800740c:	4770      	bx	lr
 800740e:	bf00      	nop

08007410 <pxCurrentTCBConst>:
 8007410:	20000650 	.word	0x20000650
	"										\n"
	"	.align 4							\n"
	"pxCurrentTCBConst: .word pxCurrentTCB	\n"
	::"i"(configMAX_SYSCALL_INTERRUPT_PRIORITY)
	);
}
 8007414:	bf00      	nop
 8007416:	bf00      	nop

08007418 <SysTick_Handler>:
/*-----------------------------------------------------------*/

void xPortSysTickHandler( void )
{
 8007418:	b580      	push	{r7, lr}
 800741a:	b082      	sub	sp, #8
 800741c:	af00      	add	r7, sp, #0
	__asm volatile
 800741e:	f04f 0350 	mov.w	r3, #80	; 0x50
 8007422:	b672      	cpsid	i
 8007424:	f383 8811 	msr	BASEPRI, r3
 8007428:	f3bf 8f6f 	isb	sy
 800742c:	f3bf 8f4f 	dsb	sy
 8007430:	b662      	cpsie	i
 8007432:	607b      	str	r3, [r7, #4]
}
 8007434:	bf00      	nop
	save and then restore the interrupt mask value as its value is already
	known. */
	portDISABLE_INTERRUPTS();
	{
		/* Increment the RTOS tick. */
		if( xTaskIncrementTick() != pdFALSE )
 8007436:	f7ff fa61 	bl	80068fc <xTaskIncrementTick>
 800743a:	4603      	mov	r3, r0
 800743c:	2b00      	cmp	r3, #0
 800743e:	d003      	beq.n	8007448 <SysTick_Handler+0x30>
		{
			/* A context switch is required.  Context switching is performed in
			the PendSV interrupt.  Pend the PendSV interrupt. */
			portNVIC_INT_CTRL_REG = portNVIC_PENDSVSET_BIT;
 8007440:	4b06      	ldr	r3, [pc, #24]	; (800745c <SysTick_Handler+0x44>)
 8007442:	f04f 5280 	mov.w	r2, #268435456	; 0x10000000
 8007446:	601a      	str	r2, [r3, #0]
 8007448:	2300      	movs	r3, #0
 800744a:	603b      	str	r3, [r7, #0]
	__asm volatile
 800744c:	683b      	ldr	r3, [r7, #0]
 800744e:	f383 8811 	msr	BASEPRI, r3
}
 8007452:	bf00      	nop
		}
	}
	portENABLE_INTERRUPTS();
}
 8007454:	bf00      	nop
 8007456:	3708      	adds	r7, #8
 8007458:	46bd      	mov	sp, r7
 800745a:	bd80      	pop	{r7, pc}
 800745c:	e000ed04 	.word	0xe000ed04

08007460 <vPortSetupTimerInterrupt>:
/*
 * Setup the systick timer to generate the tick interrupts at the required
 * frequency.
 */
__attribute__(( weak )) void vPortSetupTimerInterrupt( void )
{
 8007460:	b480      	push	{r7}
 8007462:	af00      	add	r7, sp, #0
		ulStoppedTimerCompensation = portMISSED_COUNTS_FACTOR / ( configCPU_CLOCK_HZ / configSYSTICK_CLOCK_HZ );
	}
	#endif /* configUSE_TICKLESS_IDLE */

	/* Stop and clear the SysTick. */
	portNVIC_SYSTICK_CTRL_REG = 0UL;
 8007464:	4b0b      	ldr	r3, [pc, #44]	; (8007494 <vPortSetupTimerInterrupt+0x34>)
 8007466:	2200      	movs	r2, #0
 8007468:	601a      	str	r2, [r3, #0]
	portNVIC_SYSTICK_CURRENT_VALUE_REG = 0UL;
 800746a:	4b0b      	ldr	r3, [pc, #44]	; (8007498 <vPortSetupTimerInterrupt+0x38>)
 800746c:	2200      	movs	r2, #0
 800746e:	601a      	str	r2, [r3, #0]

	/* Configure SysTick to interrupt at the requested rate. */
	portNVIC_SYSTICK_LOAD_REG = ( configSYSTICK_CLOCK_HZ / configTICK_RATE_HZ ) - 1UL;
 8007470:	4b0a      	ldr	r3, [pc, #40]	; (800749c <vPortSetupTimerInterrupt+0x3c>)
 8007472:	681b      	ldr	r3, [r3, #0]
 8007474:	4a0a      	ldr	r2, [pc, #40]	; (80074a0 <vPortSetupTimerInterrupt+0x40>)
 8007476:	fba2 2303 	umull	r2, r3, r2, r3
 800747a:	099b      	lsrs	r3, r3, #6
 800747c:	4a09      	ldr	r2, [pc, #36]	; (80074a4 <vPortSetupTimerInterrupt+0x44>)
 800747e:	3b01      	subs	r3, #1
 8007480:	6013      	str	r3, [r2, #0]
	portNVIC_SYSTICK_CTRL_REG = ( portNVIC_SYSTICK_CLK_BIT | portNVIC_SYSTICK_INT_BIT | portNVIC_SYSTICK_ENABLE_BIT );
 8007482:	4b04      	ldr	r3, [pc, #16]	; (8007494 <vPortSetupTimerInterrupt+0x34>)
 8007484:	2207      	movs	r2, #7
 8007486:	601a      	str	r2, [r3, #0]
}
 8007488:	bf00      	nop
 800748a:	46bd      	mov	sp, r7
 800748c:	f85d 7b04 	ldr.w	r7, [sp], #4
 8007490:	4770      	bx	lr
 8007492:	bf00      	nop
 8007494:	e000e010 	.word	0xe000e010
 8007498:	e000e018 	.word	0xe000e018
 800749c:	20000000 	.word	0x20000000
 80074a0:	10624dd3 	.word	0x10624dd3
 80074a4:	e000e014 	.word	0xe000e014

080074a8 <vPortEnableVFP>:
/*-----------------------------------------------------------*/

/* This is a naked function. */
static void vPortEnableVFP( void )
{
	__asm volatile
 80074a8:	f8df 000c 	ldr.w	r0, [pc, #12]	; 80074b8 <vPortEnableVFP+0x10>
 80074ac:	6801      	ldr	r1, [r0, #0]
 80074ae:	f441 0170 	orr.w	r1, r1, #15728640	; 0xf00000
 80074b2:	6001      	str	r1, [r0, #0]
 80074b4:	4770      	bx	lr
		"								\n"
		"	orr r1, r1, #( 0xf << 20 )	\n" /* Enable CP10 and CP11 coprocessors, then save back. */
		"	str r1, [r0]				\n"
		"	bx r14						"
	);
}
 80074b6:	bf00      	nop
 80074b8:	e000ed88 	.word	0xe000ed88

080074bc <vPortValidateInterruptPriority>:
/*-----------------------------------------------------------*/

#if( configASSERT_DEFINED == 1 )

	void vPortValidateInterruptPriority( void )
	{
 80074bc:	b480      	push	{r7}
 80074be:	b085      	sub	sp, #20
 80074c0:	af00      	add	r7, sp, #0
	uint32_t ulCurrentInterrupt;
	uint8_t ucCurrentPriority;

		/* Obtain the number of the currently executing interrupt. */
		__asm volatile( "mrs %0, ipsr" : "=r"( ulCurrentInterrupt ) :: "memory" );
 80074c2:	f3ef 8305 	mrs	r3, IPSR
 80074c6:	60fb      	str	r3, [r7, #12]

		/* Is the interrupt number a user defined interrupt? */
		if( ulCurrentInterrupt >= portFIRST_USER_INTERRUPT_NUMBER )
 80074c8:	68fb      	ldr	r3, [r7, #12]
 80074ca:	2b0f      	cmp	r3, #15
 80074cc:	d916      	bls.n	80074fc <vPortValidateInterruptPriority+0x40>
		{
			/* Look up the interrupt's priority. */
			ucCurrentPriority = pcInterruptPriorityRegisters[ ulCurrentInterrupt ];
 80074ce:	4a19      	ldr	r2, [pc, #100]	; (8007534 <vPortValidateInterruptPriority+0x78>)
 80074d0:	68fb      	ldr	r3, [r7, #12]
 80074d2:	4413      	add	r3, r2
 80074d4:	781b      	ldrb	r3, [r3, #0]
 80074d6:	72fb      	strb	r3, [r7, #11]
			interrupt entry is as fast and simple as possible.

			The following links provide detailed information:
			http://www.freertos.org/RTOS-Cortex-M3-M4.html
			http://www.freertos.org/FAQHelp.html */
			configASSERT( ucCurrentPriority >= ucMaxSysCallPriority );
 80074d8:	4b17      	ldr	r3, [pc, #92]	; (8007538 <vPortValidateInterruptPriority+0x7c>)
 80074da:	781b      	ldrb	r3, [r3, #0]
 80074dc:	7afa      	ldrb	r2, [r7, #11]
 80074de:	429a      	cmp	r2, r3
 80074e0:	d20c      	bcs.n	80074fc <vPortValidateInterruptPriority+0x40>
	__asm volatile
 80074e2:	f04f 0350 	mov.w	r3, #80	; 0x50
 80074e6:	b672      	cpsid	i
 80074e8:	f383 8811 	msr	BASEPRI, r3
 80074ec:	f3bf 8f6f 	isb	sy
 80074f0:	f3bf 8f4f 	dsb	sy
 80074f4:	b662      	cpsie	i
 80074f6:	607b      	str	r3, [r7, #4]
}
 80074f8:	bf00      	nop
 80074fa:	e7fe      	b.n	80074fa <vPortValidateInterruptPriority+0x3e>
		configuration then the correct setting can be achieved on all Cortex-M
		devices by calling NVIC_SetPriorityGrouping( 0 ); before starting the
		scheduler.  Note however that some vendor specific peripheral libraries
		assume a non-zero priority group setting, in which cases using a value
		of zero will result in unpredictable behaviour. */
		configASSERT( ( portAIRCR_REG & portPRIORITY_GROUP_MASK ) <= ulMaxPRIGROUPValue );
 80074fc:	4b0f      	ldr	r3, [pc, #60]	; (800753c <vPortValidateInterruptPriority+0x80>)
 80074fe:	681b      	ldr	r3, [r3, #0]
 8007500:	f403 62e0 	and.w	r2, r3, #1792	; 0x700
 8007504:	4b0e      	ldr	r3, [pc, #56]	; (8007540 <vPortValidateInterruptPriority+0x84>)
 8007506:	681b      	ldr	r3, [r3, #0]
 8007508:	429a      	cmp	r2, r3
 800750a:	d90c      	bls.n	8007526 <vPortValidateInterruptPriority+0x6a>
	__asm volatile
 800750c:	f04f 0350 	mov.w	r3, #80	; 0x50
 8007510:	b672      	cpsid	i
 8007512:	f383 8811 	msr	BASEPRI, r3
 8007516:	f3bf 8f6f 	isb	sy
 800751a:	f3bf 8f4f 	dsb	sy
 800751e:	b662      	cpsie	i
 8007520:	603b      	str	r3, [r7, #0]
}
 8007522:	bf00      	nop
 8007524:	e7fe      	b.n	8007524 <vPortValidateInterruptPriority+0x68>
	}
 8007526:	bf00      	nop
 8007528:	3714      	adds	r7, #20
 800752a:	46bd      	mov	sp, r7
 800752c:	f85d 7b04 	ldr.w	r7, [sp], #4
 8007530:	4770      	bx	lr
 8007532:	bf00      	nop
 8007534:	e000e3f0 	.word	0xe000e3f0
 8007538:	2000077c 	.word	0x2000077c
 800753c:	e000ed0c 	.word	0xe000ed0c
 8007540:	20000780 	.word	0x20000780

08007544 <pvPortMalloc>:
static size_t xBlockAllocatedBit = 0;

/*-----------------------------------------------------------*/

void *pvPortMalloc( size_t xWantedSize )
{
 8007544:	b580      	push	{r7, lr}
 8007546:	b08a      	sub	sp, #40	; 0x28
 8007548:	af00      	add	r7, sp, #0
 800754a:	6078      	str	r0, [r7, #4]
BlockLink_t *pxBlock, *pxPreviousBlock, *pxNewBlockLink;
void *pvReturn = NULL;
 800754c:	2300      	movs	r3, #0
 800754e:	61fb      	str	r3, [r7, #28]

	vTaskSuspendAll();
 8007550:	f7ff f906 	bl	8006760 <vTaskSuspendAll>
	{
		/* If this is the first call to malloc then the heap will require
		initialisation to setup the list of free blocks. */
		if( pxEnd == NULL )
 8007554:	4b5b      	ldr	r3, [pc, #364]	; (80076c4 <pvPortMalloc+0x180>)
 8007556:	681b      	ldr	r3, [r3, #0]
 8007558:	2b00      	cmp	r3, #0
 800755a:	d101      	bne.n	8007560 <pvPortMalloc+0x1c>
		{
			prvHeapInit();
 800755c:	f000 f91a 	bl	8007794 <prvHeapInit>

		/* Check the requested block size is not so large that the top bit is
		set.  The top bit of the block size member of the BlockLink_t structure
		is used to determine who owns the block - the application or the
		kernel, so it must be free. */
		if( ( xWantedSize & xBlockAllocatedBit ) == 0 )
 8007560:	4b59      	ldr	r3, [pc, #356]	; (80076c8 <pvPortMalloc+0x184>)
 8007562:	681a      	ldr	r2, [r3, #0]
 8007564:	687b      	ldr	r3, [r7, #4]
 8007566:	4013      	ands	r3, r2
 8007568:	2b00      	cmp	r3, #0
 800756a:	f040 8092 	bne.w	8007692 <pvPortMalloc+0x14e>
		{
			/* The wanted size is increased so it can contain a BlockLink_t
			structure in addition to the requested amount of bytes. */
			if( xWantedSize > 0 )
 800756e:	687b      	ldr	r3, [r7, #4]
 8007570:	2b00      	cmp	r3, #0
 8007572:	d01f      	beq.n	80075b4 <pvPortMalloc+0x70>
			{
				xWantedSize += xHeapStructSize;
 8007574:	2208      	movs	r2, #8
 8007576:	687b      	ldr	r3, [r7, #4]
 8007578:	4413      	add	r3, r2
 800757a:	607b      	str	r3, [r7, #4]

				/* Ensure that blocks are always aligned to the required number
				of bytes. */
				if( ( xWantedSize & portBYTE_ALIGNMENT_MASK ) != 0x00 )
 800757c:	687b      	ldr	r3, [r7, #4]
 800757e:	f003 0307 	and.w	r3, r3, #7
 8007582:	2b00      	cmp	r3, #0
 8007584:	d016      	beq.n	80075b4 <pvPortMalloc+0x70>
				{
					/* Byte alignment required. */
					xWantedSize += ( portBYTE_ALIGNMENT - ( xWantedSize & portBYTE_ALIGNMENT_MASK ) );
 8007586:	687b      	ldr	r3, [r7, #4]
 8007588:	f023 0307 	bic.w	r3, r3, #7
 800758c:	3308      	adds	r3, #8
 800758e:	607b      	str	r3, [r7, #4]
					configASSERT( ( xWantedSize & portBYTE_ALIGNMENT_MASK ) == 0 );
 8007590:	687b      	ldr	r3, [r7, #4]
 8007592:	f003 0307 	and.w	r3, r3, #7
 8007596:	2b00      	cmp	r3, #0
 8007598:	d00c      	beq.n	80075b4 <pvPortMalloc+0x70>
	__asm volatile
 800759a:	f04f 0350 	mov.w	r3, #80	; 0x50
 800759e:	b672      	cpsid	i
 80075a0:	f383 8811 	msr	BASEPRI, r3
 80075a4:	f3bf 8f6f 	isb	sy
 80075a8:	f3bf 8f4f 	dsb	sy
 80075ac:	b662      	cpsie	i
 80075ae:	617b      	str	r3, [r7, #20]
}
 80075b0:	bf00      	nop
 80075b2:	e7fe      	b.n	80075b2 <pvPortMalloc+0x6e>
			else
			{
				mtCOVERAGE_TEST_MARKER();
			}

			if( ( xWantedSize > 0 ) && ( xWantedSize <= xFreeBytesRemaining ) )
 80075b4:	687b      	ldr	r3, [r7, #4]
 80075b6:	2b00      	cmp	r3, #0
 80075b8:	d06b      	beq.n	8007692 <pvPortMalloc+0x14e>
 80075ba:	4b44      	ldr	r3, [pc, #272]	; (80076cc <pvPortMalloc+0x188>)
 80075bc:	681b      	ldr	r3, [r3, #0]
 80075be:	687a      	ldr	r2, [r7, #4]
 80075c0:	429a      	cmp	r2, r3
 80075c2:	d866      	bhi.n	8007692 <pvPortMalloc+0x14e>
			{
				/* Traverse the list from the start	(lowest address) block until
				one	of adequate size is found. */
				pxPreviousBlock = &xStart;
 80075c4:	4b42      	ldr	r3, [pc, #264]	; (80076d0 <pvPortMalloc+0x18c>)
 80075c6:	623b      	str	r3, [r7, #32]
				pxBlock = xStart.pxNextFreeBlock;
 80075c8:	4b41      	ldr	r3, [pc, #260]	; (80076d0 <pvPortMalloc+0x18c>)
 80075ca:	681b      	ldr	r3, [r3, #0]
 80075cc:	627b      	str	r3, [r7, #36]	; 0x24
				while( ( pxBlock->xBlockSize < xWantedSize ) && ( pxBlock->pxNextFreeBlock != NULL ) )
 80075ce:	e004      	b.n	80075da <pvPortMalloc+0x96>
				{
					pxPreviousBlock = pxBlock;
 80075d0:	6a7b      	ldr	r3, [r7, #36]	; 0x24
 80075d2:	623b      	str	r3, [r7, #32]
					pxBlock = pxBlock->pxNextFreeBlock;
 80075d4:	6a7b      	ldr	r3, [r7, #36]	; 0x24
 80075d6:	681b      	ldr	r3, [r3, #0]
 80075d8:	627b      	str	r3, [r7, #36]	; 0x24
				while( ( pxBlock->xBlockSize < xWantedSize ) && ( pxBlock->pxNextFreeBlock != NULL ) )
 80075da:	6a7b      	ldr	r3, [r7, #36]	; 0x24
 80075dc:	685b      	ldr	r3, [r3, #4]
 80075de:	687a      	ldr	r2, [r7, #4]
 80075e0:	429a      	cmp	r2, r3
 80075e2:	d903      	bls.n	80075ec <pvPortMalloc+0xa8>
 80075e4:	6a7b      	ldr	r3, [r7, #36]	; 0x24
 80075e6:	681b      	ldr	r3, [r3, #0]
 80075e8:	2b00      	cmp	r3, #0
 80075ea:	d1f1      	bne.n	80075d0 <pvPortMalloc+0x8c>
				}

				/* If the end marker was reached then a block of adequate size
				was	not found. */
				if( pxBlock != pxEnd )
 80075ec:	4b35      	ldr	r3, [pc, #212]	; (80076c4 <pvPortMalloc+0x180>)
 80075ee:	681b      	ldr	r3, [r3, #0]
 80075f0:	6a7a      	ldr	r2, [r7, #36]	; 0x24
 80075f2:	429a      	cmp	r2, r3
 80075f4:	d04d      	beq.n	8007692 <pvPortMalloc+0x14e>
				{
					/* Return the memory space pointed to - jumping over the
					BlockLink_t structure at its start. */
					pvReturn = ( void * ) ( ( ( uint8_t * ) pxPreviousBlock->pxNextFreeBlock ) + xHeapStructSize );
 80075f6:	6a3b      	ldr	r3, [r7, #32]
 80075f8:	681b      	ldr	r3, [r3, #0]
 80075fa:	2208      	movs	r2, #8
 80075fc:	4413      	add	r3, r2
 80075fe:	61fb      	str	r3, [r7, #28]

					/* This block is being returned for use so must be taken out
					of the list of free blocks. */
					pxPreviousBlock->pxNextFreeBlock = pxBlock->pxNextFreeBlock;
 8007600:	6a7b      	ldr	r3, [r7, #36]	; 0x24
 8007602:	681a      	ldr	r2, [r3, #0]
 8007604:	6a3b      	ldr	r3, [r7, #32]
 8007606:	601a      	str	r2, [r3, #0]

					/* If the block is larger than required it can be split into
					two. */
					if( ( pxBlock->xBlockSize - xWantedSize ) > heapMINIMUM_BLOCK_SIZE )
 8007608:	6a7b      	ldr	r3, [r7, #36]	; 0x24
 800760a:	685a      	ldr	r2, [r3, #4]
 800760c:	687b      	ldr	r3, [r7, #4]
 800760e:	1ad2      	subs	r2, r2, r3
 8007610:	2308      	movs	r3, #8
 8007612:	005b      	lsls	r3, r3, #1
 8007614:	429a      	cmp	r2, r3
 8007616:	d921      	bls.n	800765c <pvPortMalloc+0x118>
					{
						/* This block is to be split into two.  Create a new
						block following the number of bytes requested. The void
						cast is used to prevent byte alignment warnings from the
						compiler. */
						pxNewBlockLink = ( void * ) ( ( ( uint8_t * ) pxBlock ) + xWantedSize );
 8007618:	6a7a      	ldr	r2, [r7, #36]	; 0x24
 800761a:	687b      	ldr	r3, [r7, #4]
 800761c:	4413      	add	r3, r2
 800761e:	61bb      	str	r3, [r7, #24]
						configASSERT( ( ( ( size_t ) pxNewBlockLink ) & portBYTE_ALIGNMENT_MASK ) == 0 );
 8007620:	69bb      	ldr	r3, [r7, #24]
 8007622:	f003 0307 	and.w	r3, r3, #7
 8007626:	2b00      	cmp	r3, #0
 8007628:	d00c      	beq.n	8007644 <pvPortMalloc+0x100>
	__asm volatile
 800762a:	f04f 0350 	mov.w	r3, #80	; 0x50
 800762e:	b672      	cpsid	i
 8007630:	f383 8811 	msr	BASEPRI, r3
 8007634:	f3bf 8f6f 	isb	sy
 8007638:	f3bf 8f4f 	dsb	sy
 800763c:	b662      	cpsie	i
 800763e:	613b      	str	r3, [r7, #16]
}
 8007640:	bf00      	nop
 8007642:	e7fe      	b.n	8007642 <pvPortMalloc+0xfe>

						/* Calculate the sizes of two blocks split from the
						single block. */
						pxNewBlockLink->xBlockSize = pxBlock->xBlockSize - xWantedSize;
 8007644:	6a7b      	ldr	r3, [r7, #36]	; 0x24
 8007646:	685a      	ldr	r2, [r3, #4]
 8007648:	687b      	ldr	r3, [r7, #4]
 800764a:	1ad2      	subs	r2, r2, r3
 800764c:	69bb      	ldr	r3, [r7, #24]
 800764e:	605a      	str	r2, [r3, #4]
						pxBlock->xBlockSize = xWantedSize;
 8007650:	6a7b      	ldr	r3, [r7, #36]	; 0x24
 8007652:	687a      	ldr	r2, [r7, #4]
 8007654:	605a      	str	r2, [r3, #4]

						/* Insert the new block into the list of free blocks. */
						prvInsertBlockIntoFreeList( pxNewBlockLink );
 8007656:	69b8      	ldr	r0, [r7, #24]
 8007658:	f000 f8fe 	bl	8007858 <prvInsertBlockIntoFreeList>
					else
					{
						mtCOVERAGE_TEST_MARKER();
					}

					xFreeBytesRemaining -= pxBlock->xBlockSize;
 800765c:	4b1b      	ldr	r3, [pc, #108]	; (80076cc <pvPortMalloc+0x188>)
 800765e:	681a      	ldr	r2, [r3, #0]
 8007660:	6a7b      	ldr	r3, [r7, #36]	; 0x24
 8007662:	685b      	ldr	r3, [r3, #4]
 8007664:	1ad3      	subs	r3, r2, r3
 8007666:	4a19      	ldr	r2, [pc, #100]	; (80076cc <pvPortMalloc+0x188>)
 8007668:	6013      	str	r3, [r2, #0]

					if( xFreeBytesRemaining < xMinimumEverFreeBytesRemaining )
 800766a:	4b18      	ldr	r3, [pc, #96]	; (80076cc <pvPortMalloc+0x188>)
 800766c:	681a      	ldr	r2, [r3, #0]
 800766e:	4b19      	ldr	r3, [pc, #100]	; (80076d4 <pvPortMalloc+0x190>)
 8007670:	681b      	ldr	r3, [r3, #0]
 8007672:	429a      	cmp	r2, r3
 8007674:	d203      	bcs.n	800767e <pvPortMalloc+0x13a>
					{
						xMinimumEverFreeBytesRemaining = xFreeBytesRemaining;
 8007676:	4b15      	ldr	r3, [pc, #84]	; (80076cc <pvPortMalloc+0x188>)
 8007678:	681b      	ldr	r3, [r3, #0]
 800767a:	4a16      	ldr	r2, [pc, #88]	; (80076d4 <pvPortMalloc+0x190>)
 800767c:	6013      	str	r3, [r2, #0]
						mtCOVERAGE_TEST_MARKER();
					}

					/* The block is being returned - it is allocated and owned
					by the application and has no "next" block. */
					pxBlock->xBlockSize |= xBlockAllocatedBit;
 800767e:	6a7b      	ldr	r3, [r7, #36]	; 0x24
 8007680:	685a      	ldr	r2, [r3, #4]
 8007682:	4b11      	ldr	r3, [pc, #68]	; (80076c8 <pvPortMalloc+0x184>)
 8007684:	681b      	ldr	r3, [r3, #0]
 8007686:	431a      	orrs	r2, r3
 8007688:	6a7b      	ldr	r3, [r7, #36]	; 0x24
 800768a:	605a      	str	r2, [r3, #4]
					pxBlock->pxNextFreeBlock = NULL;
 800768c:	6a7b      	ldr	r3, [r7, #36]	; 0x24
 800768e:	2200      	movs	r2, #0
 8007690:	601a      	str	r2, [r3, #0]
			mtCOVERAGE_TEST_MARKER();
		}

		traceMALLOC( pvReturn, xWantedSize );
	}
	( void ) xTaskResumeAll();
 8007692:	f7ff f873 	bl	800677c <xTaskResumeAll>
			mtCOVERAGE_TEST_MARKER();
		}
	}
	#endif

	configASSERT( ( ( ( size_t ) pvReturn ) & ( size_t ) portBYTE_ALIGNMENT_MASK ) == 0 );
 8007696:	69fb      	ldr	r3, [r7, #28]
 8007698:	f003 0307 	and.w	r3, r3, #7
 800769c:	2b00      	cmp	r3, #0
 800769e:	d00c      	beq.n	80076ba <pvPortMalloc+0x176>
	__asm volatile
 80076a0:	f04f 0350 	mov.w	r3, #80	; 0x50
 80076a4:	b672      	cpsid	i
 80076a6:	f383 8811 	msr	BASEPRI, r3
 80076aa:	f3bf 8f6f 	isb	sy
 80076ae:	f3bf 8f4f 	dsb	sy
 80076b2:	b662      	cpsie	i
 80076b4:	60fb      	str	r3, [r7, #12]
}
 80076b6:	bf00      	nop
 80076b8:	e7fe      	b.n	80076b8 <pvPortMalloc+0x174>
	return pvReturn;
 80076ba:	69fb      	ldr	r3, [r7, #28]
}
 80076bc:	4618      	mov	r0, r3
 80076be:	3728      	adds	r7, #40	; 0x28
 80076c0:	46bd      	mov	sp, r7
 80076c2:	bd80      	pop	{r7, pc}
 80076c4:	2000438c 	.word	0x2000438c
 80076c8:	20004398 	.word	0x20004398
 80076cc:	20004390 	.word	0x20004390
 80076d0:	20004384 	.word	0x20004384
 80076d4:	20004394 	.word	0x20004394

080076d8 <vPortFree>:
/*-----------------------------------------------------------*/

void vPortFree( void *pv )
{
 80076d8:	b580      	push	{r7, lr}
 80076da:	b086      	sub	sp, #24
 80076dc:	af00      	add	r7, sp, #0
 80076de:	6078      	str	r0, [r7, #4]
uint8_t *puc = ( uint8_t * ) pv;
 80076e0:	687b      	ldr	r3, [r7, #4]
 80076e2:	617b      	str	r3, [r7, #20]
BlockLink_t *pxLink;

	if( pv != NULL )
 80076e4:	687b      	ldr	r3, [r7, #4]
 80076e6:	2b00      	cmp	r3, #0
 80076e8:	d04c      	beq.n	8007784 <vPortFree+0xac>
	{
		/* The memory being freed will have an BlockLink_t structure immediately
		before it. */
		puc -= xHeapStructSize;
 80076ea:	2308      	movs	r3, #8
 80076ec:	425b      	negs	r3, r3
 80076ee:	697a      	ldr	r2, [r7, #20]
 80076f0:	4413      	add	r3, r2
 80076f2:	617b      	str	r3, [r7, #20]

		/* This casting is to keep the compiler from issuing warnings. */
		pxLink = ( void * ) puc;
 80076f4:	697b      	ldr	r3, [r7, #20]
 80076f6:	613b      	str	r3, [r7, #16]

		/* Check the block is actually allocated. */
		configASSERT( ( pxLink->xBlockSize & xBlockAllocatedBit ) != 0 );
 80076f8:	693b      	ldr	r3, [r7, #16]
 80076fa:	685a      	ldr	r2, [r3, #4]
 80076fc:	4b23      	ldr	r3, [pc, #140]	; (800778c <vPortFree+0xb4>)
 80076fe:	681b      	ldr	r3, [r3, #0]
 8007700:	4013      	ands	r3, r2
 8007702:	2b00      	cmp	r3, #0
 8007704:	d10c      	bne.n	8007720 <vPortFree+0x48>
	__asm volatile
 8007706:	f04f 0350 	mov.w	r3, #80	; 0x50
 800770a:	b672      	cpsid	i
 800770c:	f383 8811 	msr	BASEPRI, r3
 8007710:	f3bf 8f6f 	isb	sy
 8007714:	f3bf 8f4f 	dsb	sy
 8007718:	b662      	cpsie	i
 800771a:	60fb      	str	r3, [r7, #12]
}
 800771c:	bf00      	nop
 800771e:	e7fe      	b.n	800771e <vPortFree+0x46>
		configASSERT( pxLink->pxNextFreeBlock == NULL );
 8007720:	693b      	ldr	r3, [r7, #16]
 8007722:	681b      	ldr	r3, [r3, #0]
 8007724:	2b00      	cmp	r3, #0
 8007726:	d00c      	beq.n	8007742 <vPortFree+0x6a>
	__asm volatile
 8007728:	f04f 0350 	mov.w	r3, #80	; 0x50
 800772c:	b672      	cpsid	i
 800772e:	f383 8811 	msr	BASEPRI, r3
 8007732:	f3bf 8f6f 	isb	sy
 8007736:	f3bf 8f4f 	dsb	sy
 800773a:	b662      	cpsie	i
 800773c:	60bb      	str	r3, [r7, #8]
}
 800773e:	bf00      	nop
 8007740:	e7fe      	b.n	8007740 <vPortFree+0x68>

		if( ( pxLink->xBlockSize & xBlockAllocatedBit ) != 0 )
 8007742:	693b      	ldr	r3, [r7, #16]
 8007744:	685a      	ldr	r2, [r3, #4]
 8007746:	4b11      	ldr	r3, [pc, #68]	; (800778c <vPortFree+0xb4>)
 8007748:	681b      	ldr	r3, [r3, #0]
 800774a:	4013      	ands	r3, r2
 800774c:	2b00      	cmp	r3, #0
 800774e:	d019      	beq.n	8007784 <vPortFree+0xac>
		{
			if( pxLink->pxNextFreeBlock == NULL )
 8007750:	693b      	ldr	r3, [r7, #16]
 8007752:	681b      	ldr	r3, [r3, #0]
 8007754:	2b00      	cmp	r3, #0
 8007756:	d115      	bne.n	8007784 <vPortFree+0xac>
			{
				/* The block is being returned to the heap - it is no longer
				allocated. */
				pxLink->xBlockSize &= ~xBlockAllocatedBit;
 8007758:	693b      	ldr	r3, [r7, #16]
 800775a:	685a      	ldr	r2, [r3, #4]
 800775c:	4b0b      	ldr	r3, [pc, #44]	; (800778c <vPortFree+0xb4>)
 800775e:	681b      	ldr	r3, [r3, #0]
 8007760:	43db      	mvns	r3, r3
 8007762:	401a      	ands	r2, r3
 8007764:	693b      	ldr	r3, [r7, #16]
 8007766:	605a      	str	r2, [r3, #4]

				vTaskSuspendAll();
 8007768:	f7fe fffa 	bl	8006760 <vTaskSuspendAll>
				{
					/* Add this block to the list of free blocks. */
					xFreeBytesRemaining += pxLink->xBlockSize;
 800776c:	693b      	ldr	r3, [r7, #16]
 800776e:	685a      	ldr	r2, [r3, #4]
 8007770:	4b07      	ldr	r3, [pc, #28]	; (8007790 <vPortFree+0xb8>)
 8007772:	681b      	ldr	r3, [r3, #0]
 8007774:	4413      	add	r3, r2
 8007776:	4a06      	ldr	r2, [pc, #24]	; (8007790 <vPortFree+0xb8>)
 8007778:	6013      	str	r3, [r2, #0]
					traceFREE( pv, pxLink->xBlockSize );
					prvInsertBlockIntoFreeList( ( ( BlockLink_t * ) pxLink ) );
 800777a:	6938      	ldr	r0, [r7, #16]
 800777c:	f000 f86c 	bl	8007858 <prvInsertBlockIntoFreeList>
				}
				( void ) xTaskResumeAll();
 8007780:	f7fe fffc 	bl	800677c <xTaskResumeAll>
		else
		{
			mtCOVERAGE_TEST_MARKER();
		}
	}
}
 8007784:	bf00      	nop
 8007786:	3718      	adds	r7, #24
 8007788:	46bd      	mov	sp, r7
 800778a:	bd80      	pop	{r7, pc}
 800778c:	20004398 	.word	0x20004398
 8007790:	20004390 	.word	0x20004390

08007794 <prvHeapInit>:
	/* This just exists to keep the linker quiet. */
}
/*-----------------------------------------------------------*/

static void prvHeapInit( void )
{
 8007794:	b480      	push	{r7}
 8007796:	b085      	sub	sp, #20
 8007798:	af00      	add	r7, sp, #0
BlockLink_t *pxFirstFreeBlock;
uint8_t *pucAlignedHeap;
size_t uxAddress;
size_t xTotalHeapSize = configTOTAL_HEAP_SIZE;
 800779a:	f44f 5370 	mov.w	r3, #15360	; 0x3c00
 800779e:	60bb      	str	r3, [r7, #8]

	/* Ensure the heap starts on a correctly aligned boundary. */
	uxAddress = ( size_t ) ucHeap;
 80077a0:	4b27      	ldr	r3, [pc, #156]	; (8007840 <prvHeapInit+0xac>)
 80077a2:	60fb      	str	r3, [r7, #12]

	if( ( uxAddress & portBYTE_ALIGNMENT_MASK ) != 0 )
 80077a4:	68fb      	ldr	r3, [r7, #12]
 80077a6:	f003 0307 	and.w	r3, r3, #7
 80077aa:	2b00      	cmp	r3, #0
 80077ac:	d00c      	beq.n	80077c8 <prvHeapInit+0x34>
	{
		uxAddress += ( portBYTE_ALIGNMENT - 1 );
 80077ae:	68fb      	ldr	r3, [r7, #12]
 80077b0:	3307      	adds	r3, #7
 80077b2:	60fb      	str	r3, [r7, #12]
		uxAddress &= ~( ( size_t ) portBYTE_ALIGNMENT_MASK );
 80077b4:	68fb      	ldr	r3, [r7, #12]
 80077b6:	f023 0307 	bic.w	r3, r3, #7
 80077ba:	60fb      	str	r3, [r7, #12]
		xTotalHeapSize -= uxAddress - ( size_t ) ucHeap;
 80077bc:	68ba      	ldr	r2, [r7, #8]
 80077be:	68fb      	ldr	r3, [r7, #12]
 80077c0:	1ad3      	subs	r3, r2, r3
 80077c2:	4a1f      	ldr	r2, [pc, #124]	; (8007840 <prvHeapInit+0xac>)
 80077c4:	4413      	add	r3, r2
 80077c6:	60bb      	str	r3, [r7, #8]
	}

	pucAlignedHeap = ( uint8_t * ) uxAddress;
 80077c8:	68fb      	ldr	r3, [r7, #12]
 80077ca:	607b      	str	r3, [r7, #4]

	/* xStart is used to hold a pointer to the first item in the list of free
	blocks.  The void cast is used to prevent compiler warnings. */
	xStart.pxNextFreeBlock = ( void * ) pucAlignedHeap;
 80077cc:	4a1d      	ldr	r2, [pc, #116]	; (8007844 <prvHeapInit+0xb0>)
 80077ce:	687b      	ldr	r3, [r7, #4]
 80077d0:	6013      	str	r3, [r2, #0]
	xStart.xBlockSize = ( size_t ) 0;
 80077d2:	4b1c      	ldr	r3, [pc, #112]	; (8007844 <prvHeapInit+0xb0>)
 80077d4:	2200      	movs	r2, #0
 80077d6:	605a      	str	r2, [r3, #4]

	/* pxEnd is used to mark the end of the list of free blocks and is inserted
	at the end of the heap space. */
	uxAddress = ( ( size_t ) pucAlignedHeap ) + xTotalHeapSize;
 80077d8:	687b      	ldr	r3, [r7, #4]
 80077da:	68ba      	ldr	r2, [r7, #8]
 80077dc:	4413      	add	r3, r2
 80077de:	60fb      	str	r3, [r7, #12]
	uxAddress -= xHeapStructSize;
 80077e0:	2208      	movs	r2, #8
 80077e2:	68fb      	ldr	r3, [r7, #12]
 80077e4:	1a9b      	subs	r3, r3, r2
 80077e6:	60fb      	str	r3, [r7, #12]
	uxAddress &= ~( ( size_t ) portBYTE_ALIGNMENT_MASK );
 80077e8:	68fb      	ldr	r3, [r7, #12]
 80077ea:	f023 0307 	bic.w	r3, r3, #7
 80077ee:	60fb      	str	r3, [r7, #12]
	pxEnd = ( void * ) uxAddress;
 80077f0:	68fb      	ldr	r3, [r7, #12]
 80077f2:	4a15      	ldr	r2, [pc, #84]	; (8007848 <prvHeapInit+0xb4>)
 80077f4:	6013      	str	r3, [r2, #0]
	pxEnd->xBlockSize = 0;
 80077f6:	4b14      	ldr	r3, [pc, #80]	; (8007848 <prvHeapInit+0xb4>)
 80077f8:	681b      	ldr	r3, [r3, #0]
 80077fa:	2200      	movs	r2, #0
 80077fc:	605a      	str	r2, [r3, #4]
	pxEnd->pxNextFreeBlock = NULL;
 80077fe:	4b12      	ldr	r3, [pc, #72]	; (8007848 <prvHeapInit+0xb4>)
 8007800:	681b      	ldr	r3, [r3, #0]
 8007802:	2200      	movs	r2, #0
 8007804:	601a      	str	r2, [r3, #0]

	/* To start with there is a single free block that is sized to take up the
	entire heap space, minus the space taken by pxEnd. */
	pxFirstFreeBlock = ( void * ) pucAlignedHeap;
 8007806:	687b      	ldr	r3, [r7, #4]
 8007808:	603b      	str	r3, [r7, #0]
	pxFirstFreeBlock->xBlockSize = uxAddress - ( size_t ) pxFirstFreeBlock;
 800780a:	683b      	ldr	r3, [r7, #0]
 800780c:	68fa      	ldr	r2, [r7, #12]
 800780e:	1ad2      	subs	r2, r2, r3
 8007810:	683b      	ldr	r3, [r7, #0]
 8007812:	605a      	str	r2, [r3, #4]
	pxFirstFreeBlock->pxNextFreeBlock = pxEnd;
 8007814:	4b0c      	ldr	r3, [pc, #48]	; (8007848 <prvHeapInit+0xb4>)
 8007816:	681a      	ldr	r2, [r3, #0]
 8007818:	683b      	ldr	r3, [r7, #0]
 800781a:	601a      	str	r2, [r3, #0]

	/* Only one block exists - and it covers the entire usable heap space. */
	xMinimumEverFreeBytesRemaining = pxFirstFreeBlock->xBlockSize;
 800781c:	683b      	ldr	r3, [r7, #0]
 800781e:	685b      	ldr	r3, [r3, #4]
 8007820:	4a0a      	ldr	r2, [pc, #40]	; (800784c <prvHeapInit+0xb8>)
 8007822:	6013      	str	r3, [r2, #0]
	xFreeBytesRemaining = pxFirstFreeBlock->xBlockSize;
 8007824:	683b      	ldr	r3, [r7, #0]
 8007826:	685b      	ldr	r3, [r3, #4]
 8007828:	4a09      	ldr	r2, [pc, #36]	; (8007850 <prvHeapInit+0xbc>)
 800782a:	6013      	str	r3, [r2, #0]

	/* Work out the position of the top bit in a size_t variable. */
	xBlockAllocatedBit = ( ( size_t ) 1 ) << ( ( sizeof( size_t ) * heapBITS_PER_BYTE ) - 1 );
 800782c:	4b09      	ldr	r3, [pc, #36]	; (8007854 <prvHeapInit+0xc0>)
 800782e:	f04f 4200 	mov.w	r2, #2147483648	; 0x80000000
 8007832:	601a      	str	r2, [r3, #0]
}
 8007834:	bf00      	nop
 8007836:	3714      	adds	r7, #20
 8007838:	46bd      	mov	sp, r7
 800783a:	f85d 7b04 	ldr.w	r7, [sp], #4
 800783e:	4770      	bx	lr
 8007840:	20000784 	.word	0x20000784
 8007844:	20004384 	.word	0x20004384
 8007848:	2000438c 	.word	0x2000438c
 800784c:	20004394 	.word	0x20004394
 8007850:	20004390 	.word	0x20004390
 8007854:	20004398 	.word	0x20004398

08007858 <prvInsertBlockIntoFreeList>:
/*-----------------------------------------------------------*/

static void prvInsertBlockIntoFreeList( BlockLink_t *pxBlockToInsert )
{
 8007858:	b480      	push	{r7}
 800785a:	b085      	sub	sp, #20
 800785c:	af00      	add	r7, sp, #0
 800785e:	6078      	str	r0, [r7, #4]
BlockLink_t *pxIterator;
uint8_t *puc;

	/* Iterate through the list until a block is found that has a higher address
	than the block being inserted. */
	for( pxIterator = &xStart; pxIterator->pxNextFreeBlock < pxBlockToInsert; pxIterator = pxIterator->pxNextFreeBlock )
 8007860:	4b28      	ldr	r3, [pc, #160]	; (8007904 <prvInsertBlockIntoFreeList+0xac>)
 8007862:	60fb      	str	r3, [r7, #12]
 8007864:	e002      	b.n	800786c <prvInsertBlockIntoFreeList+0x14>
 8007866:	68fb      	ldr	r3, [r7, #12]
 8007868:	681b      	ldr	r3, [r3, #0]
 800786a:	60fb      	str	r3, [r7, #12]
 800786c:	68fb      	ldr	r3, [r7, #12]
 800786e:	681b      	ldr	r3, [r3, #0]
 8007870:	687a      	ldr	r2, [r7, #4]
 8007872:	429a      	cmp	r2, r3
 8007874:	d8f7      	bhi.n	8007866 <prvInsertBlockIntoFreeList+0xe>
		/* Nothing to do here, just iterate to the right position. */
	}

	/* Do the block being inserted, and the block it is being inserted after
	make a contiguous block of memory? */
	puc = ( uint8_t * ) pxIterator;
 8007876:	68fb      	ldr	r3, [r7, #12]
 8007878:	60bb      	str	r3, [r7, #8]
	if( ( puc + pxIterator->xBlockSize ) == ( uint8_t * ) pxBlockToInsert )
 800787a:	68fb      	ldr	r3, [r7, #12]
 800787c:	685b      	ldr	r3, [r3, #4]
 800787e:	68ba      	ldr	r2, [r7, #8]
 8007880:	4413      	add	r3, r2
 8007882:	687a      	ldr	r2, [r7, #4]
 8007884:	429a      	cmp	r2, r3
 8007886:	d108      	bne.n	800789a <prvInsertBlockIntoFreeList+0x42>
	{
		pxIterator->xBlockSize += pxBlockToInsert->xBlockSize;
 8007888:	68fb      	ldr	r3, [r7, #12]
 800788a:	685a      	ldr	r2, [r3, #4]
 800788c:	687b      	ldr	r3, [r7, #4]
 800788e:	685b      	ldr	r3, [r3, #4]
 8007890:	441a      	add	r2, r3
 8007892:	68fb      	ldr	r3, [r7, #12]
 8007894:	605a      	str	r2, [r3, #4]
		pxBlockToInsert = pxIterator;
 8007896:	68fb      	ldr	r3, [r7, #12]
 8007898:	607b      	str	r3, [r7, #4]
		mtCOVERAGE_TEST_MARKER();
	}

	/* Do the block being inserted, and the block it is being inserted before
	make a contiguous block of memory? */
	puc = ( uint8_t * ) pxBlockToInsert;
 800789a:	687b      	ldr	r3, [r7, #4]
 800789c:	60bb      	str	r3, [r7, #8]
	if( ( puc + pxBlockToInsert->xBlockSize ) == ( uint8_t * ) pxIterator->pxNextFreeBlock )
 800789e:	687b      	ldr	r3, [r7, #4]
 80078a0:	685b      	ldr	r3, [r3, #4]
 80078a2:	68ba      	ldr	r2, [r7, #8]
 80078a4:	441a      	add	r2, r3
 80078a6:	68fb      	ldr	r3, [r7, #12]
 80078a8:	681b      	ldr	r3, [r3, #0]
 80078aa:	429a      	cmp	r2, r3
 80078ac:	d118      	bne.n	80078e0 <prvInsertBlockIntoFreeList+0x88>
	{
		if( pxIterator->pxNextFreeBlock != pxEnd )
 80078ae:	68fb      	ldr	r3, [r7, #12]
 80078b0:	681a      	ldr	r2, [r3, #0]
 80078b2:	4b15      	ldr	r3, [pc, #84]	; (8007908 <prvInsertBlockIntoFreeList+0xb0>)
 80078b4:	681b      	ldr	r3, [r3, #0]
 80078b6:	429a      	cmp	r2, r3
 80078b8:	d00d      	beq.n	80078d6 <prvInsertBlockIntoFreeList+0x7e>
		{
			/* Form one big block from the two blocks. */
			pxBlockToInsert->xBlockSize += pxIterator->pxNextFreeBlock->xBlockSize;
 80078ba:	687b      	ldr	r3, [r7, #4]
 80078bc:	685a      	ldr	r2, [r3, #4]
 80078be:	68fb      	ldr	r3, [r7, #12]
 80078c0:	681b      	ldr	r3, [r3, #0]
 80078c2:	685b      	ldr	r3, [r3, #4]
 80078c4:	441a      	add	r2, r3
 80078c6:	687b      	ldr	r3, [r7, #4]
 80078c8:	605a      	str	r2, [r3, #4]
			pxBlockToInsert->pxNextFreeBlock = pxIterator->pxNextFreeBlock->pxNextFreeBlock;
 80078ca:	68fb      	ldr	r3, [r7, #12]
 80078cc:	681b      	ldr	r3, [r3, #0]
 80078ce:	681a      	ldr	r2, [r3, #0]
 80078d0:	687b      	ldr	r3, [r7, #4]
 80078d2:	601a      	str	r2, [r3, #0]
 80078d4:	e008      	b.n	80078e8 <prvInsertBlockIntoFreeList+0x90>
		}
		else
		{
			pxBlockToInsert->pxNextFreeBlock = pxEnd;
 80078d6:	4b0c      	ldr	r3, [pc, #48]	; (8007908 <prvInsertBlockIntoFreeList+0xb0>)
 80078d8:	681a      	ldr	r2, [r3, #0]
 80078da:	687b      	ldr	r3, [r7, #4]
 80078dc:	601a      	str	r2, [r3, #0]
 80078de:	e003      	b.n	80078e8 <prvInsertBlockIntoFreeList+0x90>
		}
	}
	else
	{
		pxBlockToInsert->pxNextFreeBlock = pxIterator->pxNextFreeBlock;
 80078e0:	68fb      	ldr	r3, [r7, #12]
 80078e2:	681a      	ldr	r2, [r3, #0]
 80078e4:	687b      	ldr	r3, [r7, #4]
 80078e6:	601a      	str	r2, [r3, #0]

	/* If the block being inserted plugged a gab, so was merged with the block
	before and the block after, then it's pxNextFreeBlock pointer will have
	already been set, and should not be set here as that would make it point
	to itself. */
	if( pxIterator != pxBlockToInsert )
 80078e8:	68fa      	ldr	r2, [r7, #12]
 80078ea:	687b      	ldr	r3, [r7, #4]
 80078ec:	429a      	cmp	r2, r3
 80078ee:	d002      	beq.n	80078f6 <prvInsertBlockIntoFreeList+0x9e>
	{
		pxIterator->pxNextFreeBlock = pxBlockToInsert;
 80078f0:	68fb      	ldr	r3, [r7, #12]
 80078f2:	687a      	ldr	r2, [r7, #4]
 80078f4:	601a      	str	r2, [r3, #0]
	}
	else
	{
		mtCOVERAGE_TEST_MARKER();
	}
}
 80078f6:	bf00      	nop
 80078f8:	3714      	adds	r7, #20
 80078fa:	46bd      	mov	sp, r7
 80078fc:	f85d 7b04 	ldr.w	r7, [sp], #4
 8007900:	4770      	bx	lr
 8007902:	bf00      	nop
 8007904:	20004384 	.word	0x20004384
 8007908:	2000438c 	.word	0x2000438c

0800790c <MAX581x_WriteCommand>:
#include "MAX581x.h"

void MAX581x_WriteCommand(MAX581x_Handler_t *dacDevice)
{
 800790c:	b580      	push	{r7, lr}
 800790e:	b084      	sub	sp, #16
 8007910:	af02      	add	r7, sp, #8
 8007912:	6078      	str	r0, [r7, #4]
	dacDevice->i2cAddress = (0x10 | MAX581x_ADDRESS) << 1;
 8007914:	687b      	ldr	r3, [r7, #4]
 8007916:	2220      	movs	r2, #32
 8007918:	711a      	strb	r2, [r3, #4]
	HAL_I2C_Master_Transmit(dacDevice->i2cHandler, dacDevice->i2cAddress, dacDevice->txBuffer, 3, 1000);
 800791a:	687b      	ldr	r3, [r7, #4]
 800791c:	6818      	ldr	r0, [r3, #0]
 800791e:	687b      	ldr	r3, [r7, #4]
 8007920:	791b      	ldrb	r3, [r3, #4]
 8007922:	b299      	uxth	r1, r3
 8007924:	687b      	ldr	r3, [r7, #4]
 8007926:	1d5a      	adds	r2, r3, #5
 8007928:	f44f 737a 	mov.w	r3, #1000	; 0x3e8
 800792c:	9300      	str	r3, [sp, #0]
 800792e:	2303      	movs	r3, #3
 8007930:	f7fa ff34 	bl	800279c <HAL_I2C_Master_Transmit>
}
 8007934:	bf00      	nop
 8007936:	3708      	adds	r7, #8
 8007938:	46bd      	mov	sp, r7
 800793a:	bd80      	pop	{r7, pc}

0800793c <MAX581x_Init>:
	dacDevice->i2cAddress = (0x10 | MAX581x_ADDRESS) << 1;
	HAL_I2C_Master_Transmit(dacDevice->i2cHandler, dacDevice->i2cAddress, dacDevice->txBuffer, 3, 1000);
}

void MAX581x_Init(MAX581x_Handler_t *dacDevice, I2C_HandleTypeDef *hi2c, uint8_t dacRefSelector)
{
 800793c:	b580      	push	{r7, lr}
 800793e:	b084      	sub	sp, #16
 8007940:	af00      	add	r7, sp, #0
 8007942:	60f8      	str	r0, [r7, #12]
 8007944:	60b9      	str	r1, [r7, #8]
 8007946:	4613      	mov	r3, r2
 8007948:	71fb      	strb	r3, [r7, #7]
	dacDevice->i2cHandler = hi2c;
 800794a:	68fb      	ldr	r3, [r7, #12]
 800794c:	68ba      	ldr	r2, [r7, #8]
 800794e:	601a      	str	r2, [r3, #0]

	MAX581x_Config(dacDevice, MAX581x_DISABLE_LATCH | MAX581x_SEL_ALL, MAX581x_SEL_A | MAX581x_SEL_B | MAX581x_SEL_C | MAX581x_SEL_D);
 8007950:	220f      	movs	r2, #15
 8007952:	2141      	movs	r1, #65	; 0x41
 8007954:	68f8      	ldr	r0, [r7, #12]
 8007956:	f000 f80c 	bl	8007972 <MAX581x_Config>
	MAX581x_Reference(dacDevice, dacRefSelector | MAX581x_REF_PWR_ON);
 800795a:	79fb      	ldrb	r3, [r7, #7]
 800795c:	f043 0304 	orr.w	r3, r3, #4
 8007960:	b2db      	uxtb	r3, r3
 8007962:	4619      	mov	r1, r3
 8007964:	68f8      	ldr	r0, [r7, #12]
 8007966:	f000 f81f 	bl	80079a8 <MAX581x_Reference>
}
 800796a:	bf00      	nop
 800796c:	3710      	adds	r7, #16
 800796e:	46bd      	mov	sp, r7
 8007970:	bd80      	pop	{r7, pc}

08007972 <MAX581x_Config>:

void MAX581x_Config(MAX581x_Handler_t *dacDevice, uint8_t dacLatch, uint8_t dacConfigSelector)
{
 8007972:	b580      	push	{r7, lr}
 8007974:	b082      	sub	sp, #8
 8007976:	af00      	add	r7, sp, #0
 8007978:	6078      	str	r0, [r7, #4]
 800797a:	460b      	mov	r3, r1
 800797c:	70fb      	strb	r3, [r7, #3]
 800797e:	4613      	mov	r3, r2
 8007980:	70bb      	strb	r3, [r7, #2]
	dacDevice->txBuffer[0] = MAX581x_CMD_CONFIG | dacLatch;
 8007982:	78fb      	ldrb	r3, [r7, #3]
 8007984:	f043 0360 	orr.w	r3, r3, #96	; 0x60
 8007988:	b2da      	uxtb	r2, r3
 800798a:	687b      	ldr	r3, [r7, #4]
 800798c:	715a      	strb	r2, [r3, #5]
	dacDevice->txBuffer[1] = dacConfigSelector;
 800798e:	687b      	ldr	r3, [r7, #4]
 8007990:	78ba      	ldrb	r2, [r7, #2]
 8007992:	719a      	strb	r2, [r3, #6]
	dacDevice->txBuffer[2] = 0x00;
 8007994:	687b      	ldr	r3, [r7, #4]
 8007996:	2200      	movs	r2, #0
 8007998:	71da      	strb	r2, [r3, #7]

	MAX581x_WriteCommand(dacDevice);
 800799a:	6878      	ldr	r0, [r7, #4]
 800799c:	f7ff ffb6 	bl	800790c <MAX581x_WriteCommand>
}
 80079a0:	bf00      	nop
 80079a2:	3708      	adds	r7, #8
 80079a4:	46bd      	mov	sp, r7
 80079a6:	bd80      	pop	{r7, pc}

080079a8 <MAX581x_Reference>:

void MAX581x_Reference(MAX581x_Handler_t *dacDevice, uint8_t dacRefConfig)
{
 80079a8:	b580      	push	{r7, lr}
 80079aa:	b082      	sub	sp, #8
 80079ac:	af00      	add	r7, sp, #0
 80079ae:	6078      	str	r0, [r7, #4]
 80079b0:	460b      	mov	r3, r1
 80079b2:	70fb      	strb	r3, [r7, #3]
	dacDevice->txBuffer[0] = MAX581x_CMD_REF | dacRefConfig;
 80079b4:	78fb      	ldrb	r3, [r7, #3]
 80079b6:	f043 0370 	orr.w	r3, r3, #112	; 0x70
 80079ba:	b2da      	uxtb	r2, r3
 80079bc:	687b      	ldr	r3, [r7, #4]
 80079be:	715a      	strb	r2, [r3, #5]
	dacDevice->txBuffer[1] = 0x00;
 80079c0:	687b      	ldr	r3, [r7, #4]
 80079c2:	2200      	movs	r2, #0
 80079c4:	719a      	strb	r2, [r3, #6]
	dacDevice->txBuffer[2] = 0x00;
 80079c6:	687b      	ldr	r3, [r7, #4]
 80079c8:	2200      	movs	r2, #0
 80079ca:	71da      	strb	r2, [r3, #7]

	MAX581x_WriteCommand(dacDevice);
 80079cc:	6878      	ldr	r0, [r7, #4]
 80079ce:	f7ff ff9d 	bl	800790c <MAX581x_WriteCommand>
}
 80079d2:	bf00      	nop
 80079d4:	3708      	adds	r7, #8
 80079d6:	46bd      	mov	sp, r7
 80079d8:	bd80      	pop	{r7, pc}

080079da <MAX581x_Code>:

void MAX581x_Code(MAX581x_Handler_t *dacDevice, uint8_t dacSelector, uint16_t dacData)
{
 80079da:	b580      	push	{r7, lr}
 80079dc:	b082      	sub	sp, #8
 80079de:	af00      	add	r7, sp, #0
 80079e0:	6078      	str	r0, [r7, #4]
 80079e2:	460b      	mov	r3, r1
 80079e4:	70fb      	strb	r3, [r7, #3]
 80079e6:	4613      	mov	r3, r2
 80079e8:	803b      	strh	r3, [r7, #0]
	dacDevice->txBuffer[0] = MAX581x_CMD_CODEn | dacSelector;
 80079ea:	687b      	ldr	r3, [r7, #4]
 80079ec:	78fa      	ldrb	r2, [r7, #3]
 80079ee:	715a      	strb	r2, [r3, #5]
	dacDevice->txBuffer[1] = (uint8_t)((dacData >> MAX581x_RIGHT_SHIFT) & 0xFF);
 80079f0:	883b      	ldrh	r3, [r7, #0]
 80079f2:	091b      	lsrs	r3, r3, #4
 80079f4:	b29b      	uxth	r3, r3
 80079f6:	b2da      	uxtb	r2, r3
 80079f8:	687b      	ldr	r3, [r7, #4]
 80079fa:	719a      	strb	r2, [r3, #6]
	dacDevice->txBuffer[2] = (uint8_t)((dacData << MAX581x_LEFT_SHIFT) & 0xF0);
 80079fc:	883b      	ldrh	r3, [r7, #0]
 80079fe:	011b      	lsls	r3, r3, #4
 8007a00:	b2db      	uxtb	r3, r3
 8007a02:	f023 030f 	bic.w	r3, r3, #15
 8007a06:	b2da      	uxtb	r2, r3
 8007a08:	687b      	ldr	r3, [r7, #4]
 8007a0a:	71da      	strb	r2, [r3, #7]

	MAX581x_WriteCommand(dacDevice);
 8007a0c:	6878      	ldr	r0, [r7, #4]
 8007a0e:	f7ff ff7d 	bl	800790c <MAX581x_WriteCommand>
}
 8007a12:	bf00      	nop
 8007a14:	3708      	adds	r7, #8
 8007a16:	46bd      	mov	sp, r7
 8007a18:	bd80      	pop	{r7, pc}

08007a1a <MAX581x_CodeLoad>:

	MAX581x_WriteCommand(dacDevice);
}

void MAX581x_CodeLoad(MAX581x_Handler_t *dacDevice, uint8_t dacSelector, uint16_t dacData)
{
 8007a1a:	b580      	push	{r7, lr}
 8007a1c:	b082      	sub	sp, #8
 8007a1e:	af00      	add	r7, sp, #0
 8007a20:	6078      	str	r0, [r7, #4]
 8007a22:	460b      	mov	r3, r1
 8007a24:	70fb      	strb	r3, [r7, #3]
 8007a26:	4613      	mov	r3, r2
 8007a28:	803b      	strh	r3, [r7, #0]
	dacDevice->txBuffer[0] = MAX581x_CMD_CODEn_LOADn | dacSelector;
 8007a2a:	78fb      	ldrb	r3, [r7, #3]
 8007a2c:	f043 0330 	orr.w	r3, r3, #48	; 0x30
 8007a30:	b2da      	uxtb	r2, r3
 8007a32:	687b      	ldr	r3, [r7, #4]
 8007a34:	715a      	strb	r2, [r3, #5]
	dacDevice->txBuffer[1] = (uint8_t)((dacData >> MAX581x_RIGHT_SHIFT) & 0xFF);
 8007a36:	883b      	ldrh	r3, [r7, #0]
 8007a38:	091b      	lsrs	r3, r3, #4
 8007a3a:	b29b      	uxth	r3, r3
 8007a3c:	b2da      	uxtb	r2, r3
 8007a3e:	687b      	ldr	r3, [r7, #4]
 8007a40:	719a      	strb	r2, [r3, #6]
	dacDevice->txBuffer[2] = (uint8_t)((dacData << MAX581x_LEFT_SHIFT) & 0xF0);
 8007a42:	883b      	ldrh	r3, [r7, #0]
 8007a44:	011b      	lsls	r3, r3, #4
 8007a46:	b2db      	uxtb	r3, r3
 8007a48:	f023 030f 	bic.w	r3, r3, #15
 8007a4c:	b2da      	uxtb	r2, r3
 8007a4e:	687b      	ldr	r3, [r7, #4]
 8007a50:	71da      	strb	r2, [r3, #7]

	MAX581x_WriteCommand(dacDevice);
 8007a52:	6878      	ldr	r0, [r7, #4]
 8007a54:	f7ff ff5a 	bl	800790c <MAX581x_WriteCommand>
}
 8007a58:	bf00      	nop
 8007a5a:	3708      	adds	r7, #8
 8007a5c:	46bd      	mov	sp, r7
 8007a5e:	bd80      	pop	{r7, pc}

08007a60 <PID_Init>:
 */

#include "pid.h"

void PID_Init(PID_Handler_t *pid, PID_Params_t params, PID_Status_t enable)
{
 8007a60:	b084      	sub	sp, #16
 8007a62:	b4b0      	push	{r4, r5, r7}
 8007a64:	b083      	sub	sp, #12
 8007a66:	af00      	add	r7, sp, #0
 8007a68:	6078      	str	r0, [r7, #4]
 8007a6a:	f107 001c 	add.w	r0, r7, #28
 8007a6e:	e880 000e 	stmia.w	r0, {r1, r2, r3}
	pid->params = params;
 8007a72:	687b      	ldr	r3, [r7, #4]
 8007a74:	461d      	mov	r5, r3
 8007a76:	f107 041c 	add.w	r4, r7, #28
 8007a7a:	cc0f      	ldmia	r4!, {r0, r1, r2, r3}
 8007a7c:	c50f      	stmia	r5!, {r0, r1, r2, r3}
 8007a7e:	e894 0007 	ldmia.w	r4, {r0, r1, r2}
 8007a82:	e885 0007 	stmia.w	r5, {r0, r1, r2}
	pid->enable = enable;
 8007a86:	687b      	ldr	r3, [r7, #4]
 8007a88:	f897 2038 	ldrb.w	r2, [r7, #56]	; 0x38
 8007a8c:	f883 2030 	strb.w	r2, [r3, #48]	; 0x30

	pid->error = 0;
 8007a90:	687b      	ldr	r3, [r7, #4]
 8007a92:	f04f 0200 	mov.w	r2, #0
 8007a96:	621a      	str	r2, [r3, #32]
	pid->output = 0;
 8007a98:	687b      	ldr	r3, [r7, #4]
 8007a9a:	f04f 0200 	mov.w	r2, #0
 8007a9e:	625a      	str	r2, [r3, #36]	; 0x24

	pid->lastMeasure = 0;
 8007aa0:	687b      	ldr	r3, [r7, #4]
 8007aa2:	f04f 0200 	mov.w	r2, #0
 8007aa6:	629a      	str	r2, [r3, #40]	; 0x28
	pid->integral = 0;
 8007aa8:	687b      	ldr	r3, [r7, #4]
 8007aaa:	f04f 0200 	mov.w	r2, #0
 8007aae:	62da      	str	r2, [r3, #44]	; 0x2c

	pid->enable = enable;
 8007ab0:	687b      	ldr	r3, [r7, #4]
 8007ab2:	f897 2038 	ldrb.w	r2, [r7, #56]	; 0x38
 8007ab6:	f883 2030 	strb.w	r2, [r3, #48]	; 0x30
}
 8007aba:	bf00      	nop
 8007abc:	370c      	adds	r7, #12
 8007abe:	46bd      	mov	sp, r7
 8007ac0:	bcb0      	pop	{r4, r5, r7}
 8007ac2:	b004      	add	sp, #16
 8007ac4:	4770      	bx	lr

08007ac6 <PID_CloseLoop>:

void PID_CloseLoop(PID_Handler_t *pid, float reference, float measure)
{
 8007ac6:	b480      	push	{r7}
 8007ac8:	b087      	sub	sp, #28
 8007aca:	af00      	add	r7, sp, #0
 8007acc:	60f8      	str	r0, [r7, #12]
 8007ace:	ed87 0a02 	vstr	s0, [r7, #8]
 8007ad2:	edc7 0a01 	vstr	s1, [r7, #4]
	if(pid->enable != PID_STATUS_ENABLE)
 8007ad6:	68fb      	ldr	r3, [r7, #12]
 8007ad8:	f893 3030 	ldrb.w	r3, [r3, #48]	; 0x30
 8007adc:	2b01      	cmp	r3, #1
 8007ade:	d006      	beq.n	8007aee <PID_CloseLoop+0x28>
	{
		pid->lastMeasure = measure;
 8007ae0:	68fb      	ldr	r3, [r7, #12]
 8007ae2:	687a      	ldr	r2, [r7, #4]
 8007ae4:	629a      	str	r2, [r3, #40]	; 0x28
		pid->output = reference;
 8007ae6:	68fb      	ldr	r3, [r7, #12]
 8007ae8:	68ba      	ldr	r2, [r7, #8]
 8007aea:	625a      	str	r2, [r3, #36]	; 0x24
		return;
 8007aec:	e085      	b.n	8007bfa <PID_CloseLoop+0x134>
	}
	pid->ref = reference;
 8007aee:	68fb      	ldr	r3, [r7, #12]
 8007af0:	68ba      	ldr	r2, [r7, #8]
 8007af2:	61da      	str	r2, [r3, #28]
	pid->error = pid->ref - measure;
 8007af4:	68fb      	ldr	r3, [r7, #12]
 8007af6:	ed93 7a07 	vldr	s14, [r3, #28]
 8007afa:	edd7 7a01 	vldr	s15, [r7, #4]
 8007afe:	ee77 7a67 	vsub.f32	s15, s14, s15
 8007b02:	68fb      	ldr	r3, [r7, #12]
 8007b04:	edc3 7a08 	vstr	s15, [r3, #32]

	pid->integral += pid->error * pid->params.Ki;
 8007b08:	68fb      	ldr	r3, [r7, #12]
 8007b0a:	ed93 7a0b 	vldr	s14, [r3, #44]	; 0x2c
 8007b0e:	68fb      	ldr	r3, [r7, #12]
 8007b10:	edd3 6a08 	vldr	s13, [r3, #32]
 8007b14:	68fb      	ldr	r3, [r7, #12]
 8007b16:	edd3 7a01 	vldr	s15, [r3, #4]
 8007b1a:	ee66 7aa7 	vmul.f32	s15, s13, s15
 8007b1e:	ee77 7a27 	vadd.f32	s15, s14, s15
 8007b22:	68fb      	ldr	r3, [r7, #12]
 8007b24:	edc3 7a0b 	vstr	s15, [r3, #44]	; 0x2c
	if (pid->integral > pid->params.integralMax)
 8007b28:	68fb      	ldr	r3, [r7, #12]
 8007b2a:	ed93 7a0b 	vldr	s14, [r3, #44]	; 0x2c
 8007b2e:	68fb      	ldr	r3, [r7, #12]
 8007b30:	edd3 7a05 	vldr	s15, [r3, #20]
 8007b34:	eeb4 7ae7 	vcmpe.f32	s14, s15
 8007b38:	eef1 fa10 	vmrs	APSR_nzcv, fpscr
 8007b3c:	dd04      	ble.n	8007b48 <PID_CloseLoop+0x82>
	{
		pid->integral = pid->params.integralMax;
 8007b3e:	68fb      	ldr	r3, [r7, #12]
 8007b40:	695a      	ldr	r2, [r3, #20]
 8007b42:	68fb      	ldr	r3, [r7, #12]
 8007b44:	62da      	str	r2, [r3, #44]	; 0x2c
 8007b46:	e014      	b.n	8007b72 <PID_CloseLoop+0xac>
	}
	else if (pid->integral < -pid->params.integralMax)
 8007b48:	68fb      	ldr	r3, [r7, #12]
 8007b4a:	ed93 7a0b 	vldr	s14, [r3, #44]	; 0x2c
 8007b4e:	68fb      	ldr	r3, [r7, #12]
 8007b50:	edd3 7a05 	vldr	s15, [r3, #20]
 8007b54:	eef1 7a67 	vneg.f32	s15, s15
 8007b58:	eeb4 7ae7 	vcmpe.f32	s14, s15
 8007b5c:	eef1 fa10 	vmrs	APSR_nzcv, fpscr
 8007b60:	d507      	bpl.n	8007b72 <PID_CloseLoop+0xac>
	{
		pid->integral = -pid->params.integralMax;
 8007b62:	68fb      	ldr	r3, [r7, #12]
 8007b64:	edd3 7a05 	vldr	s15, [r3, #20]
 8007b68:	eef1 7a67 	vneg.f32	s15, s15
 8007b6c:	68fb      	ldr	r3, [r7, #12]
 8007b6e:	edc3 7a0b 	vstr	s15, [r3, #44]	; 0x2c
	}
	
	float measDiff = measure - pid->lastMeasure;
 8007b72:	68fb      	ldr	r3, [r7, #12]
 8007b74:	edd3 7a0a 	vldr	s15, [r3, #40]	; 0x28
 8007b78:	ed97 7a01 	vldr	s14, [r7, #4]
 8007b7c:	ee77 7a67 	vsub.f32	s15, s14, s15
 8007b80:	edc7 7a05 	vstr	s15, [r7, #20]
		
	pid->output = pid->error * pid->params.Kp + pid->integral + measDiff * pid->params.Kd;
 8007b84:	68fb      	ldr	r3, [r7, #12]
 8007b86:	ed93 7a08 	vldr	s14, [r3, #32]
 8007b8a:	68fb      	ldr	r3, [r7, #12]
 8007b8c:	edd3 7a00 	vldr	s15, [r3]
 8007b90:	ee27 7a27 	vmul.f32	s14, s14, s15
 8007b94:	68fb      	ldr	r3, [r7, #12]
 8007b96:	edd3 7a0b 	vldr	s15, [r3, #44]	; 0x2c
 8007b9a:	ee37 7a27 	vadd.f32	s14, s14, s15
 8007b9e:	68fb      	ldr	r3, [r7, #12]
 8007ba0:	edd3 6a02 	vldr	s13, [r3, #8]
 8007ba4:	edd7 7a05 	vldr	s15, [r7, #20]
 8007ba8:	ee66 7aa7 	vmul.f32	s15, s13, s15
 8007bac:	ee77 7a27 	vadd.f32	s15, s14, s15
 8007bb0:	68fb      	ldr	r3, [r7, #12]
 8007bb2:	edc3 7a09 	vstr	s15, [r3, #36]	; 0x24
	if (pid->output > pid->params.outputMax)
 8007bb6:	68fb      	ldr	r3, [r7, #12]
 8007bb8:	ed93 7a09 	vldr	s14, [r3, #36]	; 0x24
 8007bbc:	68fb      	ldr	r3, [r7, #12]
 8007bbe:	edd3 7a03 	vldr	s15, [r3, #12]
 8007bc2:	eeb4 7ae7 	vcmpe.f32	s14, s15
 8007bc6:	eef1 fa10 	vmrs	APSR_nzcv, fpscr
 8007bca:	dd04      	ble.n	8007bd6 <PID_CloseLoop+0x110>
	{
		pid->output = pid->params.outputMax;
 8007bcc:	68fb      	ldr	r3, [r7, #12]
 8007bce:	68da      	ldr	r2, [r3, #12]
 8007bd0:	68fb      	ldr	r3, [r7, #12]
 8007bd2:	625a      	str	r2, [r3, #36]	; 0x24
 8007bd4:	e00e      	b.n	8007bf4 <PID_CloseLoop+0x12e>
	}		
	else if (pid->output < pid->params.outputMin)
 8007bd6:	68fb      	ldr	r3, [r7, #12]
 8007bd8:	ed93 7a09 	vldr	s14, [r3, #36]	; 0x24
 8007bdc:	68fb      	ldr	r3, [r7, #12]
 8007bde:	edd3 7a04 	vldr	s15, [r3, #16]
 8007be2:	eeb4 7ae7 	vcmpe.f32	s14, s15
 8007be6:	eef1 fa10 	vmrs	APSR_nzcv, fpscr
 8007bea:	d503      	bpl.n	8007bf4 <PID_CloseLoop+0x12e>
	{
		pid->output = pid->params.outputMin;
 8007bec:	68fb      	ldr	r3, [r7, #12]
 8007bee:	691a      	ldr	r2, [r3, #16]
 8007bf0:	68fb      	ldr	r3, [r7, #12]
 8007bf2:	625a      	str	r2, [r3, #36]	; 0x24
	}

	pid->lastMeasure = measure;
 8007bf4:	68fb      	ldr	r3, [r7, #12]
 8007bf6:	687a      	ldr	r2, [r7, #4]
 8007bf8:	629a      	str	r2, [r3, #40]	; 0x28
}
 8007bfa:	371c      	adds	r7, #28
 8007bfc:	46bd      	mov	sp, r7
 8007bfe:	f85d 7b04 	ldr.w	r7, [sp], #4
 8007c02:	4770      	bx	lr

08007c04 <Board_LedToggle>:
	/* Include HAL or LL function */
	HAL_GPIO_WritePin(Led_GPIO, Led_Pin, GPIO_PIN_RESET);
}

void Board_LedToggle(GPIO_TypeDef* Led_GPIO, uint16_t Led_Pin)
{
 8007c04:	b580      	push	{r7, lr}
 8007c06:	b082      	sub	sp, #8
 8007c08:	af00      	add	r7, sp, #0
 8007c0a:	6078      	str	r0, [r7, #4]
 8007c0c:	460b      	mov	r3, r1
 8007c0e:	807b      	strh	r3, [r7, #2]
	/* Include HAL or LL function */
	HAL_GPIO_TogglePin(Led_GPIO, Led_Pin);
 8007c10:	887b      	ldrh	r3, [r7, #2]
 8007c12:	4619      	mov	r1, r3
 8007c14:	6878      	ldr	r0, [r7, #4]
 8007c16:	f7fa fd16 	bl	8002646 <HAL_GPIO_TogglePin>
}
 8007c1a:	bf00      	nop
 8007c1c:	3708      	adds	r7, #8
 8007c1e:	46bd      	mov	sp, r7
 8007c20:	bd80      	pop	{r7, pc}
	...

08007c24 <Board_GetID>:

uint16_t Board_GetID()
{
 8007c24:	b598      	push	{r3, r4, r7, lr}
 8007c26:	af00      	add	r7, sp, #0
	return (HAL_GPIO_ReadPin(DS_GPIO_1, DS_PIN_1)|
 8007c28:	2102      	movs	r1, #2
 8007c2a:	481b      	ldr	r0, [pc, #108]	; (8007c98 <Board_GetID+0x74>)
 8007c2c:	f7fa fcda 	bl	80025e4 <HAL_GPIO_ReadPin>
 8007c30:	4603      	mov	r3, r0
 8007c32:	b21c      	sxth	r4, r3
	HAL_GPIO_ReadPin(DS_GPIO_2, DS_PIN_2) << 1|
 8007c34:	2101      	movs	r1, #1
 8007c36:	4818      	ldr	r0, [pc, #96]	; (8007c98 <Board_GetID+0x74>)
 8007c38:	f7fa fcd4 	bl	80025e4 <HAL_GPIO_ReadPin>
 8007c3c:	4603      	mov	r3, r0
 8007c3e:	005b      	lsls	r3, r3, #1
	return (HAL_GPIO_ReadPin(DS_GPIO_1, DS_PIN_1)|
 8007c40:	b21b      	sxth	r3, r3
 8007c42:	4323      	orrs	r3, r4
 8007c44:	b21c      	sxth	r4, r3
	HAL_GPIO_ReadPin(DS_GPIO_3, DS_PIN_3) << 2|
 8007c46:	f44f 4100 	mov.w	r1, #32768	; 0x8000
 8007c4a:	4814      	ldr	r0, [pc, #80]	; (8007c9c <Board_GetID+0x78>)
 8007c4c:	f7fa fcca 	bl	80025e4 <HAL_GPIO_ReadPin>
 8007c50:	4603      	mov	r3, r0
 8007c52:	009b      	lsls	r3, r3, #2
	HAL_GPIO_ReadPin(DS_GPIO_2, DS_PIN_2) << 1|
 8007c54:	b21b      	sxth	r3, r3
 8007c56:	4323      	orrs	r3, r4
 8007c58:	b21c      	sxth	r4, r3
	HAL_GPIO_ReadPin(DS_GPIO_4, DS_PIN_4) << 3|
 8007c5a:	2104      	movs	r1, #4
 8007c5c:	4810      	ldr	r0, [pc, #64]	; (8007ca0 <Board_GetID+0x7c>)
 8007c5e:	f7fa fcc1 	bl	80025e4 <HAL_GPIO_ReadPin>
 8007c62:	4603      	mov	r3, r0
 8007c64:	00db      	lsls	r3, r3, #3
	HAL_GPIO_ReadPin(DS_GPIO_3, DS_PIN_3) << 2|
 8007c66:	b21b      	sxth	r3, r3
 8007c68:	4323      	orrs	r3, r4
 8007c6a:	b21c      	sxth	r4, r3
	HAL_GPIO_ReadPin(DS_GPIO_5, DS_PIN_5) << 4|
 8007c6c:	2110      	movs	r1, #16
 8007c6e:	480d      	ldr	r0, [pc, #52]	; (8007ca4 <Board_GetID+0x80>)
 8007c70:	f7fa fcb8 	bl	80025e4 <HAL_GPIO_ReadPin>
 8007c74:	4603      	mov	r3, r0
 8007c76:	011b      	lsls	r3, r3, #4
	HAL_GPIO_ReadPin(DS_GPIO_4, DS_PIN_4) << 3|
 8007c78:	b21b      	sxth	r3, r3
 8007c7a:	4323      	orrs	r3, r4
 8007c7c:	b21c      	sxth	r4, r3
	HAL_GPIO_ReadPin(DS_GPIO_6, DS_PIN_6) << 5);
 8007c7e:	2110      	movs	r1, #16
 8007c80:	4809      	ldr	r0, [pc, #36]	; (8007ca8 <Board_GetID+0x84>)
 8007c82:	f7fa fcaf 	bl	80025e4 <HAL_GPIO_ReadPin>
 8007c86:	4603      	mov	r3, r0
 8007c88:	015b      	lsls	r3, r3, #5
	HAL_GPIO_ReadPin(DS_GPIO_5, DS_PIN_5) << 4|
 8007c8a:	b21b      	sxth	r3, r3
 8007c8c:	4323      	orrs	r3, r4
 8007c8e:	b21b      	sxth	r3, r3
 8007c90:	b29b      	uxth	r3, r3
}
 8007c92:	4618      	mov	r0, r3
 8007c94:	bd98      	pop	{r3, r4, r7, pc}
 8007c96:	bf00      	nop
 8007c98:	40022400 	.word	0x40022400
 8007c9c:	40022000 	.word	0x40022000
 8007ca0:	40020400 	.word	0x40020400
 8007ca4:	40020800 	.word	0x40020800
 8007ca8:	40021c00 	.word	0x40021c00
 8007cac:	00000000 	.word	0x00000000

08007cb0 <Encoder_Update>:
 */

#include "encoder.h"

float Encoder_Update(Encoder_Handler_t *encoderDevice, float sampleTime)
{
 8007cb0:	b480      	push	{r7}
 8007cb2:	b087      	sub	sp, #28
 8007cb4:	af00      	add	r7, sp, #0
 8007cb6:	6078      	str	r0, [r7, #4]
 8007cb8:	ed87 0a00 	vstr	s0, [r7]
	if(encoderDevice->enable != ENCODER_STATUS_ENABLE)
 8007cbc:	687b      	ldr	r3, [r7, #4]
 8007cbe:	7c1b      	ldrb	r3, [r3, #16]
 8007cc0:	2b01      	cmp	r3, #1
 8007cc2:	d002      	beq.n	8007cca <Encoder_Update+0x1a>
		return 0;
 8007cc4:	f04f 0300 	mov.w	r3, #0
 8007cc8:	e03a      	b.n	8007d40 <Encoder_Update+0x90>
	{
		speed = 0.0f;
	}
	*/
	/* TESTING */
	int16_t encPos = (int16_t)*encoderDevice->count;
 8007cca:	687b      	ldr	r3, [r7, #4]
 8007ccc:	681b      	ldr	r3, [r3, #0]
 8007cce:	681b      	ldr	r3, [r3, #0]
 8007cd0:	82fb      	strh	r3, [r7, #22]
	float encPosF = fabs((float)encPos) < 2.0f ? 0.0f : (float)encPos;
 8007cd2:	f9b7 3016 	ldrsh.w	r3, [r7, #22]
 8007cd6:	ee07 3a90 	vmov	s15, r3
 8007cda:	eef8 7ae7 	vcvt.f32.s32	s15, s15
 8007cde:	eef0 7ae7 	vabs.f32	s15, s15
 8007ce2:	eeb0 7a00 	vmov.f32	s14, #0	; 0x40000000  2.0
 8007ce6:	eef4 7ac7 	vcmpe.f32	s15, s14
 8007cea:	eef1 fa10 	vmrs	APSR_nzcv, fpscr
 8007cee:	d502      	bpl.n	8007cf6 <Encoder_Update+0x46>
 8007cf0:	eddf 7a1b 	vldr	s15, [pc, #108]	; 8007d60 <Encoder_Update+0xb0>
 8007cf4:	e005      	b.n	8007d02 <Encoder_Update+0x52>
 8007cf6:	f9b7 3016 	ldrsh.w	r3, [r7, #22]
 8007cfa:	ee07 3a90 	vmov	s15, r3
 8007cfe:	eef8 7ae7 	vcvt.f32.s32	s15, s15
 8007d02:	edc7 7a04 	vstr	s15, [r7, #16]

	*encoderDevice->count = 0;
 8007d06:	687b      	ldr	r3, [r7, #4]
 8007d08:	681b      	ldr	r3, [r3, #0]
 8007d0a:	2200      	movs	r2, #0
 8007d0c:	601a      	str	r2, [r3, #0]
	float speed = encPosF * 2 * M_PI / (ENCODER_CPR * sampleTime);
 8007d0e:	edd7 7a04 	vldr	s15, [r7, #16]
 8007d12:	ee77 7aa7 	vadd.f32	s15, s15, s15
 8007d16:	eeb7 7ae7 	vcvt.f64.f32	d7, s15
 8007d1a:	ed9f 6b0f 	vldr	d6, [pc, #60]	; 8007d58 <Encoder_Update+0xa8>
 8007d1e:	ee27 5b06 	vmul.f64	d5, d7, d6
 8007d22:	edd7 7a00 	vldr	s15, [r7]
 8007d26:	ed9f 7a0f 	vldr	s14, [pc, #60]	; 8007d64 <Encoder_Update+0xb4>
 8007d2a:	ee67 7a87 	vmul.f32	s15, s15, s14
 8007d2e:	eeb7 6ae7 	vcvt.f64.f32	d6, s15
 8007d32:	ee85 7b06 	vdiv.f64	d7, d5, d6
 8007d36:	eef7 7bc7 	vcvt.f32.f64	s15, d7
 8007d3a:	edc7 7a03 	vstr	s15, [r7, #12]

	//return encPosF;
	return speed;
 8007d3e:	68fb      	ldr	r3, [r7, #12]
}
 8007d40:	ee07 3a90 	vmov	s15, r3
 8007d44:	eeb0 0a67 	vmov.f32	s0, s15
 8007d48:	371c      	adds	r7, #28
 8007d4a:	46bd      	mov	sp, r7
 8007d4c:	f85d 7b04 	ldr.w	r7, [sp], #4
 8007d50:	4770      	bx	lr
 8007d52:	bf00      	nop
 8007d54:	f3af 8000 	nop.w
 8007d58:	54442d18 	.word	0x54442d18
 8007d5c:	400921fb 	.word	0x400921fb
 8007d60:	00000000 	.word	0x00000000
 8007d64:	46000000 	.word	0x46000000

08007d68 <Motor_Init>:
 */

#include "motor.h"

void Motor_Init(Motor_Handler_t *motorDevice, uint8_t motorID, Motor_Status_t enable)
{
 8007d68:	b580      	push	{r7, lr}
 8007d6a:	b082      	sub	sp, #8
 8007d6c:	af00      	add	r7, sp, #0
 8007d6e:	6078      	str	r0, [r7, #4]
 8007d70:	460b      	mov	r3, r1
 8007d72:	70fb      	strb	r3, [r7, #3]
 8007d74:	4613      	mov	r3, r2
 8007d76:	70bb      	strb	r3, [r7, #2]
	motorDevice->enable = enable;
 8007d78:	687b      	ldr	r3, [r7, #4]
 8007d7a:	78ba      	ldrb	r2, [r7, #2]
 8007d7c:	f883 207a 	strb.w	r2, [r3, #122]	; 0x7a
	motorDevice->outputID = motorID;
 8007d80:	687b      	ldr	r3, [r7, #4]
 8007d82:	78fa      	ldrb	r2, [r7, #3]
 8007d84:	f883 206c 	strb.w	r2, [r3, #108]	; 0x6c
	motorDevice->refSpeed = 0;
 8007d88:	687b      	ldr	r3, [r7, #4]
 8007d8a:	f04f 0200 	mov.w	r2, #0
 8007d8e:	671a      	str	r2, [r3, #112]	; 0x70
	motorDevice->measSpeed = 0;
 8007d90:	687b      	ldr	r3, [r7, #4]
 8007d92:	f04f 0200 	mov.w	r2, #0
 8007d96:	675a      	str	r2, [r3, #116]	; 0x74
	Motor_Enable(motorDevice, enable);
 8007d98:	78bb      	ldrb	r3, [r7, #2]
 8007d9a:	4619      	mov	r1, r3
 8007d9c:	6878      	ldr	r0, [r7, #4]
 8007d9e:	f000 f863 	bl	8007e68 <Motor_Enable>
}
 8007da2:	bf00      	nop
 8007da4:	3708      	adds	r7, #8
 8007da6:	46bd      	mov	sp, r7
 8007da8:	bd80      	pop	{r7, pc}
	...

08007dac <Motor_CLDrive>:

	Motor_SetVoltage(motorDevice, dacDevice, speed * WHEEL_GEAR_RATIO * MOTOR_SPEED_CONV);
}

void Motor_CLDrive(Motor_Handler_t *motorDevice, MAX581x_Handler_t *dacDevice, float speed)
{
 8007dac:	b580      	push	{r7, lr}
 8007dae:	b084      	sub	sp, #16
 8007db0:	af00      	add	r7, sp, #0
 8007db2:	60f8      	str	r0, [r7, #12]
 8007db4:	60b9      	str	r1, [r7, #8]
 8007db6:	ed87 0a01 	vstr	s0, [r7, #4]
	if(!motorDevice->enable)
 8007dba:	68fb      	ldr	r3, [r7, #12]
 8007dbc:	f893 307a 	ldrb.w	r3, [r3, #122]	; 0x7a
 8007dc0:	2b00      	cmp	r3, #0
 8007dc2:	d108      	bne.n	8007dd6 <Motor_CLDrive+0x2a>
	{
		MAX581x_Code(dacDevice, motorDevice->outputID, 0);
 8007dc4:	68fb      	ldr	r3, [r7, #12]
 8007dc6:	f893 306c 	ldrb.w	r3, [r3, #108]	; 0x6c
 8007dca:	2200      	movs	r2, #0
 8007dcc:	4619      	mov	r1, r3
 8007dce:	68b8      	ldr	r0, [r7, #8]
 8007dd0:	f7ff fe03 	bl	80079da <MAX581x_Code>
		return;
 8007dd4:	e043      	b.n	8007e5e <Motor_CLDrive+0xb2>
	}
	/* Apply PID */
	motorDevice->refSpeed = speed * SPEED_CNT_RATIO;
 8007dd6:	edd7 7a01 	vldr	s15, [r7, #4]
 8007dda:	eeb0 7a08 	vmov.f32	s14, #8	; 0x40400000  3.0
 8007dde:	ee27 7a87 	vmul.f32	s14, s15, s14
 8007de2:	eddf 6a20 	vldr	s13, [pc, #128]	; 8007e64 <Motor_CLDrive+0xb8>
 8007de6:	eec7 7a26 	vdiv.f32	s15, s14, s13
 8007dea:	68fb      	ldr	r3, [r7, #12]
 8007dec:	edc3 7a1c 	vstr	s15, [r3, #112]	; 0x70
	motorDevice->measSpeed = Encoder_Update(&motorDevice->encoder, motorDevice->pid.params.sampleTime);
 8007df0:	68fb      	ldr	r3, [r7, #12]
 8007df2:	f103 0240 	add.w	r2, r3, #64	; 0x40
 8007df6:	68fb      	ldr	r3, [r7, #12]
 8007df8:	edd3 7a06 	vldr	s15, [r3, #24]
 8007dfc:	eeb0 0a67 	vmov.f32	s0, s15
 8007e00:	4610      	mov	r0, r2
 8007e02:	f7ff ff55 	bl	8007cb0 <Encoder_Update>
 8007e06:	eef0 7a40 	vmov.f32	s15, s0
 8007e0a:	68fb      	ldr	r3, [r7, #12]
 8007e0c:	edc3 7a1d 	vstr	s15, [r3, #116]	; 0x74
	PID_CloseLoop(&motorDevice->pid, motorDevice->refSpeed, motorDevice->measSpeed);
 8007e10:	68fa      	ldr	r2, [r7, #12]
 8007e12:	68fb      	ldr	r3, [r7, #12]
 8007e14:	edd3 7a1c 	vldr	s15, [r3, #112]	; 0x70
 8007e18:	68fb      	ldr	r3, [r7, #12]
 8007e1a:	ed93 7a1d 	vldr	s14, [r3, #116]	; 0x74
 8007e1e:	eef0 0a47 	vmov.f32	s1, s14
 8007e22:	eeb0 0a67 	vmov.f32	s0, s15
 8007e26:	4610      	mov	r0, r2
 8007e28:	f7ff fe4d 	bl	8007ac6 <PID_CloseLoop>
	
	if(fabs(motorDevice->pid.output) < 4.0)
 8007e2c:	68fb      	ldr	r3, [r7, #12]
 8007e2e:	edd3 7a09 	vldr	s15, [r3, #36]	; 0x24
 8007e32:	eef0 7ae7 	vabs.f32	s15, s15
 8007e36:	eeb1 7a00 	vmov.f32	s14, #16	; 0x40800000  4.0
 8007e3a:	eef4 7ac7 	vcmpe.f32	s15, s14
 8007e3e:	eef1 fa10 	vmrs	APSR_nzcv, fpscr
 8007e42:	d503      	bpl.n	8007e4c <Motor_CLDrive+0xa0>
	{
		motorDevice->pid.output = 0.0;
 8007e44:	68fb      	ldr	r3, [r7, #12]
 8007e46:	f04f 0200 	mov.w	r2, #0
 8007e4a:	625a      	str	r2, [r3, #36]	; 0x24
	}

	Motor_SetVoltage(motorDevice, dacDevice, motorDevice->pid.output);
 8007e4c:	68fb      	ldr	r3, [r7, #12]
 8007e4e:	edd3 7a09 	vldr	s15, [r3, #36]	; 0x24
 8007e52:	eeb0 0a67 	vmov.f32	s0, s15
 8007e56:	68b9      	ldr	r1, [r7, #8]
 8007e58:	68f8      	ldr	r0, [r7, #12]
 8007e5a:	f000 f849 	bl	8007ef0 <Motor_SetVoltage>
}
 8007e5e:	3710      	adds	r7, #16
 8007e60:	46bd      	mov	sp, r7
 8007e62:	bd80      	pop	{r7, pc}
 8007e64:	3cdd82fd 	.word	0x3cdd82fd

08007e68 <Motor_Enable>:

void Motor_Enable(Motor_Handler_t *motorDevice, Motor_Status_t enable)
{
 8007e68:	b580      	push	{r7, lr}
 8007e6a:	b082      	sub	sp, #8
 8007e6c:	af00      	add	r7, sp, #0
 8007e6e:	6078      	str	r0, [r7, #4]
 8007e70:	460b      	mov	r3, r1
 8007e72:	70fb      	strb	r3, [r7, #3]
	motorDevice->enable = enable;
 8007e74:	687b      	ldr	r3, [r7, #4]
 8007e76:	78fa      	ldrb	r2, [r7, #3]
 8007e78:	f883 207a 	strb.w	r2, [r3, #122]	; 0x7a
	if(enable == MOTOR_STATUS_DISABLE)
 8007e7c:	78fb      	ldrb	r3, [r7, #3]
 8007e7e:	2b00      	cmp	r3, #0
 8007e80:	d109      	bne.n	8007e96 <Motor_Enable+0x2e>
	{
		HAL_GPIO_WritePin(motorDevice->enablePin.GPIOx, motorDevice->enablePin.GPIO_Pin, GPIO_PIN_RESET);	
 8007e82:	687b      	ldr	r3, [r7, #4]
 8007e84:	6d58      	ldr	r0, [r3, #84]	; 0x54
 8007e86:	687b      	ldr	r3, [r7, #4]
 8007e88:	f8b3 3058 	ldrh.w	r3, [r3, #88]	; 0x58
 8007e8c:	2200      	movs	r2, #0
 8007e8e:	4619      	mov	r1, r3
 8007e90:	f7fa fbc0 	bl	8002614 <HAL_GPIO_WritePin>
	}		
	else
	{
		HAL_GPIO_WritePin(motorDevice->enablePin.GPIOx, motorDevice->enablePin.GPIO_Pin, GPIO_PIN_SET);
	}		
}
 8007e94:	e008      	b.n	8007ea8 <Motor_Enable+0x40>
		HAL_GPIO_WritePin(motorDevice->enablePin.GPIOx, motorDevice->enablePin.GPIO_Pin, GPIO_PIN_SET);
 8007e96:	687b      	ldr	r3, [r7, #4]
 8007e98:	6d58      	ldr	r0, [r3, #84]	; 0x54
 8007e9a:	687b      	ldr	r3, [r7, #4]
 8007e9c:	f8b3 3058 	ldrh.w	r3, [r3, #88]	; 0x58
 8007ea0:	2201      	movs	r2, #1
 8007ea2:	4619      	mov	r1, r3
 8007ea4:	f7fa fbb6 	bl	8002614 <HAL_GPIO_WritePin>
}
 8007ea8:	bf00      	nop
 8007eaa:	3708      	adds	r7, #8
 8007eac:	46bd      	mov	sp, r7
 8007eae:	bd80      	pop	{r7, pc}

08007eb0 <Motor_SetBrake>:

void Motor_SetBrake(Motor_Handler_t *motorDevice, uint8_t brake)
{
 8007eb0:	b580      	push	{r7, lr}
 8007eb2:	b082      	sub	sp, #8
 8007eb4:	af00      	add	r7, sp, #0
 8007eb6:	6078      	str	r0, [r7, #4]
 8007eb8:	460b      	mov	r3, r1
 8007eba:	70fb      	strb	r3, [r7, #3]
	if(brake == MOTOR_BRAKE_ENABLE)
 8007ebc:	78fb      	ldrb	r3, [r7, #3]
 8007ebe:	2b01      	cmp	r3, #1
 8007ec0:	d109      	bne.n	8007ed6 <Motor_SetBrake+0x26>
	{
		HAL_GPIO_WritePin(motorDevice->brakePin.GPIOx, motorDevice->brakePin.GPIO_Pin, GPIO_PIN_RESET);	
 8007ec2:	687b      	ldr	r3, [r7, #4]
 8007ec4:	6e58      	ldr	r0, [r3, #100]	; 0x64
 8007ec6:	687b      	ldr	r3, [r7, #4]
 8007ec8:	f8b3 3068 	ldrh.w	r3, [r3, #104]	; 0x68
 8007ecc:	2200      	movs	r2, #0
 8007ece:	4619      	mov	r1, r3
 8007ed0:	f7fa fba0 	bl	8002614 <HAL_GPIO_WritePin>
	}		
	else
	{
		HAL_GPIO_WritePin(motorDevice->brakePin.GPIOx, motorDevice->brakePin.GPIO_Pin, GPIO_PIN_SET);
	}	
}
 8007ed4:	e008      	b.n	8007ee8 <Motor_SetBrake+0x38>
		HAL_GPIO_WritePin(motorDevice->brakePin.GPIOx, motorDevice->brakePin.GPIO_Pin, GPIO_PIN_SET);
 8007ed6:	687b      	ldr	r3, [r7, #4]
 8007ed8:	6e58      	ldr	r0, [r3, #100]	; 0x64
 8007eda:	687b      	ldr	r3, [r7, #4]
 8007edc:	f8b3 3068 	ldrh.w	r3, [r3, #104]	; 0x68
 8007ee0:	2201      	movs	r2, #1
 8007ee2:	4619      	mov	r1, r3
 8007ee4:	f7fa fb96 	bl	8002614 <HAL_GPIO_WritePin>
}
 8007ee8:	bf00      	nop
 8007eea:	3708      	adds	r7, #8
 8007eec:	46bd      	mov	sp, r7
 8007eee:	bd80      	pop	{r7, pc}

08007ef0 <Motor_SetVoltage>:

void Motor_SetVoltage(Motor_Handler_t *motorDevice, MAX581x_Handler_t *dacDevice, float speed)
{
 8007ef0:	b580      	push	{r7, lr}
 8007ef2:	b084      	sub	sp, #16
 8007ef4:	af00      	add	r7, sp, #0
 8007ef6:	60f8      	str	r0, [r7, #12]
 8007ef8:	60b9      	str	r1, [r7, #8]
 8007efa:	ed87 0a01 	vstr	s0, [r7, #4]
	if(speed >= (float)0.0)
 8007efe:	edd7 7a01 	vldr	s15, [r7, #4]
 8007f02:	eef5 7ac0 	vcmpe.f32	s15, #0.0
 8007f06:	eef1 fa10 	vmrs	APSR_nzcv, fpscr
 8007f0a:	db1d      	blt.n	8007f48 <Motor_SetVoltage+0x58>
	{
		HAL_GPIO_WritePin(motorDevice->dirPin.GPIOx, motorDevice->dirPin.GPIO_Pin, GPIO_PIN_SET);
 8007f0c:	68fb      	ldr	r3, [r7, #12]
 8007f0e:	6dd8      	ldr	r0, [r3, #92]	; 0x5c
 8007f10:	68fb      	ldr	r3, [r7, #12]
 8007f12:	f8b3 3060 	ldrh.w	r3, [r3, #96]	; 0x60
 8007f16:	2201      	movs	r2, #1
 8007f18:	4619      	mov	r1, r3
 8007f1a:	f7fa fb7b 	bl	8002614 <HAL_GPIO_WritePin>
		motorDevice->voltage = (uint16_t)(speed);
 8007f1e:	edd7 7a01 	vldr	s15, [r7, #4]
 8007f22:	eefc 7ae7 	vcvt.u32.f32	s15, s15
 8007f26:	ee17 3a90 	vmov	r3, s15
 8007f2a:	b29a      	uxth	r2, r3
 8007f2c:	68fb      	ldr	r3, [r7, #12]
 8007f2e:	f8a3 2078 	strh.w	r2, [r3, #120]	; 0x78
		MAX581x_CodeLoad(dacDevice, motorDevice->outputID, motorDevice->voltage);
 8007f32:	68fb      	ldr	r3, [r7, #12]
 8007f34:	f893 106c 	ldrb.w	r1, [r3, #108]	; 0x6c
 8007f38:	68fb      	ldr	r3, [r7, #12]
 8007f3a:	f8b3 3078 	ldrh.w	r3, [r3, #120]	; 0x78
 8007f3e:	461a      	mov	r2, r3
 8007f40:	68b8      	ldr	r0, [r7, #8]
 8007f42:	f7ff fd6a 	bl	8007a1a <MAX581x_CodeLoad>
	{
		HAL_GPIO_WritePin(motorDevice->dirPin.GPIOx, motorDevice->dirPin.GPIO_Pin, GPIO_PIN_RESET);
		motorDevice->voltage = (uint16_t)(fabs(speed));
		MAX581x_CodeLoad(dacDevice, motorDevice->outputID, motorDevice->voltage);
	}	
}
 8007f46:	e01e      	b.n	8007f86 <Motor_SetVoltage+0x96>
		HAL_GPIO_WritePin(motorDevice->dirPin.GPIOx, motorDevice->dirPin.GPIO_Pin, GPIO_PIN_RESET);
 8007f48:	68fb      	ldr	r3, [r7, #12]
 8007f4a:	6dd8      	ldr	r0, [r3, #92]	; 0x5c
 8007f4c:	68fb      	ldr	r3, [r7, #12]
 8007f4e:	f8b3 3060 	ldrh.w	r3, [r3, #96]	; 0x60
 8007f52:	2200      	movs	r2, #0
 8007f54:	4619      	mov	r1, r3
 8007f56:	f7fa fb5d 	bl	8002614 <HAL_GPIO_WritePin>
		motorDevice->voltage = (uint16_t)(fabs(speed));
 8007f5a:	edd7 7a01 	vldr	s15, [r7, #4]
 8007f5e:	eef0 7ae7 	vabs.f32	s15, s15
 8007f62:	eefc 7ae7 	vcvt.u32.f32	s15, s15
 8007f66:	ee17 3a90 	vmov	r3, s15
 8007f6a:	b29a      	uxth	r2, r3
 8007f6c:	68fb      	ldr	r3, [r7, #12]
 8007f6e:	f8a3 2078 	strh.w	r2, [r3, #120]	; 0x78
		MAX581x_CodeLoad(dacDevice, motorDevice->outputID, motorDevice->voltage);
 8007f72:	68fb      	ldr	r3, [r7, #12]
 8007f74:	f893 106c 	ldrb.w	r1, [r3, #108]	; 0x6c
 8007f78:	68fb      	ldr	r3, [r7, #12]
 8007f7a:	f8b3 3078 	ldrh.w	r3, [r3, #120]	; 0x78
 8007f7e:	461a      	mov	r2, r3
 8007f80:	68b8      	ldr	r0, [r7, #8]
 8007f82:	f7ff fd4a 	bl	8007a1a <MAX581x_CodeLoad>
}
 8007f86:	bf00      	nop
 8007f88:	3710      	adds	r7, #16
 8007f8a:	46bd      	mov	sp, r7
 8007f8c:	bd80      	pop	{r7, pc}

08007f8e <nRF24_CE_State>:
#include "nrf24.h"
#include <stdio.h>

void nRF24_CE_State(nRF24_Handler_t *device, GPIO_PinState state) {
 8007f8e:	b580      	push	{r7, lr}
 8007f90:	b082      	sub	sp, #8
 8007f92:	af00      	add	r7, sp, #0
 8007f94:	6078      	str	r0, [r7, #4]
 8007f96:	460b      	mov	r3, r1
 8007f98:	70fb      	strb	r3, [r7, #3]
  HAL_GPIO_WritePin(device->ce_port, device->ce_pin, state);
 8007f9a:	687b      	ldr	r3, [r7, #4]
 8007f9c:	6898      	ldr	r0, [r3, #8]
 8007f9e:	687b      	ldr	r3, [r7, #4]
 8007fa0:	8a5b      	ldrh	r3, [r3, #18]
 8007fa2:	78fa      	ldrb	r2, [r7, #3]
 8007fa4:	4619      	mov	r1, r3
 8007fa6:	f7fa fb35 	bl	8002614 <HAL_GPIO_WritePin>
}
 8007faa:	bf00      	nop
 8007fac:	3708      	adds	r7, #8
 8007fae:	46bd      	mov	sp, r7
 8007fb0:	bd80      	pop	{r7, pc}

08007fb2 <nRF24_CSN_State>:

void nRF24_CSN_State(nRF24_Handler_t *device, GPIO_PinState state) {
 8007fb2:	b580      	push	{r7, lr}
 8007fb4:	b082      	sub	sp, #8
 8007fb6:	af00      	add	r7, sp, #0
 8007fb8:	6078      	str	r0, [r7, #4]
 8007fba:	460b      	mov	r3, r1
 8007fbc:	70fb      	strb	r3, [r7, #3]
  HAL_GPIO_WritePin(device->csn_port, device->csn_pin, state);
 8007fbe:	687b      	ldr	r3, [r7, #4]
 8007fc0:	6858      	ldr	r0, [r3, #4]
 8007fc2:	687b      	ldr	r3, [r7, #4]
 8007fc4:	8a1b      	ldrh	r3, [r3, #16]
 8007fc6:	78fa      	ldrb	r2, [r7, #3]
 8007fc8:	4619      	mov	r1, r3
 8007fca:	f7fa fb23 	bl	8002614 <HAL_GPIO_WritePin>
}
 8007fce:	bf00      	nop
 8007fd0:	3708      	adds	r7, #8
 8007fd2:	46bd      	mov	sp, r7
 8007fd4:	bd80      	pop	{r7, pc}

08007fd6 <nRF24_HW_Init>:

/* TODO: create structure that store every GPIO ports and pins */
void nRF24_HW_Init(nRF24_Handler_t *device, SPI_HandleTypeDef *hspi,
                   GPIO_TypeDef *csn_port, uint16_t csn_pin,
                   GPIO_TypeDef *ce_port, uint16_t ce_pin) {
 8007fd6:	b580      	push	{r7, lr}
 8007fd8:	b084      	sub	sp, #16
 8007fda:	af00      	add	r7, sp, #0
 8007fdc:	60f8      	str	r0, [r7, #12]
 8007fde:	60b9      	str	r1, [r7, #8]
 8007fe0:	607a      	str	r2, [r7, #4]
 8007fe2:	807b      	strh	r3, [r7, #2]
  /* Set SPI handler to device */
  device->hspi = hspi;                  
 8007fe4:	68fb      	ldr	r3, [r7, #12]
 8007fe6:	68ba      	ldr	r2, [r7, #8]
 8007fe8:	601a      	str	r2, [r3, #0]
  
  device->csn_port = csn_port;
 8007fea:	68fb      	ldr	r3, [r7, #12]
 8007fec:	687a      	ldr	r2, [r7, #4]
 8007fee:	605a      	str	r2, [r3, #4]
  device->csn_pin = csn_pin;
 8007ff0:	68fb      	ldr	r3, [r7, #12]
 8007ff2:	887a      	ldrh	r2, [r7, #2]
 8007ff4:	821a      	strh	r2, [r3, #16]
  device->ce_port = ce_port;
 8007ff6:	68fb      	ldr	r3, [r7, #12]
 8007ff8:	69ba      	ldr	r2, [r7, #24]
 8007ffa:	609a      	str	r2, [r3, #8]
  device->ce_pin = ce_pin;
 8007ffc:	68fb      	ldr	r3, [r7, #12]
 8007ffe:	8bba      	ldrh	r2, [r7, #28]
 8008000:	825a      	strh	r2, [r3, #18]

  nRF24_CSN_State(device, GPIO_PIN_SET);
 8008002:	2101      	movs	r1, #1
 8008004:	68f8      	ldr	r0, [r7, #12]
 8008006:	f7ff ffd4 	bl	8007fb2 <nRF24_CSN_State>
  nRF24_CE_State(device, GPIO_PIN_RESET);
 800800a:	2100      	movs	r1, #0
 800800c:	68f8      	ldr	r0, [r7, #12]
 800800e:	f7ff ffbe 	bl	8007f8e <nRF24_CE_State>
}
 8008012:	bf00      	nop
 8008014:	3710      	adds	r7, #16
 8008016:	46bd      	mov	sp, r7
 8008018:	bd80      	pop	{r7, pc}

0800801a <nRF24_LL_RW>:

uint8_t nRF24_LL_RW(nRF24_Handler_t *device, uint8_t data) {
 800801a:	b580      	push	{r7, lr}
 800801c:	b086      	sub	sp, #24
 800801e:	af02      	add	r7, sp, #8
 8008020:	6078      	str	r0, [r7, #4]
 8008022:	460b      	mov	r3, r1
 8008024:	70fb      	strb	r3, [r7, #3]
  uint8_t rxData;
  HAL_SPI_TransmitReceive(device->hspi, &data, &rxData, 1, 10000);
 8008026:	687b      	ldr	r3, [r7, #4]
 8008028:	6818      	ldr	r0, [r3, #0]
 800802a:	f107 020f 	add.w	r2, r7, #15
 800802e:	1cf9      	adds	r1, r7, #3
 8008030:	f242 7310 	movw	r3, #10000	; 0x2710
 8008034:	9300      	str	r3, [sp, #0]
 8008036:	2301      	movs	r3, #1
 8008038:	f7fc fab3 	bl	80045a2 <HAL_SPI_TransmitReceive>
  return rxData;
 800803c:	7bfb      	ldrb	r3, [r7, #15]
}
 800803e:	4618      	mov	r0, r3
 8008040:	3710      	adds	r7, #16
 8008042:	46bd      	mov	sp, r7
 8008044:	bd80      	pop	{r7, pc}

08008046 <nRF24_ReadReg>:

uint8_t nRF24_ReadReg(nRF24_Handler_t *device, uint8_t reg) {
 8008046:	b580      	push	{r7, lr}
 8008048:	b084      	sub	sp, #16
 800804a:	af00      	add	r7, sp, #0
 800804c:	6078      	str	r0, [r7, #4]
 800804e:	460b      	mov	r3, r1
 8008050:	70fb      	strb	r3, [r7, #3]
  uint8_t value;

  nRF24_CSN_State(device, GPIO_PIN_RESET);
 8008052:	2100      	movs	r1, #0
 8008054:	6878      	ldr	r0, [r7, #4]
 8008056:	f7ff ffac 	bl	8007fb2 <nRF24_CSN_State>
  nRF24_LL_RW(device, reg & nRF24_MASK_REG_MAP);
 800805a:	78fb      	ldrb	r3, [r7, #3]
 800805c:	f003 031f 	and.w	r3, r3, #31
 8008060:	b2db      	uxtb	r3, r3
 8008062:	4619      	mov	r1, r3
 8008064:	6878      	ldr	r0, [r7, #4]
 8008066:	f7ff ffd8 	bl	800801a <nRF24_LL_RW>
  value = nRF24_LL_RW(device, nRF24_CMD_NOP);
 800806a:	21ff      	movs	r1, #255	; 0xff
 800806c:	6878      	ldr	r0, [r7, #4]
 800806e:	f7ff ffd4 	bl	800801a <nRF24_LL_RW>
 8008072:	4603      	mov	r3, r0
 8008074:	73fb      	strb	r3, [r7, #15]
  nRF24_CSN_State(device, GPIO_PIN_SET);
 8008076:	2101      	movs	r1, #1
 8008078:	6878      	ldr	r0, [r7, #4]
 800807a:	f7ff ff9a 	bl	8007fb2 <nRF24_CSN_State>

  return value;
 800807e:	7bfb      	ldrb	r3, [r7, #15]
}
 8008080:	4618      	mov	r0, r3
 8008082:	3710      	adds	r7, #16
 8008084:	46bd      	mov	sp, r7
 8008086:	bd80      	pop	{r7, pc}

08008088 <nRF24_WriteReg>:

void nRF24_WriteReg(nRF24_Handler_t *device, uint8_t reg, uint8_t value) {
 8008088:	b580      	push	{r7, lr}
 800808a:	b082      	sub	sp, #8
 800808c:	af00      	add	r7, sp, #0
 800808e:	6078      	str	r0, [r7, #4]
 8008090:	460b      	mov	r3, r1
 8008092:	70fb      	strb	r3, [r7, #3]
 8008094:	4613      	mov	r3, r2
 8008096:	70bb      	strb	r3, [r7, #2]
  nRF24_CSN_State(device, GPIO_PIN_RESET);
 8008098:	2100      	movs	r1, #0
 800809a:	6878      	ldr	r0, [r7, #4]
 800809c:	f7ff ff89 	bl	8007fb2 <nRF24_CSN_State>
  if (reg < nRF24_CMD_W_REGISTER)
 80080a0:	78fb      	ldrb	r3, [r7, #3]
 80080a2:	2b1f      	cmp	r3, #31
 80080a4:	d812      	bhi.n	80080cc <nRF24_WriteReg+0x44>
  {
    /* This is a register access */
    nRF24_LL_RW(device, nRF24_CMD_W_REGISTER | (reg & nRF24_MASK_REG_MAP));
 80080a6:	f997 3003 	ldrsb.w	r3, [r7, #3]
 80080aa:	f003 031f 	and.w	r3, r3, #31
 80080ae:	b25b      	sxtb	r3, r3
 80080b0:	f043 0320 	orr.w	r3, r3, #32
 80080b4:	b25b      	sxtb	r3, r3
 80080b6:	b2db      	uxtb	r3, r3
 80080b8:	4619      	mov	r1, r3
 80080ba:	6878      	ldr	r0, [r7, #4]
 80080bc:	f7ff ffad 	bl	800801a <nRF24_LL_RW>
    nRF24_LL_RW(device, value);
 80080c0:	78bb      	ldrb	r3, [r7, #2]
 80080c2:	4619      	mov	r1, r3
 80080c4:	6878      	ldr	r0, [r7, #4]
 80080c6:	f7ff ffa8 	bl	800801a <nRF24_LL_RW>
 80080ca:	e015      	b.n	80080f8 <nRF24_WriteReg+0x70>
  }
  else
  {
    /* This is a single byte command or future command/register */
    nRF24_LL_RW(device, reg);
 80080cc:	78fb      	ldrb	r3, [r7, #3]
 80080ce:	4619      	mov	r1, r3
 80080d0:	6878      	ldr	r0, [r7, #4]
 80080d2:	f7ff ffa2 	bl	800801a <nRF24_LL_RW>
    if ((reg != nRF24_CMD_FLUSH_TX) && (reg != nRF24_CMD_FLUSH_RX) && \
 80080d6:	78fb      	ldrb	r3, [r7, #3]
 80080d8:	2be1      	cmp	r3, #225	; 0xe1
 80080da:	d00d      	beq.n	80080f8 <nRF24_WriteReg+0x70>
 80080dc:	78fb      	ldrb	r3, [r7, #3]
 80080de:	2be2      	cmp	r3, #226	; 0xe2
 80080e0:	d00a      	beq.n	80080f8 <nRF24_WriteReg+0x70>
 80080e2:	78fb      	ldrb	r3, [r7, #3]
 80080e4:	2be3      	cmp	r3, #227	; 0xe3
 80080e6:	d007      	beq.n	80080f8 <nRF24_WriteReg+0x70>
      (reg != nRF24_CMD_REUSE_TX_PL) && (reg != nRF24_CMD_NOP))
 80080e8:	78fb      	ldrb	r3, [r7, #3]
 80080ea:	2bff      	cmp	r3, #255	; 0xff
 80080ec:	d004      	beq.n	80080f8 <nRF24_WriteReg+0x70>
    {
      /* Send register value */
      nRF24_LL_RW(device, value);
 80080ee:	78bb      	ldrb	r3, [r7, #2]
 80080f0:	4619      	mov	r1, r3
 80080f2:	6878      	ldr	r0, [r7, #4]
 80080f4:	f7ff ff91 	bl	800801a <nRF24_LL_RW>
    }
  }
  nRF24_CSN_State(device, GPIO_PIN_SET);
 80080f8:	2101      	movs	r1, #1
 80080fa:	6878      	ldr	r0, [r7, #4]
 80080fc:	f7ff ff59 	bl	8007fb2 <nRF24_CSN_State>
}
 8008100:	bf00      	nop
 8008102:	3708      	adds	r7, #8
 8008104:	46bd      	mov	sp, r7
 8008106:	bd80      	pop	{r7, pc}

08008108 <nRF24_ReadMBReg>:

void nRF24_ReadMBReg(nRF24_Handler_t *device, uint8_t reg, uint8_t *pBuf, uint8_t count) {
 8008108:	b590      	push	{r4, r7, lr}
 800810a:	b085      	sub	sp, #20
 800810c:	af00      	add	r7, sp, #0
 800810e:	60f8      	str	r0, [r7, #12]
 8008110:	607a      	str	r2, [r7, #4]
 8008112:	461a      	mov	r2, r3
 8008114:	460b      	mov	r3, r1
 8008116:	72fb      	strb	r3, [r7, #11]
 8008118:	4613      	mov	r3, r2
 800811a:	72bb      	strb	r3, [r7, #10]
  nRF24_CSN_State(device, GPIO_PIN_RESET);
 800811c:	2100      	movs	r1, #0
 800811e:	68f8      	ldr	r0, [r7, #12]
 8008120:	f7ff ff47 	bl	8007fb2 <nRF24_CSN_State>
  nRF24_LL_RW(device, reg);
 8008124:	7afb      	ldrb	r3, [r7, #11]
 8008126:	4619      	mov	r1, r3
 8008128:	68f8      	ldr	r0, [r7, #12]
 800812a:	f7ff ff76 	bl	800801a <nRF24_LL_RW>
  while (count--)
 800812e:	e008      	b.n	8008142 <nRF24_ReadMBReg+0x3a>
  {
    *pBuf++ = nRF24_LL_RW(device, nRF24_CMD_NOP);
 8008130:	687c      	ldr	r4, [r7, #4]
 8008132:	1c63      	adds	r3, r4, #1
 8008134:	607b      	str	r3, [r7, #4]
 8008136:	21ff      	movs	r1, #255	; 0xff
 8008138:	68f8      	ldr	r0, [r7, #12]
 800813a:	f7ff ff6e 	bl	800801a <nRF24_LL_RW>
 800813e:	4603      	mov	r3, r0
 8008140:	7023      	strb	r3, [r4, #0]
  while (count--)
 8008142:	7abb      	ldrb	r3, [r7, #10]
 8008144:	1e5a      	subs	r2, r3, #1
 8008146:	72ba      	strb	r2, [r7, #10]
 8008148:	2b00      	cmp	r3, #0
 800814a:	d1f1      	bne.n	8008130 <nRF24_ReadMBReg+0x28>
  }
  nRF24_CSN_State(device, GPIO_PIN_SET);
 800814c:	2101      	movs	r1, #1
 800814e:	68f8      	ldr	r0, [r7, #12]
 8008150:	f7ff ff2f 	bl	8007fb2 <nRF24_CSN_State>
}
 8008154:	bf00      	nop
 8008156:	3714      	adds	r7, #20
 8008158:	46bd      	mov	sp, r7
 800815a:	bd90      	pop	{r4, r7, pc}

0800815c <nRF24_Init>:
    nRF24_LL_RW(device, *pBuf++);
  }
  nRF24_CSN_State(device, GPIO_PIN_SET);
}

void nRF24_Init(nRF24_Handler_t *device) {
 800815c:	b580      	push	{r7, lr}
 800815e:	b082      	sub	sp, #8
 8008160:	af00      	add	r7, sp, #0
 8008162:	6078      	str	r0, [r7, #4]
  /* Write to registers their initial values */
  nRF24_WriteReg(device, nRF24_REG_CONFIG, 0x08);
 8008164:	2208      	movs	r2, #8
 8008166:	2100      	movs	r1, #0
 8008168:	6878      	ldr	r0, [r7, #4]
 800816a:	f7ff ff8d 	bl	8008088 <nRF24_WriteReg>
  nRF24_WriteReg(device, nRF24_REG_EN_AA, 0x3F);
 800816e:	223f      	movs	r2, #63	; 0x3f
 8008170:	2101      	movs	r1, #1
 8008172:	6878      	ldr	r0, [r7, #4]
 8008174:	f7ff ff88 	bl	8008088 <nRF24_WriteReg>
  nRF24_WriteReg(device, nRF24_REG_EN_RXADDR, 0x03);
 8008178:	2203      	movs	r2, #3
 800817a:	2102      	movs	r1, #2
 800817c:	6878      	ldr	r0, [r7, #4]
 800817e:	f7ff ff83 	bl	8008088 <nRF24_WriteReg>
  nRF24_WriteReg(device, nRF24_REG_SETUP_AW, 0x03);
 8008182:	2203      	movs	r2, #3
 8008184:	2103      	movs	r1, #3
 8008186:	6878      	ldr	r0, [r7, #4]
 8008188:	f7ff ff7e 	bl	8008088 <nRF24_WriteReg>
  nRF24_WriteReg(device, nRF24_REG_SETUP_RETR, 0x03);
 800818c:	2203      	movs	r2, #3
 800818e:	2104      	movs	r1, #4
 8008190:	6878      	ldr	r0, [r7, #4]
 8008192:	f7ff ff79 	bl	8008088 <nRF24_WriteReg>
  nRF24_WriteReg(device, nRF24_REG_RF_CH, 0x02);
 8008196:	2202      	movs	r2, #2
 8008198:	2105      	movs	r1, #5
 800819a:	6878      	ldr	r0, [r7, #4]
 800819c:	f7ff ff74 	bl	8008088 <nRF24_WriteReg>
  nRF24_WriteReg(device, nRF24_REG_RF_SETUP, 0x0E);
 80081a0:	220e      	movs	r2, #14
 80081a2:	2106      	movs	r1, #6
 80081a4:	6878      	ldr	r0, [r7, #4]
 80081a6:	f7ff ff6f 	bl	8008088 <nRF24_WriteReg>
  nRF24_WriteReg(device, nRF24_REG_STATUS, 0x00);
 80081aa:	2200      	movs	r2, #0
 80081ac:	2107      	movs	r1, #7
 80081ae:	6878      	ldr	r0, [r7, #4]
 80081b0:	f7ff ff6a 	bl	8008088 <nRF24_WriteReg>
  nRF24_WriteReg(device, nRF24_REG_RX_PW_P0, 0x00);
 80081b4:	2200      	movs	r2, #0
 80081b6:	2111      	movs	r1, #17
 80081b8:	6878      	ldr	r0, [r7, #4]
 80081ba:	f7ff ff65 	bl	8008088 <nRF24_WriteReg>
  nRF24_WriteReg(device, nRF24_REG_RX_PW_P1, 0x00);
 80081be:	2200      	movs	r2, #0
 80081c0:	2112      	movs	r1, #18
 80081c2:	6878      	ldr	r0, [r7, #4]
 80081c4:	f7ff ff60 	bl	8008088 <nRF24_WriteReg>
  nRF24_WriteReg(device, nRF24_REG_RX_PW_P2, 0x00);
 80081c8:	2200      	movs	r2, #0
 80081ca:	2113      	movs	r1, #19
 80081cc:	6878      	ldr	r0, [r7, #4]
 80081ce:	f7ff ff5b 	bl	8008088 <nRF24_WriteReg>
  nRF24_WriteReg(device, nRF24_REG_RX_PW_P3, 0x00);
 80081d2:	2200      	movs	r2, #0
 80081d4:	2114      	movs	r1, #20
 80081d6:	6878      	ldr	r0, [r7, #4]
 80081d8:	f7ff ff56 	bl	8008088 <nRF24_WriteReg>
  nRF24_WriteReg(device, nRF24_REG_RX_PW_P4, 0x00);
 80081dc:	2200      	movs	r2, #0
 80081de:	2115      	movs	r1, #21
 80081e0:	6878      	ldr	r0, [r7, #4]
 80081e2:	f7ff ff51 	bl	8008088 <nRF24_WriteReg>
  nRF24_WriteReg(device, nRF24_REG_RX_PW_P5, 0x00);
 80081e6:	2200      	movs	r2, #0
 80081e8:	2116      	movs	r1, #22
 80081ea:	6878      	ldr	r0, [r7, #4]
 80081ec:	f7ff ff4c 	bl	8008088 <nRF24_WriteReg>
  nRF24_WriteReg(device, nRF24_REG_DYNPD, 0x00);
 80081f0:	2200      	movs	r2, #0
 80081f2:	211c      	movs	r1, #28
 80081f4:	6878      	ldr	r0, [r7, #4]
 80081f6:	f7ff ff47 	bl	8008088 <nRF24_WriteReg>
  nRF24_WriteReg(device, nRF24_REG_FEATURE, 0x00);
 80081fa:	2200      	movs	r2, #0
 80081fc:	211d      	movs	r1, #29
 80081fe:	6878      	ldr	r0, [r7, #4]
 8008200:	f7ff ff42 	bl	8008088 <nRF24_WriteReg>

  /* Clear the FIFO's */
  nRF24_FlushRX(device);
 8008204:	6878      	ldr	r0, [r7, #4]
 8008206:	f000 f8f6 	bl	80083f6 <nRF24_FlushRX>
  nRF24_FlushTX(device);
 800820a:	6878      	ldr	r0, [r7, #4]
 800820c:	f000 f8e6 	bl	80083dc <nRF24_FlushTX>

  /* Clear any pending interrupt flags */
  nRF24_ClearIRQFlags(device);
 8008210:	6878      	ldr	r0, [r7, #4]
 8008212:	f000 f8fd 	bl	8008410 <nRF24_ClearIRQFlags>

  /* Deassert CSN pin (chip release) */
  nRF24_CSN_State(device, GPIO_PIN_SET);
 8008216:	2101      	movs	r1, #1
 8008218:	6878      	ldr	r0, [r7, #4]
 800821a:	f7ff feca 	bl	8007fb2 <nRF24_CSN_State>
}
 800821e:	bf00      	nop
 8008220:	3708      	adds	r7, #8
 8008222:	46bd      	mov	sp, r7
 8008224:	bd80      	pop	{r7, pc}

08008226 <nRF24_SetPowerMode>:
  }

  return 1;
}

void nRF24_SetPowerMode(nRF24_Handler_t *device, uint8_t mode) {
 8008226:	b580      	push	{r7, lr}
 8008228:	b084      	sub	sp, #16
 800822a:	af00      	add	r7, sp, #0
 800822c:	6078      	str	r0, [r7, #4]
 800822e:	460b      	mov	r3, r1
 8008230:	70fb      	strb	r3, [r7, #3]
  uint8_t reg;

  reg = nRF24_ReadReg(device, nRF24_REG_CONFIG);
 8008232:	2100      	movs	r1, #0
 8008234:	6878      	ldr	r0, [r7, #4]
 8008236:	f7ff ff06 	bl	8008046 <nRF24_ReadReg>
 800823a:	4603      	mov	r3, r0
 800823c:	73fb      	strb	r3, [r7, #15]
  if (mode == nRF24_PWR_UP)
 800823e:	78fb      	ldrb	r3, [r7, #3]
 8008240:	2b02      	cmp	r3, #2
 8008242:	d104      	bne.n	800824e <nRF24_SetPowerMode+0x28>
  {
    /* Set the PWR_UP bit of CONFIG register to wake the transceiver */
    /* It goes into Stanby-I mode with consumption about 26uA */
    reg |= nRF24_CONFIG_PWR_UP;
 8008244:	7bfb      	ldrb	r3, [r7, #15]
 8008246:	f043 0302 	orr.w	r3, r3, #2
 800824a:	73fb      	strb	r3, [r7, #15]
 800824c:	e003      	b.n	8008256 <nRF24_SetPowerMode+0x30>
  } else {
    /* Clear the PWR_UP bit of CONFIG register to put the transceiver */
    /* into power down mode with consumption about 900nA */
    reg &= ~nRF24_CONFIG_PWR_UP;
 800824e:	7bfb      	ldrb	r3, [r7, #15]
 8008250:	f023 0302 	bic.w	r3, r3, #2
 8008254:	73fb      	strb	r3, [r7, #15]
  }
  nRF24_WriteReg(device, nRF24_REG_CONFIG, reg);
 8008256:	7bfb      	ldrb	r3, [r7, #15]
 8008258:	461a      	mov	r2, r3
 800825a:	2100      	movs	r1, #0
 800825c:	6878      	ldr	r0, [r7, #4]
 800825e:	f7ff ff13 	bl	8008088 <nRF24_WriteReg>
}
 8008262:	bf00      	nop
 8008264:	3710      	adds	r7, #16
 8008266:	46bd      	mov	sp, r7
 8008268:	bd80      	pop	{r7, pc}

0800826a <nRF24_SetOperationalMode>:

void nRF24_SetOperationalMode(nRF24_Handler_t *device, uint8_t mode) {
 800826a:	b580      	push	{r7, lr}
 800826c:	b084      	sub	sp, #16
 800826e:	af00      	add	r7, sp, #0
 8008270:	6078      	str	r0, [r7, #4]
 8008272:	460b      	mov	r3, r1
 8008274:	70fb      	strb	r3, [r7, #3]
  uint8_t reg;

  /* Configure PRIM_RX bit of the CONFIG register */
  reg  = nRF24_ReadReg(device, nRF24_REG_CONFIG);
 8008276:	2100      	movs	r1, #0
 8008278:	6878      	ldr	r0, [r7, #4]
 800827a:	f7ff fee4 	bl	8008046 <nRF24_ReadReg>
 800827e:	4603      	mov	r3, r0
 8008280:	73fb      	strb	r3, [r7, #15]
  reg &= ~nRF24_CONFIG_PRIM_RX;
 8008282:	7bfb      	ldrb	r3, [r7, #15]
 8008284:	f023 0301 	bic.w	r3, r3, #1
 8008288:	73fb      	strb	r3, [r7, #15]
  reg |= (mode & nRF24_CONFIG_PRIM_RX);
 800828a:	f997 3003 	ldrsb.w	r3, [r7, #3]
 800828e:	f003 0301 	and.w	r3, r3, #1
 8008292:	b25a      	sxtb	r2, r3
 8008294:	f997 300f 	ldrsb.w	r3, [r7, #15]
 8008298:	4313      	orrs	r3, r2
 800829a:	b25b      	sxtb	r3, r3
 800829c:	73fb      	strb	r3, [r7, #15]
  nRF24_WriteReg(device, nRF24_REG_CONFIG, reg);
 800829e:	7bfb      	ldrb	r3, [r7, #15]
 80082a0:	461a      	mov	r2, r3
 80082a2:	2100      	movs	r1, #0
 80082a4:	6878      	ldr	r0, [r7, #4]
 80082a6:	f7ff feef 	bl	8008088 <nRF24_WriteReg>
}
 80082aa:	bf00      	nop
 80082ac:	3710      	adds	r7, #16
 80082ae:	46bd      	mov	sp, r7
 80082b0:	bd80      	pop	{r7, pc}
	...

080082b4 <nRF24_SetRXPipe>:
  reg &= ~nRF24_MASK_DATARATE;
  reg |= data_rate;
  nRF24_WriteReg(device, nRF24_REG_RF_SETUP, reg);
}

void nRF24_SetRXPipe(nRF24_Handler_t *device, uint8_t pipe, uint8_t aa_state, uint8_t payload_len) {
 80082b4:	b580      	push	{r7, lr}
 80082b6:	b084      	sub	sp, #16
 80082b8:	af00      	add	r7, sp, #0
 80082ba:	6078      	str	r0, [r7, #4]
 80082bc:	4608      	mov	r0, r1
 80082be:	4611      	mov	r1, r2
 80082c0:	461a      	mov	r2, r3
 80082c2:	4603      	mov	r3, r0
 80082c4:	70fb      	strb	r3, [r7, #3]
 80082c6:	460b      	mov	r3, r1
 80082c8:	70bb      	strb	r3, [r7, #2]
 80082ca:	4613      	mov	r3, r2
 80082cc:	707b      	strb	r3, [r7, #1]
  uint8_t reg;

  /* Enable the specified pipe (EN_RXADDR register) */
  reg = (nRF24_ReadReg(device, nRF24_REG_EN_RXADDR) | (1 << pipe)) & nRF24_MASK_EN_RX;
 80082ce:	2102      	movs	r1, #2
 80082d0:	6878      	ldr	r0, [r7, #4]
 80082d2:	f7ff feb8 	bl	8008046 <nRF24_ReadReg>
 80082d6:	4603      	mov	r3, r0
 80082d8:	b25a      	sxtb	r2, r3
 80082da:	78fb      	ldrb	r3, [r7, #3]
 80082dc:	2101      	movs	r1, #1
 80082de:	fa01 f303 	lsl.w	r3, r1, r3
 80082e2:	b25b      	sxtb	r3, r3
 80082e4:	4313      	orrs	r3, r2
 80082e6:	b25b      	sxtb	r3, r3
 80082e8:	b2db      	uxtb	r3, r3
 80082ea:	f003 033f 	and.w	r3, r3, #63	; 0x3f
 80082ee:	73fb      	strb	r3, [r7, #15]
  nRF24_WriteReg(device, nRF24_REG_EN_RXADDR, reg);
 80082f0:	7bfb      	ldrb	r3, [r7, #15]
 80082f2:	461a      	mov	r2, r3
 80082f4:	2102      	movs	r1, #2
 80082f6:	6878      	ldr	r0, [r7, #4]
 80082f8:	f7ff fec6 	bl	8008088 <nRF24_WriteReg>

  /* Set RX payload length (RX_PW_Px register) */
  nRF24_WriteReg(device, nRF24_RX_PW_PIPE[pipe], payload_len & nRF24_MASK_RX_PW);
 80082fc:	78fb      	ldrb	r3, [r7, #3]
 80082fe:	4a1a      	ldr	r2, [pc, #104]	; (8008368 <nRF24_SetRXPipe+0xb4>)
 8008300:	5cd1      	ldrb	r1, [r2, r3]
 8008302:	787b      	ldrb	r3, [r7, #1]
 8008304:	f003 033f 	and.w	r3, r3, #63	; 0x3f
 8008308:	b2db      	uxtb	r3, r3
 800830a:	461a      	mov	r2, r3
 800830c:	6878      	ldr	r0, [r7, #4]
 800830e:	f7ff febb 	bl	8008088 <nRF24_WriteReg>

  /* Set auto acknowledgment for a specified pipe (EN_AA register) */
  reg = nRF24_ReadReg(device, nRF24_REG_EN_AA);
 8008312:	2101      	movs	r1, #1
 8008314:	6878      	ldr	r0, [r7, #4]
 8008316:	f7ff fe96 	bl	8008046 <nRF24_ReadReg>
 800831a:	4603      	mov	r3, r0
 800831c:	73fb      	strb	r3, [r7, #15]
  if (aa_state == nRF24_AA_ON)
 800831e:	78bb      	ldrb	r3, [r7, #2]
 8008320:	2b01      	cmp	r3, #1
 8008322:	d10a      	bne.n	800833a <nRF24_SetRXPipe+0x86>
  {
    reg |=  (1 << pipe);
 8008324:	78fb      	ldrb	r3, [r7, #3]
 8008326:	2201      	movs	r2, #1
 8008328:	fa02 f303 	lsl.w	r3, r2, r3
 800832c:	b25a      	sxtb	r2, r3
 800832e:	f997 300f 	ldrsb.w	r3, [r7, #15]
 8008332:	4313      	orrs	r3, r2
 8008334:	b25b      	sxtb	r3, r3
 8008336:	73fb      	strb	r3, [r7, #15]
 8008338:	e00b      	b.n	8008352 <nRF24_SetRXPipe+0x9e>
  } else {
    reg &= ~(1 << pipe);
 800833a:	78fb      	ldrb	r3, [r7, #3]
 800833c:	2201      	movs	r2, #1
 800833e:	fa02 f303 	lsl.w	r3, r2, r3
 8008342:	b25b      	sxtb	r3, r3
 8008344:	43db      	mvns	r3, r3
 8008346:	b25a      	sxtb	r2, r3
 8008348:	f997 300f 	ldrsb.w	r3, [r7, #15]
 800834c:	4013      	ands	r3, r2
 800834e:	b25b      	sxtb	r3, r3
 8008350:	73fb      	strb	r3, [r7, #15]
  }
  nRF24_WriteReg(device, nRF24_REG_EN_AA, reg);
 8008352:	7bfb      	ldrb	r3, [r7, #15]
 8008354:	461a      	mov	r2, r3
 8008356:	2101      	movs	r1, #1
 8008358:	6878      	ldr	r0, [r7, #4]
 800835a:	f7ff fe95 	bl	8008088 <nRF24_WriteReg>
}
 800835e:	bf00      	nop
 8008360:	3710      	adds	r7, #16
 8008362:	46bd      	mov	sp, r7
 8008364:	bd80      	pop	{r7, pc}
 8008366:	bf00      	nop
 8008368:	08008968 	.word	0x08008968

0800836c <nRF24_DisableAA>:
  reg  = nRF24_ReadReg(device, nRF24_REG_EN_AA);
  reg |= (1 << pipe);
  nRF24_WriteReg(device, nRF24_REG_EN_AA, reg);
}

void nRF24_DisableAA(nRF24_Handler_t *device, uint8_t pipe) {
 800836c:	b580      	push	{r7, lr}
 800836e:	b084      	sub	sp, #16
 8008370:	af00      	add	r7, sp, #0
 8008372:	6078      	str	r0, [r7, #4]
 8008374:	460b      	mov	r3, r1
 8008376:	70fb      	strb	r3, [r7, #3]
  uint8_t reg;

  if (pipe > 5)
 8008378:	78fb      	ldrb	r3, [r7, #3]
 800837a:	2b05      	cmp	r3, #5
 800837c:	d905      	bls.n	800838a <nRF24_DisableAA+0x1e>
  {
    /* Disable Auto-ACK for ALL pipes */
    nRF24_WriteReg(device, nRF24_REG_EN_AA, 0x00);
 800837e:	2200      	movs	r2, #0
 8008380:	2101      	movs	r1, #1
 8008382:	6878      	ldr	r0, [r7, #4]
 8008384:	f7ff fe80 	bl	8008088 <nRF24_WriteReg>
    /* Clear bit in the EN_AA register */
    reg  = nRF24_ReadReg(device, nRF24_REG_EN_AA);
    reg &= ~(1 << pipe);
    nRF24_WriteReg(device, nRF24_REG_EN_AA, reg);
  }
}
 8008388:	e017      	b.n	80083ba <nRF24_DisableAA+0x4e>
    reg  = nRF24_ReadReg(device, nRF24_REG_EN_AA);
 800838a:	2101      	movs	r1, #1
 800838c:	6878      	ldr	r0, [r7, #4]
 800838e:	f7ff fe5a 	bl	8008046 <nRF24_ReadReg>
 8008392:	4603      	mov	r3, r0
 8008394:	73fb      	strb	r3, [r7, #15]
    reg &= ~(1 << pipe);
 8008396:	78fb      	ldrb	r3, [r7, #3]
 8008398:	2201      	movs	r2, #1
 800839a:	fa02 f303 	lsl.w	r3, r2, r3
 800839e:	b25b      	sxtb	r3, r3
 80083a0:	43db      	mvns	r3, r3
 80083a2:	b25a      	sxtb	r2, r3
 80083a4:	f997 300f 	ldrsb.w	r3, [r7, #15]
 80083a8:	4013      	ands	r3, r2
 80083aa:	b25b      	sxtb	r3, r3
 80083ac:	73fb      	strb	r3, [r7, #15]
    nRF24_WriteReg(device, nRF24_REG_EN_AA, reg);
 80083ae:	7bfb      	ldrb	r3, [r7, #15]
 80083b0:	461a      	mov	r2, r3
 80083b2:	2101      	movs	r1, #1
 80083b4:	6878      	ldr	r0, [r7, #4]
 80083b6:	f7ff fe67 	bl	8008088 <nRF24_WriteReg>
}
 80083ba:	bf00      	nop
 80083bc:	3710      	adds	r7, #16
 80083be:	46bd      	mov	sp, r7
 80083c0:	bd80      	pop	{r7, pc}

080083c2 <nRF24_GetStatus>:

uint8_t nRF24_GetStatus(nRF24_Handler_t *device) {
 80083c2:	b580      	push	{r7, lr}
 80083c4:	b082      	sub	sp, #8
 80083c6:	af00      	add	r7, sp, #0
 80083c8:	6078      	str	r0, [r7, #4]
  return nRF24_ReadReg(device, nRF24_REG_STATUS);
 80083ca:	2107      	movs	r1, #7
 80083cc:	6878      	ldr	r0, [r7, #4]
 80083ce:	f7ff fe3a 	bl	8008046 <nRF24_ReadReg>
 80083d2:	4603      	mov	r3, r0
}
 80083d4:	4618      	mov	r0, r3
 80083d6:	3708      	adds	r7, #8
 80083d8:	46bd      	mov	sp, r7
 80083da:	bd80      	pop	{r7, pc}

080083dc <nRF24_FlushTX>:
  /* The PLOS counter is reset after write to RF_CH register */
  reg = nRF24_ReadReg(device, nRF24_REG_RF_CH);
  nRF24_WriteReg(device, nRF24_REG_RF_CH, reg);
}

void nRF24_FlushTX(nRF24_Handler_t *device) {
 80083dc:	b580      	push	{r7, lr}
 80083de:	b082      	sub	sp, #8
 80083e0:	af00      	add	r7, sp, #0
 80083e2:	6078      	str	r0, [r7, #4]
  nRF24_WriteReg(device, nRF24_CMD_FLUSH_TX, nRF24_CMD_NOP);
 80083e4:	22ff      	movs	r2, #255	; 0xff
 80083e6:	21e1      	movs	r1, #225	; 0xe1
 80083e8:	6878      	ldr	r0, [r7, #4]
 80083ea:	f7ff fe4d 	bl	8008088 <nRF24_WriteReg>
}
 80083ee:	bf00      	nop
 80083f0:	3708      	adds	r7, #8
 80083f2:	46bd      	mov	sp, r7
 80083f4:	bd80      	pop	{r7, pc}

080083f6 <nRF24_FlushRX>:

void nRF24_FlushRX(nRF24_Handler_t *device) {
 80083f6:	b580      	push	{r7, lr}
 80083f8:	b082      	sub	sp, #8
 80083fa:	af00      	add	r7, sp, #0
 80083fc:	6078      	str	r0, [r7, #4]
  nRF24_WriteReg(device, nRF24_CMD_FLUSH_RX, nRF24_CMD_NOP);
 80083fe:	22ff      	movs	r2, #255	; 0xff
 8008400:	21e2      	movs	r1, #226	; 0xe2
 8008402:	6878      	ldr	r0, [r7, #4]
 8008404:	f7ff fe40 	bl	8008088 <nRF24_WriteReg>
}
 8008408:	bf00      	nop
 800840a:	3708      	adds	r7, #8
 800840c:	46bd      	mov	sp, r7
 800840e:	bd80      	pop	{r7, pc}

08008410 <nRF24_ClearIRQFlags>:

void nRF24_ClearIRQFlags(nRF24_Handler_t *device) {
 8008410:	b580      	push	{r7, lr}
 8008412:	b084      	sub	sp, #16
 8008414:	af00      	add	r7, sp, #0
 8008416:	6078      	str	r0, [r7, #4]
  uint8_t reg;

  /* Clear RX_DR, TX_DS and MAX_RT bits of the STATUS register */
  reg  = nRF24_ReadReg(device, nRF24_REG_STATUS);
 8008418:	2107      	movs	r1, #7
 800841a:	6878      	ldr	r0, [r7, #4]
 800841c:	f7ff fe13 	bl	8008046 <nRF24_ReadReg>
 8008420:	4603      	mov	r3, r0
 8008422:	73fb      	strb	r3, [r7, #15]
  reg |= nRF24_MASK_STATUS_IRQ;
 8008424:	7bfb      	ldrb	r3, [r7, #15]
 8008426:	f043 0370 	orr.w	r3, r3, #112	; 0x70
 800842a:	73fb      	strb	r3, [r7, #15]
  nRF24_WriteReg(device, nRF24_REG_STATUS, reg);
 800842c:	7bfb      	ldrb	r3, [r7, #15]
 800842e:	461a      	mov	r2, r3
 8008430:	2107      	movs	r1, #7
 8008432:	6878      	ldr	r0, [r7, #4]
 8008434:	f7ff fe28 	bl	8008088 <nRF24_WriteReg>
}
 8008438:	bf00      	nop
 800843a:	3710      	adds	r7, #16
 800843c:	46bd      	mov	sp, r7
 800843e:	bd80      	pop	{r7, pc}

08008440 <nRF24_ReadPayload>:

void nRF24_WritePayload(nRF24_Handler_t *device, uint8_t *pBuf, uint8_t length) {
  nRF24_WriteMBReg(device, nRF24_CMD_W_TX_PAYLOAD, pBuf, length);
}

nRF24_RXResult nRF24_ReadPayload(nRF24_Handler_t *device, uint8_t *pBuf, uint8_t *length) {
 8008440:	b580      	push	{r7, lr}
 8008442:	b086      	sub	sp, #24
 8008444:	af00      	add	r7, sp, #0
 8008446:	60f8      	str	r0, [r7, #12]
 8008448:	60b9      	str	r1, [r7, #8]
 800844a:	607a      	str	r2, [r7, #4]
  uint8_t pipe;

  /* Extract a payload pipe number from the STATUS register */
  pipe = (nRF24_ReadReg(device, nRF24_REG_STATUS) & nRF24_MASK_RX_P_NO) >> 1;
 800844c:	2107      	movs	r1, #7
 800844e:	68f8      	ldr	r0, [r7, #12]
 8008450:	f7ff fdf9 	bl	8008046 <nRF24_ReadReg>
 8008454:	4603      	mov	r3, r0
 8008456:	105b      	asrs	r3, r3, #1
 8008458:	b2db      	uxtb	r3, r3
 800845a:	f003 0307 	and.w	r3, r3, #7
 800845e:	75fb      	strb	r3, [r7, #23]

  /* RX FIFO empty? */
  if (pipe < 6)
 8008460:	7dfb      	ldrb	r3, [r7, #23]
 8008462:	2b05      	cmp	r3, #5
 8008464:	d817      	bhi.n	8008496 <nRF24_ReadPayload+0x56>
  {
    /* Get payload length */
    *length = nRF24_ReadReg(device, nRF24_RX_PW_PIPE[pipe]);
 8008466:	7dfb      	ldrb	r3, [r7, #23]
 8008468:	4a0f      	ldr	r2, [pc, #60]	; (80084a8 <nRF24_ReadPayload+0x68>)
 800846a:	5cd3      	ldrb	r3, [r2, r3]
 800846c:	4619      	mov	r1, r3
 800846e:	68f8      	ldr	r0, [r7, #12]
 8008470:	f7ff fde9 	bl	8008046 <nRF24_ReadReg>
 8008474:	4603      	mov	r3, r0
 8008476:	461a      	mov	r2, r3
 8008478:	687b      	ldr	r3, [r7, #4]
 800847a:	701a      	strb	r2, [r3, #0]

    /* Read a payload from the RX FIFO */
    if (*length)
 800847c:	687b      	ldr	r3, [r7, #4]
 800847e:	781b      	ldrb	r3, [r3, #0]
 8008480:	2b00      	cmp	r3, #0
 8008482:	d006      	beq.n	8008492 <nRF24_ReadPayload+0x52>
    {
      nRF24_ReadMBReg(device, nRF24_CMD_R_RX_PAYLOAD, pBuf, *length);
 8008484:	687b      	ldr	r3, [r7, #4]
 8008486:	781b      	ldrb	r3, [r3, #0]
 8008488:	68ba      	ldr	r2, [r7, #8]
 800848a:	2161      	movs	r1, #97	; 0x61
 800848c:	68f8      	ldr	r0, [r7, #12]
 800848e:	f7ff fe3b 	bl	8008108 <nRF24_ReadMBReg>
    }

    return ((nRF24_RXResult)pipe);
 8008492:	7dfb      	ldrb	r3, [r7, #23]
 8008494:	e003      	b.n	800849e <nRF24_ReadPayload+0x5e>
  }

  /* The RX FIFO is empty */
  *length = 0;
 8008496:	687b      	ldr	r3, [r7, #4]
 8008498:	2200      	movs	r2, #0
 800849a:	701a      	strb	r2, [r3, #0]

  return nRF24_RX_EMPTY;
 800849c:	23ff      	movs	r3, #255	; 0xff
}
 800849e:	4618      	mov	r0, r3
 80084a0:	3718      	adds	r7, #24
 80084a2:	46bd      	mov	sp, r7
 80084a4:	bd80      	pop	{r7, pc}
 80084a6:	bf00      	nop
 80084a8:	08008968 	.word	0x08008968

080084ac <VL6180X_Read8>:
    @brief  I2C low level interfacing
*/
/**************************************************************************/

// Read 1 byte from the VL6180X at 'address'
uint8_t VL6180X_Read8(VL6180X_Handler_t* device, uint16_t command) {
 80084ac:	b580      	push	{r7, lr}
 80084ae:	b086      	sub	sp, #24
 80084b0:	af02      	add	r7, sp, #8
 80084b2:	6078      	str	r0, [r7, #4]
 80084b4:	460b      	mov	r3, r1
 80084b6:	807b      	strh	r3, [r7, #2]
  device->txBuffer[0] = (uint8_t)(command >> 8);
 80084b8:	887b      	ldrh	r3, [r7, #2]
 80084ba:	0a1b      	lsrs	r3, r3, #8
 80084bc:	b29b      	uxth	r3, r3
 80084be:	b2da      	uxtb	r2, r3
 80084c0:	687b      	ldr	r3, [r7, #4]
 80084c2:	725a      	strb	r2, [r3, #9]
  device->txBuffer[1] = (uint8_t)(command & 0xFF);
 80084c4:	887b      	ldrh	r3, [r7, #2]
 80084c6:	b2da      	uxtb	r2, r3
 80084c8:	687b      	ldr	r3, [r7, #4]
 80084ca:	729a      	strb	r2, [r3, #10]
  uint8_t send_address = device->i2cAddress << 1;
 80084cc:	687b      	ldr	r3, [r7, #4]
 80084ce:	791b      	ldrb	r3, [r3, #4]
 80084d0:	005b      	lsls	r3, r3, #1
 80084d2:	73fb      	strb	r3, [r7, #15]

  HAL_I2C_Master_Transmit(device->i2cHandler, send_address, device->txBuffer, 2, 1000);
 80084d4:	687b      	ldr	r3, [r7, #4]
 80084d6:	6818      	ldr	r0, [r3, #0]
 80084d8:	7bfb      	ldrb	r3, [r7, #15]
 80084da:	b299      	uxth	r1, r3
 80084dc:	687b      	ldr	r3, [r7, #4]
 80084de:	f103 0209 	add.w	r2, r3, #9
 80084e2:	f44f 737a 	mov.w	r3, #1000	; 0x3e8
 80084e6:	9300      	str	r3, [sp, #0]
 80084e8:	2302      	movs	r3, #2
 80084ea:	f7fa f957 	bl	800279c <HAL_I2C_Master_Transmit>
  HAL_I2C_Master_Receive(device->i2cHandler, send_address, device->rxBuffer, 1, 1000);
 80084ee:	687b      	ldr	r3, [r7, #4]
 80084f0:	6818      	ldr	r0, [r3, #0]
 80084f2:	7bfb      	ldrb	r3, [r7, #15]
 80084f4:	b299      	uxth	r1, r3
 80084f6:	687b      	ldr	r3, [r7, #4]
 80084f8:	1d5a      	adds	r2, r3, #5
 80084fa:	f44f 737a 	mov.w	r3, #1000	; 0x3e8
 80084fe:	9300      	str	r3, [sp, #0]
 8008500:	2301      	movs	r3, #1
 8008502:	f7fa fa3f 	bl	8002984 <HAL_I2C_Master_Receive>
  return device->rxBuffer[0];
 8008506:	687b      	ldr	r3, [r7, #4]
 8008508:	795b      	ldrb	r3, [r3, #5]
}
 800850a:	4618      	mov	r0, r3
 800850c:	3710      	adds	r7, #16
 800850e:	46bd      	mov	sp, r7
 8008510:	bd80      	pop	{r7, pc}

08008512 <VL6180X_Write8>:
  HAL_I2C_Master_Receive(device->i2cHandler, send_address, device->rxBuffer, 2, 1000);
  return ((uint16_t)(device->rxBuffer[0]) << 8) | ((uint16_t)(device->rxBuffer[1]));
}

// write 1 byte
void VL6180X_Write8(VL6180X_Handler_t* device, uint16_t command, uint8_t data) {
 8008512:	b580      	push	{r7, lr}
 8008514:	b086      	sub	sp, #24
 8008516:	af02      	add	r7, sp, #8
 8008518:	6078      	str	r0, [r7, #4]
 800851a:	460b      	mov	r3, r1
 800851c:	807b      	strh	r3, [r7, #2]
 800851e:	4613      	mov	r3, r2
 8008520:	707b      	strb	r3, [r7, #1]
  device->txBuffer[0] = (uint8_t)(command >> 8);
 8008522:	887b      	ldrh	r3, [r7, #2]
 8008524:	0a1b      	lsrs	r3, r3, #8
 8008526:	b29b      	uxth	r3, r3
 8008528:	b2da      	uxtb	r2, r3
 800852a:	687b      	ldr	r3, [r7, #4]
 800852c:	725a      	strb	r2, [r3, #9]
  device->txBuffer[1] = (uint8_t)(command & 0xFF);
 800852e:	887b      	ldrh	r3, [r7, #2]
 8008530:	b2da      	uxtb	r2, r3
 8008532:	687b      	ldr	r3, [r7, #4]
 8008534:	729a      	strb	r2, [r3, #10]
  uint8_t send_address = device->i2cAddress << 1;
 8008536:	687b      	ldr	r3, [r7, #4]
 8008538:	791b      	ldrb	r3, [r3, #4]
 800853a:	005b      	lsls	r3, r3, #1
 800853c:	73fb      	strb	r3, [r7, #15]

  device->txBuffer[2] = data;
 800853e:	687b      	ldr	r3, [r7, #4]
 8008540:	787a      	ldrb	r2, [r7, #1]
 8008542:	72da      	strb	r2, [r3, #11]
  HAL_I2C_Master_Transmit(device->i2cHandler, send_address, device->txBuffer, 3, 1000);
 8008544:	687b      	ldr	r3, [r7, #4]
 8008546:	6818      	ldr	r0, [r3, #0]
 8008548:	7bfb      	ldrb	r3, [r7, #15]
 800854a:	b299      	uxth	r1, r3
 800854c:	687b      	ldr	r3, [r7, #4]
 800854e:	f103 0209 	add.w	r2, r3, #9
 8008552:	f44f 737a 	mov.w	r3, #1000	; 0x3e8
 8008556:	9300      	str	r3, [sp, #0]
 8008558:	2303      	movs	r3, #3
 800855a:	f7fa f91f 	bl	800279c <HAL_I2C_Master_Transmit>
}
 800855e:	bf00      	nop
 8008560:	3710      	adds	r7, #16
 8008562:	46bd      	mov	sp, r7
 8008564:	bd80      	pop	{r7, pc}

08008566 <VL6180X_Init>:
  uint8_t send_address = device->i2cAddress << 1;

  HAL_I2C_Master_Transmit(device->i2cHandler, send_address, device->txBuffer, 4, 1000);
}

bool VL6180X_Init(VL6180X_Handler_t *device, I2C_HandleTypeDef *i2cHandler, uint8_t i2cAddress) {
 8008566:	b580      	push	{r7, lr}
 8008568:	b084      	sub	sp, #16
 800856a:	af00      	add	r7, sp, #0
 800856c:	60f8      	str	r0, [r7, #12]
 800856e:	60b9      	str	r1, [r7, #8]
 8008570:	4613      	mov	r3, r2
 8008572:	71fb      	strb	r3, [r7, #7]
  device->i2cHandler = i2cHandler;
 8008574:	68fb      	ldr	r3, [r7, #12]
 8008576:	68ba      	ldr	r2, [r7, #8]
 8008578:	601a      	str	r2, [r3, #0]
  device->i2cAddress = i2cAddress;
 800857a:	68fb      	ldr	r3, [r7, #12]
 800857c:	79fa      	ldrb	r2, [r7, #7]
 800857e:	711a      	strb	r2, [r3, #4]

  if (VL6180X_Read8(device, VL6180X_REG_IDENTIFICATION_MODEL_ID) != 0xB4) {
 8008580:	2100      	movs	r1, #0
 8008582:	68f8      	ldr	r0, [r7, #12]
 8008584:	f7ff ff92 	bl	80084ac <VL6180X_Read8>
 8008588:	4603      	mov	r3, r0
 800858a:	2bb4      	cmp	r3, #180	; 0xb4
 800858c:	d001      	beq.n	8008592 <VL6180X_Init+0x2c>
    return false;
 800858e:	2300      	movs	r3, #0
 8008590:	e011      	b.n	80085b6 <VL6180X_Init+0x50>
  }

  if (VL6180X_Read8(device, VL6180X_REG_SYSTEM_FRESH_OUT_OF_RESET) & 0x01) {
 8008592:	2116      	movs	r1, #22
 8008594:	68f8      	ldr	r0, [r7, #12]
 8008596:	f7ff ff89 	bl	80084ac <VL6180X_Read8>
 800859a:	4603      	mov	r3, r0
 800859c:	f003 0301 	and.w	r3, r3, #1
 80085a0:	2b00      	cmp	r3, #0
 80085a2:	d007      	beq.n	80085b4 <VL6180X_Init+0x4e>
    VL6180X_LoadSettings(device);
 80085a4:	68f8      	ldr	r0, [r7, #12]
 80085a6:	f000 f80a 	bl	80085be <VL6180X_LoadSettings>
    VL6180X_Write8(device, VL6180X_REG_SYSTEM_FRESH_OUT_OF_RESET, 0x00);
 80085aa:	2200      	movs	r2, #0
 80085ac:	2116      	movs	r1, #22
 80085ae:	68f8      	ldr	r0, [r7, #12]
 80085b0:	f7ff ffaf 	bl	8008512 <VL6180X_Write8>
  }

  return true;
 80085b4:	2301      	movs	r3, #1
}
 80085b6:	4618      	mov	r0, r3
 80085b8:	3710      	adds	r7, #16
 80085ba:	46bd      	mov	sp, r7
 80085bc:	bd80      	pop	{r7, pc}

080085be <VL6180X_LoadSettings>:
/*!
    @brief  Load the settings for proximity/distance ranging
*/
/**************************************************************************/

void VL6180X_LoadSettings(VL6180X_Handler_t *device) {
 80085be:	b580      	push	{r7, lr}
 80085c0:	b082      	sub	sp, #8
 80085c2:	af00      	add	r7, sp, #0
 80085c4:	6078      	str	r0, [r7, #4]
  // load settings!

  // private settings from page 24 of app note
  VL6180X_Write8(device, 0x0207, 0x01);
 80085c6:	2201      	movs	r2, #1
 80085c8:	f240 2107 	movw	r1, #519	; 0x207
 80085cc:	6878      	ldr	r0, [r7, #4]
 80085ce:	f7ff ffa0 	bl	8008512 <VL6180X_Write8>
  VL6180X_Write8(device, 0x0208, 0x01);
 80085d2:	2201      	movs	r2, #1
 80085d4:	f44f 7102 	mov.w	r1, #520	; 0x208
 80085d8:	6878      	ldr	r0, [r7, #4]
 80085da:	f7ff ff9a 	bl	8008512 <VL6180X_Write8>
  VL6180X_Write8(device, 0x0096, 0x00);
 80085de:	2200      	movs	r2, #0
 80085e0:	2196      	movs	r1, #150	; 0x96
 80085e2:	6878      	ldr	r0, [r7, #4]
 80085e4:	f7ff ff95 	bl	8008512 <VL6180X_Write8>
  VL6180X_Write8(device, 0x0097, 0xfd);
 80085e8:	22fd      	movs	r2, #253	; 0xfd
 80085ea:	2197      	movs	r1, #151	; 0x97
 80085ec:	6878      	ldr	r0, [r7, #4]
 80085ee:	f7ff ff90 	bl	8008512 <VL6180X_Write8>
  VL6180X_Write8(device, 0x00e3, 0x00);
 80085f2:	2200      	movs	r2, #0
 80085f4:	21e3      	movs	r1, #227	; 0xe3
 80085f6:	6878      	ldr	r0, [r7, #4]
 80085f8:	f7ff ff8b 	bl	8008512 <VL6180X_Write8>
  VL6180X_Write8(device, 0x00e4, 0x04);
 80085fc:	2204      	movs	r2, #4
 80085fe:	21e4      	movs	r1, #228	; 0xe4
 8008600:	6878      	ldr	r0, [r7, #4]
 8008602:	f7ff ff86 	bl	8008512 <VL6180X_Write8>
  VL6180X_Write8(device, 0x00e5, 0x02);
 8008606:	2202      	movs	r2, #2
 8008608:	21e5      	movs	r1, #229	; 0xe5
 800860a:	6878      	ldr	r0, [r7, #4]
 800860c:	f7ff ff81 	bl	8008512 <VL6180X_Write8>
  VL6180X_Write8(device, 0x00e6, 0x01);
 8008610:	2201      	movs	r2, #1
 8008612:	21e6      	movs	r1, #230	; 0xe6
 8008614:	6878      	ldr	r0, [r7, #4]
 8008616:	f7ff ff7c 	bl	8008512 <VL6180X_Write8>
  VL6180X_Write8(device, 0x00e7, 0x03);
 800861a:	2203      	movs	r2, #3
 800861c:	21e7      	movs	r1, #231	; 0xe7
 800861e:	6878      	ldr	r0, [r7, #4]
 8008620:	f7ff ff77 	bl	8008512 <VL6180X_Write8>
  VL6180X_Write8(device, 0x00f5, 0x02);
 8008624:	2202      	movs	r2, #2
 8008626:	21f5      	movs	r1, #245	; 0xf5
 8008628:	6878      	ldr	r0, [r7, #4]
 800862a:	f7ff ff72 	bl	8008512 <VL6180X_Write8>
  VL6180X_Write8(device, 0x00d9, 0x05);
 800862e:	2205      	movs	r2, #5
 8008630:	21d9      	movs	r1, #217	; 0xd9
 8008632:	6878      	ldr	r0, [r7, #4]
 8008634:	f7ff ff6d 	bl	8008512 <VL6180X_Write8>
  VL6180X_Write8(device, 0x00db, 0xce);
 8008638:	22ce      	movs	r2, #206	; 0xce
 800863a:	21db      	movs	r1, #219	; 0xdb
 800863c:	6878      	ldr	r0, [r7, #4]
 800863e:	f7ff ff68 	bl	8008512 <VL6180X_Write8>
  VL6180X_Write8(device, 0x00dc, 0x03);
 8008642:	2203      	movs	r2, #3
 8008644:	21dc      	movs	r1, #220	; 0xdc
 8008646:	6878      	ldr	r0, [r7, #4]
 8008648:	f7ff ff63 	bl	8008512 <VL6180X_Write8>
  VL6180X_Write8(device, 0x00dd, 0xf8);
 800864c:	22f8      	movs	r2, #248	; 0xf8
 800864e:	21dd      	movs	r1, #221	; 0xdd
 8008650:	6878      	ldr	r0, [r7, #4]
 8008652:	f7ff ff5e 	bl	8008512 <VL6180X_Write8>
  VL6180X_Write8(device, 0x009f, 0x00);
 8008656:	2200      	movs	r2, #0
 8008658:	219f      	movs	r1, #159	; 0x9f
 800865a:	6878      	ldr	r0, [r7, #4]
 800865c:	f7ff ff59 	bl	8008512 <VL6180X_Write8>
  VL6180X_Write8(device, 0x00a3, 0x3c);
 8008660:	223c      	movs	r2, #60	; 0x3c
 8008662:	21a3      	movs	r1, #163	; 0xa3
 8008664:	6878      	ldr	r0, [r7, #4]
 8008666:	f7ff ff54 	bl	8008512 <VL6180X_Write8>
  VL6180X_Write8(device, 0x00b7, 0x00);
 800866a:	2200      	movs	r2, #0
 800866c:	21b7      	movs	r1, #183	; 0xb7
 800866e:	6878      	ldr	r0, [r7, #4]
 8008670:	f7ff ff4f 	bl	8008512 <VL6180X_Write8>
  VL6180X_Write8(device, 0x00bb, 0x3c);
 8008674:	223c      	movs	r2, #60	; 0x3c
 8008676:	21bb      	movs	r1, #187	; 0xbb
 8008678:	6878      	ldr	r0, [r7, #4]
 800867a:	f7ff ff4a 	bl	8008512 <VL6180X_Write8>
  VL6180X_Write8(device, 0x00b2, 0x09);
 800867e:	2209      	movs	r2, #9
 8008680:	21b2      	movs	r1, #178	; 0xb2
 8008682:	6878      	ldr	r0, [r7, #4]
 8008684:	f7ff ff45 	bl	8008512 <VL6180X_Write8>
  VL6180X_Write8(device, 0x00ca, 0x09);
 8008688:	2209      	movs	r2, #9
 800868a:	21ca      	movs	r1, #202	; 0xca
 800868c:	6878      	ldr	r0, [r7, #4]
 800868e:	f7ff ff40 	bl	8008512 <VL6180X_Write8>
  VL6180X_Write8(device, 0x0198, 0x01);
 8008692:	2201      	movs	r2, #1
 8008694:	f44f 71cc 	mov.w	r1, #408	; 0x198
 8008698:	6878      	ldr	r0, [r7, #4]
 800869a:	f7ff ff3a 	bl	8008512 <VL6180X_Write8>
  VL6180X_Write8(device, 0x01b0, 0x17);
 800869e:	2217      	movs	r2, #23
 80086a0:	f44f 71d8 	mov.w	r1, #432	; 0x1b0
 80086a4:	6878      	ldr	r0, [r7, #4]
 80086a6:	f7ff ff34 	bl	8008512 <VL6180X_Write8>
  VL6180X_Write8(device, 0x01ad, 0x00);
 80086aa:	2200      	movs	r2, #0
 80086ac:	f240 11ad 	movw	r1, #429	; 0x1ad
 80086b0:	6878      	ldr	r0, [r7, #4]
 80086b2:	f7ff ff2e 	bl	8008512 <VL6180X_Write8>
  VL6180X_Write8(device, 0x00ff, 0x05);
 80086b6:	2205      	movs	r2, #5
 80086b8:	21ff      	movs	r1, #255	; 0xff
 80086ba:	6878      	ldr	r0, [r7, #4]
 80086bc:	f7ff ff29 	bl	8008512 <VL6180X_Write8>
  VL6180X_Write8(device, 0x0100, 0x05);
 80086c0:	2205      	movs	r2, #5
 80086c2:	f44f 7180 	mov.w	r1, #256	; 0x100
 80086c6:	6878      	ldr	r0, [r7, #4]
 80086c8:	f7ff ff23 	bl	8008512 <VL6180X_Write8>
  VL6180X_Write8(device, 0x0199, 0x05);
 80086cc:	2205      	movs	r2, #5
 80086ce:	f240 1199 	movw	r1, #409	; 0x199
 80086d2:	6878      	ldr	r0, [r7, #4]
 80086d4:	f7ff ff1d 	bl	8008512 <VL6180X_Write8>
  VL6180X_Write8(device, 0x01a6, 0x1b);
 80086d8:	221b      	movs	r2, #27
 80086da:	f44f 71d3 	mov.w	r1, #422	; 0x1a6
 80086de:	6878      	ldr	r0, [r7, #4]
 80086e0:	f7ff ff17 	bl	8008512 <VL6180X_Write8>
  VL6180X_Write8(device, 0x01ac, 0x3e);
 80086e4:	223e      	movs	r2, #62	; 0x3e
 80086e6:	f44f 71d6 	mov.w	r1, #428	; 0x1ac
 80086ea:	6878      	ldr	r0, [r7, #4]
 80086ec:	f7ff ff11 	bl	8008512 <VL6180X_Write8>
  VL6180X_Write8(device, 0x01a7, 0x1f);
 80086f0:	221f      	movs	r2, #31
 80086f2:	f240 11a7 	movw	r1, #423	; 0x1a7
 80086f6:	6878      	ldr	r0, [r7, #4]
 80086f8:	f7ff ff0b 	bl	8008512 <VL6180X_Write8>
  VL6180X_Write8(device, 0x0030, 0x00);
 80086fc:	2200      	movs	r2, #0
 80086fe:	2130      	movs	r1, #48	; 0x30
 8008700:	6878      	ldr	r0, [r7, #4]
 8008702:	f7ff ff06 	bl	8008512 <VL6180X_Write8>

  // Recommended : Public registers - See data sheet for more detail
  VL6180X_Write8(device, 0x0011, 0x10); // Enables polling for 'New Sample ready'
 8008706:	2210      	movs	r2, #16
 8008708:	2111      	movs	r1, #17
 800870a:	6878      	ldr	r0, [r7, #4]
 800870c:	f7ff ff01 	bl	8008512 <VL6180X_Write8>
                        // when measurement completes
  VL6180X_Write8(device, 0x010a, 0x30); // Set the averaging sample period
 8008710:	2230      	movs	r2, #48	; 0x30
 8008712:	f44f 7185 	mov.w	r1, #266	; 0x10a
 8008716:	6878      	ldr	r0, [r7, #4]
 8008718:	f7ff fefb 	bl	8008512 <VL6180X_Write8>
                        // (compromise between lower noise and
                        // increased execution time)
  VL6180X_Write8(device, 0x003f, 0x46); // Sets the light and dark gain (upper
 800871c:	2246      	movs	r2, #70	; 0x46
 800871e:	213f      	movs	r1, #63	; 0x3f
 8008720:	6878      	ldr	r0, [r7, #4]
 8008722:	f7ff fef6 	bl	8008512 <VL6180X_Write8>
                        // nibble). Dark gain should not be
                        // changed.
  VL6180X_Write8(device, 0x0031, 0xFF); // sets the # of range measurements after
 8008726:	22ff      	movs	r2, #255	; 0xff
 8008728:	2131      	movs	r1, #49	; 0x31
 800872a:	6878      	ldr	r0, [r7, #4]
 800872c:	f7ff fef1 	bl	8008512 <VL6180X_Write8>
                        // which auto calibration of system is
                        // performed
  VL6180X_Write8(device, 0x0041, 0x63); // Set ALS integration time to 100ms
 8008730:	2263      	movs	r2, #99	; 0x63
 8008732:	2141      	movs	r1, #65	; 0x41
 8008734:	6878      	ldr	r0, [r7, #4]
 8008736:	f7ff feec 	bl	8008512 <VL6180X_Write8>
  VL6180X_Write8(device, 0x002e, 0x01); // perform a single temperature calibration
 800873a:	2201      	movs	r2, #1
 800873c:	212e      	movs	r1, #46	; 0x2e
 800873e:	6878      	ldr	r0, [r7, #4]
 8008740:	f7ff fee7 	bl	8008512 <VL6180X_Write8>
                        // of the ranging sensor

  // Optional: Public registers - See data sheet for more detail
  VL6180X_Write8(device, SYSRANGE__INTERMEASUREMENT_PERIOD, 0x09);
 8008744:	2209      	movs	r2, #9
 8008746:	211b      	movs	r1, #27
 8008748:	6878      	ldr	r0, [r7, #4]
 800874a:	f7ff fee2 	bl	8008512 <VL6180X_Write8>
                        // Set default ranging inter-measurement
                        // period to 100ms
  VL6180X_Write8(device, 0x003e, 0x31); // Set default ALS inter-measurement period
 800874e:	2231      	movs	r2, #49	; 0x31
 8008750:	213e      	movs	r1, #62	; 0x3e
 8008752:	6878      	ldr	r0, [r7, #4]
 8008754:	f7ff fedd 	bl	8008512 <VL6180X_Write8>
                        // to 500ms
  VL6180X_Write8(device, 0x0014, 0x24); // Configures interrupt on 'New Sample
 8008758:	2224      	movs	r2, #36	; 0x24
 800875a:	2114      	movs	r1, #20
 800875c:	6878      	ldr	r0, [r7, #4]
 800875e:	f7ff fed8 	bl	8008512 <VL6180X_Write8>
                        // Ready threshold event'
}
 8008762:	bf00      	nop
 8008764:	3708      	adds	r7, #8
 8008766:	46bd      	mov	sp, r7
 8008768:	bd80      	pop	{r7, pc}

0800876a <VL6180X_ReadRange>:
   readRangeStatus} to before using the return value!
    @return Distance in millimeters if valid
*/
/**************************************************************************/

uint8_t VL6180X_ReadRange(VL6180X_Handler_t *device) {
 800876a:	b580      	push	{r7, lr}
 800876c:	b084      	sub	sp, #16
 800876e:	af00      	add	r7, sp, #0
 8008770:	6078      	str	r0, [r7, #4]
  // wait for device to be ready for range measurement
  while (!(VL6180X_Read8(device, VL6180X_REG_RESULT_RANGE_STATUS) & 0x01));
 8008772:	bf00      	nop
 8008774:	214d      	movs	r1, #77	; 0x4d
 8008776:	6878      	ldr	r0, [r7, #4]
 8008778:	f7ff fe98 	bl	80084ac <VL6180X_Read8>
 800877c:	4603      	mov	r3, r0
 800877e:	f003 0301 	and.w	r3, r3, #1
 8008782:	2b00      	cmp	r3, #0
 8008784:	d0f6      	beq.n	8008774 <VL6180X_ReadRange+0xa>

  // Start a range measurement
  VL6180X_Write8(device, VL6180X_REG_SYSRANGE_START, 0x01);
 8008786:	2201      	movs	r2, #1
 8008788:	2118      	movs	r1, #24
 800878a:	6878      	ldr	r0, [r7, #4]
 800878c:	f7ff fec1 	bl	8008512 <VL6180X_Write8>

  // Poll until bit 2 is set
  while (!(VL6180X_Read8(device, VL6180X_REG_RESULT_INTERRUPT_STATUS_GPIO) & 0x04));
 8008790:	bf00      	nop
 8008792:	214f      	movs	r1, #79	; 0x4f
 8008794:	6878      	ldr	r0, [r7, #4]
 8008796:	f7ff fe89 	bl	80084ac <VL6180X_Read8>
 800879a:	4603      	mov	r3, r0
 800879c:	f003 0304 	and.w	r3, r3, #4
 80087a0:	2b00      	cmp	r3, #0
 80087a2:	d0f6      	beq.n	8008792 <VL6180X_ReadRange+0x28>

  // read range in mm
  uint8_t range = VL6180X_Read8(device, VL6180X_REG_RESULT_RANGE_VAL);
 80087a4:	2162      	movs	r1, #98	; 0x62
 80087a6:	6878      	ldr	r0, [r7, #4]
 80087a8:	f7ff fe80 	bl	80084ac <VL6180X_Read8>
 80087ac:	4603      	mov	r3, r0
 80087ae:	73fb      	strb	r3, [r7, #15]

  // clear interrupt
  VL6180X_Write8(device, VL6180X_REG_SYSTEM_INTERRUPT_CLEAR, 0x07);
 80087b0:	2207      	movs	r2, #7
 80087b2:	2115      	movs	r1, #21
 80087b4:	6878      	ldr	r0, [r7, #4]
 80087b6:	f7ff feac 	bl	8008512 <VL6180X_Write8>

  return range;
 80087ba:	7bfb      	ldrb	r3, [r7, #15]
}
 80087bc:	4618      	mov	r0, r3
 80087be:	3710      	adds	r7, #16
 80087c0:	46bd      	mov	sp, r7
 80087c2:	bd80      	pop	{r7, pc}

080087c4 <__errno>:
 80087c4:	4b01      	ldr	r3, [pc, #4]	; (80087cc <__errno+0x8>)
 80087c6:	6818      	ldr	r0, [r3, #0]
 80087c8:	4770      	bx	lr
 80087ca:	bf00      	nop
 80087cc:	20000010 	.word	0x20000010

080087d0 <__libc_init_array>:
 80087d0:	b570      	push	{r4, r5, r6, lr}
 80087d2:	4d0d      	ldr	r5, [pc, #52]	; (8008808 <__libc_init_array+0x38>)
 80087d4:	4c0d      	ldr	r4, [pc, #52]	; (800880c <__libc_init_array+0x3c>)
 80087d6:	1b64      	subs	r4, r4, r5
 80087d8:	10a4      	asrs	r4, r4, #2
 80087da:	2600      	movs	r6, #0
 80087dc:	42a6      	cmp	r6, r4
 80087de:	d109      	bne.n	80087f4 <__libc_init_array+0x24>
 80087e0:	4d0b      	ldr	r5, [pc, #44]	; (8008810 <__libc_init_array+0x40>)
 80087e2:	4c0c      	ldr	r4, [pc, #48]	; (8008814 <__libc_init_array+0x44>)
 80087e4:	f000 f854 	bl	8008890 <_init>
 80087e8:	1b64      	subs	r4, r4, r5
 80087ea:	10a4      	asrs	r4, r4, #2
 80087ec:	2600      	movs	r6, #0
 80087ee:	42a6      	cmp	r6, r4
 80087f0:	d105      	bne.n	80087fe <__libc_init_array+0x2e>
 80087f2:	bd70      	pop	{r4, r5, r6, pc}
 80087f4:	f855 3b04 	ldr.w	r3, [r5], #4
 80087f8:	4798      	blx	r3
 80087fa:	3601      	adds	r6, #1
 80087fc:	e7ee      	b.n	80087dc <__libc_init_array+0xc>
 80087fe:	f855 3b04 	ldr.w	r3, [r5], #4
 8008802:	4798      	blx	r3
 8008804:	3601      	adds	r6, #1
 8008806:	e7f2      	b.n	80087ee <__libc_init_array+0x1e>
 8008808:	08008978 	.word	0x08008978
 800880c:	08008978 	.word	0x08008978
 8008810:	08008978 	.word	0x08008978
 8008814:	0800897c 	.word	0x0800897c

08008818 <memcpy>:
 8008818:	440a      	add	r2, r1
 800881a:	4291      	cmp	r1, r2
 800881c:	f100 33ff 	add.w	r3, r0, #4294967295
 8008820:	d100      	bne.n	8008824 <memcpy+0xc>
 8008822:	4770      	bx	lr
 8008824:	b510      	push	{r4, lr}
 8008826:	f811 4b01 	ldrb.w	r4, [r1], #1
 800882a:	f803 4f01 	strb.w	r4, [r3, #1]!
 800882e:	4291      	cmp	r1, r2
 8008830:	d1f9      	bne.n	8008826 <memcpy+0xe>
 8008832:	bd10      	pop	{r4, pc}

08008834 <memset>:
 8008834:	4402      	add	r2, r0
 8008836:	4603      	mov	r3, r0
 8008838:	4293      	cmp	r3, r2
 800883a:	d100      	bne.n	800883e <memset+0xa>
 800883c:	4770      	bx	lr
 800883e:	f803 1b01 	strb.w	r1, [r3], #1
 8008842:	e7f9      	b.n	8008838 <memset+0x4>
 8008844:	0000      	movs	r0, r0
	...

08008848 <sqrt>:
 8008848:	b508      	push	{r3, lr}
 800884a:	ed2d 8b04 	vpush	{d8-d9}
 800884e:	eeb0 8b40 	vmov.f64	d8, d0
 8008852:	f000 f819 	bl	8008888 <__ieee754_sqrt>
 8008856:	eeb4 8b48 	vcmp.f64	d8, d8
 800885a:	eef1 fa10 	vmrs	APSR_nzcv, fpscr
 800885e:	d60c      	bvs.n	800887a <sqrt+0x32>
 8008860:	ed9f 9b07 	vldr	d9, [pc, #28]	; 8008880 <sqrt+0x38>
 8008864:	eeb4 8bc9 	vcmpe.f64	d8, d9
 8008868:	eef1 fa10 	vmrs	APSR_nzcv, fpscr
 800886c:	d505      	bpl.n	800887a <sqrt+0x32>
 800886e:	f7ff ffa9 	bl	80087c4 <__errno>
 8008872:	ee89 0b09 	vdiv.f64	d0, d9, d9
 8008876:	2321      	movs	r3, #33	; 0x21
 8008878:	6003      	str	r3, [r0, #0]
 800887a:	ecbd 8b04 	vpop	{d8-d9}
 800887e:	bd08      	pop	{r3, pc}
	...

08008888 <__ieee754_sqrt>:
 8008888:	eeb1 0bc0 	vsqrt.f64	d0, d0
 800888c:	4770      	bx	lr
	...

08008890 <_init>:
 8008890:	b5f8      	push	{r3, r4, r5, r6, r7, lr}
 8008892:	bf00      	nop
 8008894:	bcf8      	pop	{r3, r4, r5, r6, r7}
 8008896:	bc08      	pop	{r3}
 8008898:	469e      	mov	lr, r3
 800889a:	4770      	bx	lr

0800889c <_fini>:
 800889c:	b5f8      	push	{r3, r4, r5, r6, r7, lr}
 800889e:	bf00      	nop
 80088a0:	bcf8      	pop	{r3, r4, r5, r6, r7}
 80088a2:	bc08      	pop	{r3}
 80088a4:	469e      	mov	lr, r3
 80088a6:	4770      	bx	lr
